(dp0
S'HEADER'
p1
S'This is a GPI Network File'
p2
sS'GPI_VERSION'
p3
S'0.2'
p4
sS'PLATFORM'
p5
(dp6
S'OSX'
p7
S'10.8.5'
p8
sS'PYTHON_VERSION'
p9
S'2.7.6'
p10
sS'PYTHON'
p11
S'CPython'
p12
sS'TOTAL_PHYMEM'
p13
L17179869184L
sS'NUM_CPUS'
p14
I8
sS'HOSTNAME'
p15
S'tron.local'
p16
sg5
S'Darwin-12.5.0-x86_64-i386-64bit'
p17
sS'TOTAL_PHYMEM_STR'
p18
S'16.00 GB'
p19
sS'OS'
p20
S'Darwin'
p21
ssS'DATETIME'
p22
S'Wed Apr  2 11:25:40 2014'
p23
sS'NETWORK_VERSION'
p24
S'2'
p25
sS'layouts'
p26
(lp27
sS'TOTAL_PMEM'
p28
S'328485968'
p29
sS'nodes'
p30
(dp31
S'macroNodes'
p32
(lp33
sg30
(lp34
(dp35
S'widget_settings'
p36
(dp37
S'parms'
p38
(lp39
(dp40
S'type'
p41
S"<class 'gpi.widgets.ExclusivePushButtons'>"
p42
sS'name'
p43
S'Dimensions'
p44
sS'kwargs'
p45
(dp46
S'outport'
p47
I00
sS'quietval'
p48
NsS'val'
p49
I1
sS'collapsed'
p50
I00
sS'inport'
p51
I00
sS'visible'
p52
I01
sS'id'
p53
I4631574232
ssa(dp54
g41
S"<class 'gpi.widgets.ExclusiveRadioButtons'>"
p55
sg43
S'Function'
p56
sg45
(dp57
S'outport'
p58
I00
sS'quietval'
p59
Nsg49
I2
sS'collapsed'
p60
I00
sS'inport'
p61
I00
sS'visible'
p62
I01
sS'id'
p63
I4631574992
ssa(dp64
g41
S"<class 'gpi.widgets.PushButton'>"
p65
sg43
S'Compute'
p66
sg45
(dp67
S'outport'
p68
I00
sS'quietval'
p69
Nsg49
I01
sS'collapsed'
p70
I00
sS'inport'
p71
I00
sS'visible'
p72
I01
sS'toggle'
p73
I01
sS'button_title'
p74
VON
p75
sS'id'
p76
I4631580752
ssa(dp77
g41
S"<class '/opt/gpi/lib/core/generators/GPI/Shapes_GPI.SHAPES_GROUP'>"
p78
sg43
S'Dimension: 1'
p79
sg45
(dp80
S'outport'
p81
I00
sS'quietval'
p82
Nsg49
(dp83
S'width'
p84
I20
sS'size'
p85
I436
ssS'collapsed'
p86
I00
sS'inport'
p87
I00
sS'visible'
p88
I01
sS'id'
p89
I4631581512
ssa(dp90
g41
S"<class '/opt/gpi/lib/core/generators/GPI/Shapes_GPI.SHAPES_GROUP'>"
p91
sg43
S'Dimension: 2'
p92
sg45
(dp93
S'outport'
p94
I00
sS'quietval'
p95
Nsg49
(dp96
g84
I25
sg85
I436
ssS'collapsed'
p97
I00
sS'inport'
p98
I00
sS'visible'
p99
I00
sS'id'
p100
I4631583640
ssa(dp101
g41
S"<class '/opt/gpi/lib/core/generators/GPI/Shapes_GPI.SHAPES_GROUP'>"
p102
sg43
S'Dimension: 3'
p103
sg45
(dp104
S'outport'
p105
I00
sS'quietval'
p106
Nsg49
(dp107
g84
I1
sg85
I1
ssS'collapsed'
p108
I00
sS'inport'
p109
I00
sS'visible'
p110
I00
sS'id'
p111
I4631598200
ssa(dp112
g41
S"<class 'gpi.widgets.SpinBox'>"
p113
sg43
S'Veclen:'
p114
sg45
(dp115
S'outport'
p116
I00
sS'quietval'
p117
Nsg49
I1
sS'min'
p118
I1
sS'max'
p119
I2147483647
sS'collapsed'
p120
I00
sS'wrapping'
p121
I00
sS'immediate'
p122
I00
sS'label'
p123
V
p124
sS'singlestep'
p125
I1
sS'visible'
p126
I01
sS'inport'
p127
I00
sS'id'
p128
I4631600328
ssa(dp129
g41
S"<class 'gpi.widgets.DoubleSpinBox'>"
p130
sg43
S'Pass Value:'
p131
sg45
(dp132
S'outport'
p133
I00
sS'quietval'
p134
Nsg49
F1.0
sS'min'
p135
F-1.7976931348623157e+308
sS'max'
p136
F1.7976931348623157e+308
sS'collapsed'
p137
I00
sS'wrapping'
p138
I00
sS'immediate'
p139
I00
sS'label'
p140
g124
sS'singlestep'
p141
F1.0
sS'visible'
p142
I01
sS'inport'
p143
I00
sS'decimals'
p144
I5
sS'id'
p145
I4631601384
ssa(dp146
g41
S"<class 'gpi.widgets.DoubleSpinBox'>"
p147
sg43
S'Stop Value:'
p148
sg45
(dp149
S'outport'
p150
I00
sS'quietval'
p151
Nsg49
F0.0
sS'min'
p152
F-1.7976931348623157e+308
sS'max'
p153
F1.7976931348623157e+308
sS'collapsed'
p154
I00
sS'wrapping'
p155
I00
sS'immediate'
p156
I00
sS'label'
p157
g124
sS'singlestep'
p158
F1.0
sS'visible'
p159
I01
sS'inport'
p160
I00
sS'decimals'
p161
I5
sS'id'
p162
I4631602296
ssa(dp163
g41
S"<class 'gpi.widgets.Slider'>"
p164
sg43
S'Window:'
p165
sg45
(dp166
S'outport'
p167
I00
sS'quietval'
p168
Nsg49
I100
sS'min'
p169
I0
sS'max'
p170
I100
sS'collapsed'
p171
I00
sS'inport'
p172
I00
sS'visible'
p173
I01
sS'id'
p174
I4631603208
ssa(dp175
g41
S"<class 'gpi.widgets.DoubleSpinBox'>"
p176
sg43
S'Poly Const:'
p177
sg45
(dp178
S'outport'
p179
I00
sS'quietval'
p180
Nsg49
F0.0
sS'min'
p181
F-1.7976931348623157e+308
sS'max'
p182
F1.7976931348623157e+308
sS'collapsed'
p183
I00
sS'wrapping'
p184
I00
sS'immediate'
p185
I00
sS'label'
p186
g124
sS'singlestep'
p187
F1.0
sS'visible'
p188
I00
sS'inport'
p189
I00
sS'decimals'
p190
I5
sS'id'
p191
I4631604424
ssa(dp192
g41
S"<class 'gpi.widgets.DoubleSpinBox'>"
p193
sg43
S'Poly i:'
p194
sg45
(dp195
S'outport'
p196
I00
sS'quietval'
p197
Nsg49
F0.0
sS'min'
p198
F-1.7976931348623157e+308
sS'max'
p199
F1.7976931348623157e+308
sS'collapsed'
p200
I00
sS'wrapping'
p201
I00
sS'immediate'
p202
I00
sS'label'
p203
g124
sS'singlestep'
p204
F1.0
sS'visible'
p205
I00
sS'inport'
p206
I00
sS'decimals'
p207
I5
sS'id'
p208
I4631605480
ssa(dp209
g41
S"<class 'gpi.widgets.DoubleSpinBox'>"
p210
sg43
S'Poly i^2:'
p211
sg45
(dp212
S'outport'
p213
I00
sS'quietval'
p214
Nsg49
F0.0
sS'min'
p215
F-1.7976931348623157e+308
sS'max'
p216
F1.7976931348623157e+308
sS'collapsed'
p217
I00
sS'wrapping'
p218
I00
sS'immediate'
p219
I00
sS'label'
p220
g124
sS'singlestep'
p221
F1.0
sS'visible'
p222
I00
sS'inport'
p223
I00
sS'decimals'
p224
I5
sS'id'
p225
I4631606392
ssa(dp226
g41
S"<class 'gpi.widgets.DoubleSpinBox'>"
p227
sg43
S'Poly j:'
p228
sg45
(dp229
S'outport'
p230
I00
sS'quietval'
p231
Nsg49
F0.0
sS'min'
p232
F-1.7976931348623157e+308
sS'max'
p233
F1.7976931348623157e+308
sS'collapsed'
p234
I00
sS'wrapping'
p235
I00
sS'immediate'
p236
I00
sS'label'
p237
g124
sS'singlestep'
p238
F1.0
sS'visible'
p239
I00
sS'inport'
p240
I00
sS'decimals'
p241
I5
sS'id'
p242
I4631607304
ssa(dp243
g41
S"<class 'gpi.widgets.DoubleSpinBox'>"
p244
sg43
S'Poly j^2:'
p245
sg45
(dp246
S'outport'
p247
I00
sS'quietval'
p248
Nsg49
F0.0
sS'min'
p249
F-1.7976931348623157e+308
sS'max'
p250
F1.7976931348623157e+308
sS'collapsed'
p251
I00
sS'wrapping'
p252
I00
sS'immediate'
p253
I00
sS'label'
p254
g124
sS'singlestep'
p255
F1.0
sS'visible'
p256
I00
sS'inport'
p257
I00
sS'decimals'
p258
I5
sS'id'
p259
I4631608216
ssa(dp260
g41
S"<class 'gpi.widgets.DoubleSpinBox'>"
p261
sg43
S'Poly k:'
p262
sg45
(dp263
S'outport'
p264
I00
sS'quietval'
p265
Nsg49
F0.0
sS'min'
p266
F-1.7976931348623157e+308
sS'max'
p267
F1.7976931348623157e+308
sS'collapsed'
p268
I00
sS'wrapping'
p269
I00
sS'immediate'
p270
I00
sS'label'
p271
g124
sS'singlestep'
p272
F1.0
sS'visible'
p273
I00
sS'inport'
p274
I00
sS'decimals'
p275
I5
sS'id'
p276
I4631609128
ssa(dp277
g41
S"<class 'gpi.widgets.DoubleSpinBox'>"
p278
sg43
S'Poly k^2:'
p279
sg45
(dp280
S'outport'
p281
I00
sS'quietval'
p282
Nsg49
F0.0
sS'min'
p283
F-1.7976931348623157e+308
sS'max'
p284
F1.7976931348623157e+308
sS'collapsed'
p285
I00
sS'wrapping'
p286
I00
sS'immediate'
p287
I00
sS'label'
p288
g124
sS'singlestep'
p289
F1.0
sS'visible'
p290
I00
sS'inport'
p291
I00
sS'decimals'
p292
I5
sS'id'
p293
I4631610184
ssa(dp294
g41
S"<class 'gpi.widgets.DoubleSpinBox'>"
p295
sg43
S'Noise Std:'
p296
sg45
(dp297
S'outport'
p298
I00
sS'quietval'
p299
Nsg49
F1.0
sS'min'
p300
F-1.7976931348623157e+308
sS'max'
p301
F1.7976931348623157e+308
sS'collapsed'
p302
I00
sS'wrapping'
p303
I00
sS'immediate'
p304
I00
sS'label'
p305
g124
sS'singlestep'
p306
F1.0
sS'visible'
p307
I00
sS'inport'
p308
I00
sS'decimals'
p309
I5
sS'id'
p310
I4631611096
ssasS'label'
p311
S'MTF'
p312
ssS'avgwalltime'
p313
S'0.130545496941'
p314
sg43
S'Shapes'
p315
sS'pos'
p316
(lp317
F-33.9947617167002
aF-229.46725064218157
asS'ports'
p318
(lp319
(dp320
S'porttitle'
p321
S'out'
p322
sS'portnum'
p323
I0
sS'connections'
p324
(lp325
(dp326
S'dest'
p327
(dp328
S'portName'
p329
S'inRight'
p330
sS'portID'
p331
I4680737304
sS'portNum'
p332
I1
sS'nodeID'
p333
I4468923744
ssS'src'
p334
(dp335
g329
g322
sg331
I4631612008
sg332
I0
sg333
I4629859680
ssasS'widgetTitle'
p336
NsS'porttype'
p337
I65541
sS'obligation'
p338
NsS'id'
p339
I4631612008
sasS'stdwalltime'
p340
S'0.130545496941'
p341
sS'key'
p342
S'core.generators.Shapes'
p343
sg339
I4629859680
sS'walltime'
p344
S'0.261090993881'
p345
sa(dp346
g36
(dp347
g38
(lp348
(dp349
g41
S"<class 'gpi.widgets.ExclusivePushButtons'>"
p350
sg43
S'Complex Display'
p351
sg45
(dp352
S'outport'
p353
I00
sS'quietval'
p354
Nsg49
I4
sS'collapsed'
p355
I00
sS'inport'
p356
I00
sS'visible'
p357
I01
sS'id'
p358
I4632478232
ssa(dp359
g41
S"<class 'gpi.widgets.SpinBox'>"
p360
sg43
S'Edge Pixels'
p361
sg45
(dp362
S'outport'
p363
I00
sS'quietval'
p364
Nsg49
I0
sS'min'
p365
I0
sS'max'
p366
I2147483647
sS'collapsed'
p367
I00
sS'wrapping'
p368
I00
sS'immediate'
p369
I00
sS'label'
p370
g124
sS'singlestep'
p371
I1
sS'visible'
p372
I01
sS'inport'
p373
I00
sS'id'
p374
I4632479296
ssa(dp375
g41
S"<class 'gpi.widgets.SpinBox'>"
p376
sg43
S'Black Pixels'
p377
sg45
(dp378
S'outport'
p379
I00
sS'quietval'
p380
Nsg49
I0
sS'min'
p381
I0
sS'max'
p382
I2147483647
sS'collapsed'
p383
I00
sS'wrapping'
p384
I00
sS'immediate'
p385
I00
sS'label'
p386
g124
sS'singlestep'
p387
I1
sS'visible'
p388
I01
sS'inport'
p389
I00
sS'id'
p390
I4632480208
ssa(dp391
g41
S"<class 'gpi.widgets.DisplayBox'>"
p392
sg43
S'Viewport:'
p393
sg45
(dp394
S'outport'
p395
I00
sS'scale'
p396
F1.0
sS'quietval'
p397
Nsg49
NsS'collapsed'
p398
I01
sS'interp'
p399
I00
sS'inport'
p400
I00
sS'visible'
p401
I01
sS'noscroll'
p402
I01
sS'points'
p403
NsS'line'
p404
NsS'id'
p405
I4632481120
ssa(dp406
g41
S"<class '/opt/gpi/lib/core/display/GPI/ImageDisplay_GPI.WindowLevel'>"
p407
sg43
S'L W F C:'
p408
sg45
(dp409
S'outport'
p410
I00
sS'quietval'
p411
Nsg49
(dp412
S'window'
p413
I100
sS'floor'
p414
I0
sS'ceiling'
p415
I100
sS'level'
p416
I50
ssS'min'
p417
I0
sS'max'
p418
I100
sS'collapsed'
p419
I00
sS'inport'
p420
I00
sS'visible'
p421
I01
sS'id'
p422
I4632487792
ssa(dp423
g41
S"<class 'gpi.widgets.ExclusivePushButtons'>"
p424
sg43
S'Scalar Display'
p425
sg45
(dp426
S'outport'
p427
I00
sS'quietval'
p428
Nsg49
I0
sS'collapsed'
p429
I00
sS'inport'
p430
I00
sS'visible'
p431
I00
sS'id'
p432
I4632492648
ssa(dp433
g41
S"<class 'gpi.widgets.DoubleSpinBox'>"
p434
sg43
S'Gamma'
p435
sg45
(dp436
S'outport'
p437
I00
sS'quietval'
p438
Nsg49
F1.0
sS'min'
p439
F0.1
sS'max'
p440
F10.0
sS'collapsed'
p441
I00
sS'wrapping'
p442
I00
sS'immediate'
p443
I00
sS'label'
p444
g124
sS'singlestep'
p445
F0.05
sS'visible'
p446
I01
sS'inport'
p447
I00
sS'decimals'
p448
I3
sS'id'
p449
I4632493408
ssa(dp450
g41
S"<class 'gpi.widgets.ExclusivePushButtons'>"
p451
sg43
S'Zero Ref'
p452
sg45
(dp453
S'outport'
p454
I00
sS'quietval'
p455
Nsg49
I0
sS'collapsed'
p456
I00
sS'inport'
p457
I00
sS'visible'
p458
I00
sS'id'
p459
I4632494464
ssa(dp460
g41
S"<class 'gpi.widgets.PushButton'>"
p461
sg43
S'Fix Range'
p462
sg45
(dp463
S'outport'
p464
I00
sS'quietval'
p465
Nsg49
I00
sS'collapsed'
p466
I00
sS'inport'
p467
I00
sS'visible'
p468
I01
sS'toggle'
p469
I01
sS'button_title'
p470
VAuto-Range On
p471
sS'id'
p472
I4632495376
ssa(dp473
g41
S"<class 'gpi.widgets.DoubleSpinBox'>"
p474
sg43
S'Range Min'
p475
sg45
(dp476
S'outport'
p477
I00
sS'quietval'
p478
Nsg49
F0.0
sS'min'
p479
F-1.7976931348623157e+308
sS'max'
p480
F1.7976931348623157e+308
sS'collapsed'
p481
I00
sS'wrapping'
p482
I00
sS'immediate'
p483
I00
sS'label'
p484
g124
sS'singlestep'
p485
F1.0
sS'visible'
p486
I00
sS'inport'
p487
I00
sS'decimals'
p488
I2
sS'id'
p489
I4632496136
ssa(dp490
g41
S"<class 'gpi.widgets.DoubleSpinBox'>"
p491
sg43
S'Range Max'
p492
sg45
(dp493
S'outport'
p494
I00
sS'quietval'
p495
Nsg49
F37136.84
sS'min'
p496
F-1.7976931348623157e+308
sS'max'
p497
F1.7976931348623157e+308
sS'collapsed'
p498
I00
sS'wrapping'
p499
I00
sS'immediate'
p500
I00
sS'label'
p501
g124
sS'singlestep'
p502
F1.0
sS'visible'
p503
I01
sS'inport'
p504
I00
sS'decimals'
p505
I2
sS'id'
p506
I4632497048
ssasg311
S'Coil Images'
p507
ssg313
S'0.0513956397772'
p508
sg43
S'ImageDisplay'
p509
sg316
(lp510
F71.02844192168769
aF207.52695820833387
asg318
(lp511
(dp512
g321
S'in'
p513
sg323
I0
sg324
(lp514
(dp515
g327
(dp516
g329
g513
sg331
I4632497960
sg332
I0
sg333
I4632438792
ssg334
(dp517
g329
g322
sg331
I4631955008
sg332
I0
sg333
I4631862928
ssasg336
Nsg337
I65540
sg338
I100
sg339
I4632497960
sa(dp518
g321
g322
sg323
I0
sg324
(lp519
sg336
Nsg337
I65541
sg338
Nsg339
I4632502352
sasg340
S'0.0146550059383'
p520
sg342
S'core.display.ImageDisplay'
p521
sg339
I4632438792
sg344
S'0.0531408786774'
p522
sa(dp523
g36
(dp524
g38
(lp525
(dp526
g41
S"<class 'gpi.widgets.ExclusivePushButtons'>"
p527
sg43
S'Complex Display'
p528
sg45
(dp529
S'outport'
p530
I00
sS'quietval'
p531
Nsg49
I4
sS'collapsed'
p532
I00
sS'inport'
p533
I00
sS'visible'
p534
I01
sS'id'
p535
I4635443736
ssa(dp536
g41
S"<class 'gpi.widgets.SpinBox'>"
p537
sg43
S'Edge Pixels'
p538
sg45
(dp539
S'outport'
p540
I00
sS'quietval'
p541
Nsg49
I0
sS'min'
p542
I0
sS'max'
p543
I2147483647
sS'collapsed'
p544
I00
sS'wrapping'
p545
I00
sS'immediate'
p546
I00
sS'label'
p547
g124
sS'singlestep'
p548
I1
sS'visible'
p549
I01
sS'inport'
p550
I00
sS'id'
p551
I4635444800
ssa(dp552
g41
S"<class 'gpi.widgets.SpinBox'>"
p553
sg43
S'Black Pixels'
p554
sg45
(dp555
S'outport'
p556
I00
sS'quietval'
p557
Nsg49
I0
sS'min'
p558
I0
sS'max'
p559
I2147483647
sS'collapsed'
p560
I00
sS'wrapping'
p561
I00
sS'immediate'
p562
I00
sS'label'
p563
g124
sS'singlestep'
p564
I1
sS'visible'
p565
I01
sS'inport'
p566
I00
sS'id'
p567
I4635445712
ssa(dp568
g41
S"<class 'gpi.widgets.DisplayBox'>"
p569
sg43
S'Viewport:'
p570
sg45
(dp571
S'outport'
p572
I00
sS'scale'
p573
F1.0
sS'quietval'
p574
Nsg49
NsS'collapsed'
p575
I01
sS'interp'
p576
I00
sS'inport'
p577
I00
sS'visible'
p578
I01
sS'noscroll'
p579
I01
sS'points'
p580
NsS'line'
p581
NsS'id'
p582
I4635446624
ssa(dp583
g41
S"<class '/opt/gpi/lib/core/display/GPI/ImageDisplay_GPI.WindowLevel'>"
p584
sg43
S'L W F C:'
p585
sg45
(dp586
S'outport'
p587
I00
sS'quietval'
p588
Nsg49
(dp589
g413
I100
sg414
I0
sg415
I100
sg416
I50
ssS'min'
p590
I0
sS'max'
p591
I100
sS'collapsed'
p592
I00
sS'inport'
p593
I00
sS'visible'
p594
I01
sS'id'
p595
I4635457392
ssa(dp596
g41
S"<class 'gpi.widgets.ExclusivePushButtons'>"
p597
sg43
S'Scalar Display'
p598
sg45
(dp599
S'outport'
p600
I00
sS'quietval'
p601
Nsg49
I0
sS'collapsed'
p602
I00
sS'inport'
p603
I00
sS'visible'
p604
I00
sS'id'
p605
I4635462248
ssa(dp606
g41
S"<class 'gpi.widgets.DoubleSpinBox'>"
p607
sg43
g435
sg45
(dp608
S'outport'
p609
I00
sS'quietval'
p610
Nsg49
F1.0
sS'min'
p611
F0.1
sS'max'
p612
F10.0
sS'collapsed'
p613
I00
sS'wrapping'
p614
I00
sS'immediate'
p615
I00
sS'label'
p616
g124
sS'singlestep'
p617
F0.05
sS'visible'
p618
I01
sS'inport'
p619
I00
sS'decimals'
p620
I3
sS'id'
p621
I4635463008
ssa(dp622
g41
S"<class 'gpi.widgets.ExclusivePushButtons'>"
p623
sg43
S'Zero Ref'
p624
sg45
(dp625
S'outport'
p626
I00
sS'quietval'
p627
Nsg49
I0
sS'collapsed'
p628
I00
sS'inport'
p629
I00
sS'visible'
p630
I00
sS'id'
p631
I4635464064
ssa(dp632
g41
S"<class 'gpi.widgets.PushButton'>"
p633
sg43
S'Fix Range'
p634
sg45
(dp635
S'outport'
p636
I00
sS'quietval'
p637
Nsg49
I00
sS'collapsed'
p638
I00
sS'inport'
p639
I00
sS'visible'
p640
I01
sS'toggle'
p641
I01
sS'button_title'
p642
VAuto-Range On
p643
sS'id'
p644
I4635464976
ssa(dp645
g41
S"<class 'gpi.widgets.DoubleSpinBox'>"
p646
sg43
S'Range Min'
p647
sg45
(dp648
S'outport'
p649
I00
sS'quietval'
p650
Nsg49
F1.0
sS'min'
p651
F-1.7976931348623157e+308
sS'max'
p652
F1.7976931348623157e+308
sS'collapsed'
p653
I00
sS'wrapping'
p654
I00
sS'immediate'
p655
I00
sS'label'
p656
g124
sS'singlestep'
p657
F1.0
sS'visible'
p658
I00
sS'inport'
p659
I00
sS'decimals'
p660
I2
sS'id'
p661
I4635465736
ssa(dp662
g41
S"<class 'gpi.widgets.DoubleSpinBox'>"
p663
sg43
S'Range Max'
p664
sg45
(dp665
S'outport'
p666
I00
sS'quietval'
p667
Nsg49
F104022.26
sS'min'
p668
F-1.7976931348623157e+308
sS'max'
p669
F1.7976931348623157e+308
sS'collapsed'
p670
I00
sS'wrapping'
p671
I00
sS'immediate'
p672
I00
sS'label'
p673
g124
sS'singlestep'
p674
F1.0
sS'visible'
p675
I01
sS'inport'
p676
I00
sS'decimals'
p677
I2
sS'id'
p678
I4635466648
ssasg311
S'Final Image'
p679
ssg313
S'0.0460382189069'
p680
sg43
g509
sg316
(lp681
F-88.69568969892308
aF320.50880049566445
asg318
(lp682
(dp683
g321
g513
sg323
I0
sg324
(lp684
(dp685
g327
(dp686
g329
g513
sg331
I4635467560
sg332
I0
sg333
I4632606728
ssg334
(dp687
g329
S'out1'
p688
sg331
I4468919648
sg332
I0
sg333
I4631754912
ssasg336
Nsg337
I65540
sg338
I100
sg339
I4635467560
sa(dp689
g321
g322
sg323
I0
sg324
(lp690
sg336
Nsg337
I65541
sg338
Nsg339
I4635467856
sasg340
S'0.0137714451175'
p691
sg342
g521
sg339
I4632606728
sg344
S'0.051952123642'
p692
sa(dp693
g36
(dp694
g38
(lp695
(dp696
g41
S"<class 'gpi.widgets.ExclusivePushButtons'>"
p697
sg43
S'R I M P'
p698
sg45
(dp699
S'outport'
p700
I00
sS'quietval'
p701
Nsg49
I2
sS'collapsed'
p702
I00
sS'inport'
p703
I00
sS'visible'
p704
I01
sS'id'
p705
I4631718352
ssa(dp706
g41
S"<class 'gpi.widgets.ExclusivePushButtons'>"
p707
sg43
S'Units'
p708
sg45
(dp709
S'outport'
p710
I00
sS'quietval'
p711
Nsg49
I1
sS'collapsed'
p712
I00
sS'inport'
p713
I00
sS'visible'
p714
I00
sS'id'
p715
I4631719264
ssa(dp716
g41
S"<class 'gpi.widgets.PushButton'>"
p717
sg43
S'UnWrap'
p718
sg45
(dp719
S'outport'
p720
I00
sS'quietval'
p721
Nsg49
I00
sS'collapsed'
p722
I00
sS'inport'
p723
I00
sS'visible'
p724
I00
sS'toggle'
p725
I01
sS'button_title'
p726
g124
sS'id'
p727
I4631720168
ssa(dp728
g41
S"<class 'gpi.widgets.Slider'>"
p729
sg43
S'UnWrap Dimension'
p730
sg45
(dp731
S'outport'
p732
I00
sS'quietval'
p733
Nsg49
I0
sS'min'
p734
I-3
sS'max'
p735
I2
sS'collapsed'
p736
I00
sS'inport'
p737
I00
sS'visible'
p738
I00
sS'id'
p739
I4631720928
ssasg311
S'|x|'
p740
ssg313
S'0.299300336838'
p741
sg43
S'RIMP'
p742
sg316
(lp743
F8.63581820168261
aF-81.60440744185598
asg318
(lp744
(dp745
g321
g513
sg323
I0
sg324
(lp746
(dp747
g327
(dp748
g329
g513
sg331
I4631722144
sg332
I0
sg333
I4631715920
ssg334
(dp749
g329
g322
sg331
I4635616984
sg332
I0
sg333
I4635549176
ssasg336
Nsg337
I65540
sg338
I100
sg339
I4631722144
sa(dp750
g321
g322
sg323
I0
sg324
(lp751
(dp752
g327
(dp753
g329
g513
sg331
I4370658120
sg332
I0
sg333
I4667084584
ssg334
(dp754
g329
g322
sg331
I4631722296
sg332
I0
sg333
I4631715920
ssasg336
Nsg337
I65541
sg338
Nsg339
I4631722296
sasg340
S'0.196822570843'
p755
sg342
S'core.math.RIMP'
p756
sg339
I4631715920
sg344
S'0.448096036911'
p757
sa(dp758
g36
(dp759
g38
(lp760
(dp761
g41
S"<class 'gpi.widgets.ExclusivePushButtons'>"
p762
sg43
S'Mode'
p763
sg45
(dp764
S'outport'
p765
I00
sS'quietval'
p766
Nsg49
I0
sS'collapsed'
p767
I00
sS'inport'
p768
I00
sS'visible'
p769
I01
sS'id'
p770
I4680730328
ssa(dp771
g41
S"<class 'gpi.widgets.ExclusiveRadioButtons'>"
p772
sg43
S'Operation'
p773
sg45
(dp774
S'outport'
p775
I00
sS'quietval'
p776
Nsg49
I2
sS'collapsed'
p777
I00
sS'inport'
p778
I00
sS'visible'
p779
I01
sS'id'
p780
I4680731088
ssa(dp781
g41
S"<class 'gpi.widgets.DoubleSpinBox'>"
p782
sg43
S'Scalar'
p783
sg45
(dp784
S'outport'
p785
I00
sS'quietval'
p786
Nsg49
F1.0
sS'min'
p787
F-1.7976931348623157e+308
sS'max'
p788
F1.7976931348623157e+308
sS'collapsed'
p789
I00
sS'wrapping'
p790
I00
sS'immediate'
p791
I00
sS'label'
p792
g124
sS'singlestep'
p793
F1.0
sS'visible'
p794
I00
sS'inport'
p795
I00
sS'decimals'
p796
I5
sS'id'
p797
I4680735336
ssa(dp798
g41
S"<class 'gpi.widgets.PushButton'>"
p799
sg43
S'compute'
p800
sg45
(dp801
S'outport'
p802
I00
sS'quietval'
p803
Nsg49
I01
sS'collapsed'
p804
I00
sS'inport'
p805
I00
sS'visible'
p806
I01
sS'toggle'
p807
I01
sS'button_title'
p808
g124
sS'id'
p809
I4680736248
ssasg311
S'Apply Blur'
p810
ssg313
S'0.653565597534'
p811
sg43
S'Math'
p812
sg316
(lp813
F-61.04467388754452
aF-196.82823482063577
asg318
(lp814
(dp815
g321
S'inLeft'
p816
sg323
I0
sg324
(lp817
(dp818
g327
(dp819
g329
g816
sg331
I4680737152
sg332
I0
sg333
I4468923744
ssg334
(dp820
g329
g322
sg331
I4632131136
sg332
I0
sg333
I4632079712
ssasg336
Nsg337
I65540
sg338
I200
sg339
I4680737152
sa(dp821
g321
g330
sg323
I1
sg324
(lp822
(dp823
g327
(dp824
g329
g330
sg331
I4680737304
sg332
I1
sg333
I4468923744
ssg334
(dp825
g329
g322
sg331
I4631612008
sg332
I0
sg333
I4629859680
ssasg336
Nsg337
I65540
sg338
I200
sg339
I4680737304
sa(dp826
g321
g322
sg323
I0
sg324
(lp827
(dp828
g327
(dp829
g329
g513
sg331
I4635616832
sg332
I0
sg333
I4635549176
ssg334
(dp830
g329
g322
sg331
I4680737456
sg332
I0
sg333
I4468923744
ssasg336
Nsg337
I65541
sg338
Nsg339
I4680737456
sasg340
S'0.253810876358'
p831
sg342
S'core.math.Math'
p832
sg339
I4468923744
sg344
S'0.796467065811'
p833
sa(dp834
g36
(dp835
g38
(lp836
(dp837
g41
S"<class 'gpi.widgets.TextBox'>"
p838
sg43
S'I/O Info:'
p839
sg45
(dp840
S'outport'
p841
I00
sS'quietval'
p842
Nsg49
S'input: (12, 436, 436)\noutput: (436, 436)'
p843
sS'collapsed'
p844
I00
sS'inport'
p845
I00
sS'visible'
p846
I01
sS'wordwrap'
p847
I00
sS'id'
p848
I4631898272
ssa(dp849
g41
S"<class '/opt/gpi/lib/core/shapers/GPI/Reduce_GPI.ReduceSliders'>"
p850
sg43
S'Dimension[-1]'
p851
sg45
(dp852
S'outport'
p853
I00
sS'quietval'
p854
Nsg49
(dp855
g84
I436
sg415
I436
sS'selection'
p856
I3
sS'center'
p857
I219
sg414
I1
ssS'min'
p858
I1
sS'max'
p859
I436
sS'collapsed'
p860
I00
sS'inport'
p861
I00
sS'visible'
p862
I01
sS'id'
p863
I4631898728
ssa(dp864
g41
S"<class '/opt/gpi/lib/core/shapers/GPI/Reduce_GPI.ReduceSliders'>"
p865
sg43
S'Dimension[-2]'
p866
sg45
(dp867
S'outport'
p868
I00
sS'quietval'
p869
Nsg49
(dp870
g84
I436
sg415
I436
sg856
I3
sg857
I219
sg414
I1
ssS'min'
p871
I1
sS'max'
p872
I436
sS'collapsed'
p873
I00
sS'inport'
p874
I00
sS'visible'
p875
I01
sS'id'
p876
I4631903736
ssa(dp877
g41
S"<class '/opt/gpi/lib/core/shapers/GPI/Reduce_GPI.ReduceSliders'>"
p878
sg43
S'Dimension[-3]'
p879
sg45
(dp880
S'outport'
p881
I00
sS'quietval'
p882
Nsg49
(dp883
g84
I1
sg415
I1
sg856
I2
sg857
I1
sg414
I1
ssS'min'
p884
I1
sS'max'
p885
I12
sS'collapsed'
p886
I00
sS'inport'
p887
I00
sS'visible'
p888
I01
sS'id'
p889
I4631912984
ssa(dp890
g41
S"<class '/opt/gpi/lib/core/shapers/GPI/Reduce_GPI.ReduceSliders'>"
p891
sg43
S'Dimension[-4]'
p892
sg45
(dp893
S'outport'
p894
I00
sS'quietval'
p895
Nsg49
(dp896
g84
I100
sg415
I100
sg856
I3
sg857
I51
sg414
I1
ssS'min'
p897
I1
sS'max'
p898
I100
sS'collapsed'
p899
I00
sS'inport'
p900
I00
sS'visible'
p901
I00
sS'id'
p902
I4631917992
ssa(dp903
g41
S"<class '/opt/gpi/lib/core/shapers/GPI/Reduce_GPI.ReduceSliders'>"
p904
sg43
S'Dimension[-5]'
p905
sg45
(dp906
S'outport'
p907
I00
sS'quietval'
p908
Nsg49
(dp909
g84
I100
sg415
I100
sg856
I3
sg857
I51
sg414
I1
ssS'min'
p910
I1
sS'max'
p911
I100
sS'collapsed'
p912
I00
sS'inport'
p913
I00
sS'visible'
p914
I00
sS'id'
p915
I4631923000
ssa(dp916
g41
S"<class '/opt/gpi/lib/core/shapers/GPI/Reduce_GPI.ReduceSliders'>"
p917
sg43
S'Dimension[-6]'
p918
sg45
(dp919
S'outport'
p920
I00
sS'quietval'
p921
Nsg49
(dp922
g84
I100
sg415
I100
sg856
I3
sg857
I51
sg414
I1
ssS'min'
p923
I1
sS'max'
p924
I100
sS'collapsed'
p925
I00
sS'inport'
p926
I00
sS'visible'
p927
I00
sS'id'
p928
I4631928008
ssa(dp929
g41
S"<class '/opt/gpi/lib/core/shapers/GPI/Reduce_GPI.ReduceSliders'>"
p930
sg43
S'Dimension[-7]'
p931
sg45
(dp932
S'outport'
p933
I00
sS'quietval'
p934
Nsg49
(dp935
g84
I100
sg415
I100
sg856
I3
sg857
I51
sg414
I1
ssS'min'
p936
I1
sS'max'
p937
I100
sS'collapsed'
p938
I00
sS'inport'
p939
I00
sS'visible'
p940
I00
sS'id'
p941
I4631933160
ssa(dp942
g41
S"<class '/opt/gpi/lib/core/shapers/GPI/Reduce_GPI.ReduceSliders'>"
p943
sg43
S'Dimension[-8]'
p944
sg45
(dp945
S'outport'
p946
I00
sS'quietval'
p947
Nsg49
(dp948
g84
I100
sg415
I100
sg856
I3
sg857
I51
sg414
I1
ssS'min'
p949
I1
sS'max'
p950
I100
sS'collapsed'
p951
I00
sS'inport'
p952
I00
sS'visible'
p953
I00
sS'id'
p954
I4631938168
ssa(dp955
g41
S"<class '/opt/gpi/lib/core/shapers/GPI/Reduce_GPI.ReduceSliders'>"
p956
sg43
S'Dimension[-9]'
p957
sg45
(dp958
S'outport'
p959
I00
sS'quietval'
p960
Nsg49
(dp961
g84
I100
sg415
I100
sg856
I3
sg857
I51
sg414
I1
ssS'min'
p962
I1
sS'max'
p963
I100
sS'collapsed'
p964
I00
sS'inport'
p965
I00
sS'visible'
p966
I00
sS'id'
p967
I4631943176
ssa(dp968
g41
S"<class '/opt/gpi/lib/core/shapers/GPI/Reduce_GPI.ReduceSliders'>"
p969
sg43
S'Dimension[-10]'
p970
sg45
(dp971
S'outport'
p972
I00
sS'quietval'
p973
Nsg49
(dp974
g84
I100
sg415
I100
sg856
I3
sg857
I51
sg414
I1
ssS'min'
p975
I1
sS'max'
p976
I100
sS'collapsed'
p977
I00
sS'inport'
p978
I00
sS'visible'
p979
I00
sS'id'
p980
I4631948184
ssa(dp981
g41
S"<class 'gpi.widgets.PushButton'>"
p982
sg43
S'Mask'
p983
sg45
(dp984
S'outport'
p985
I00
sS'quietval'
p986
Nsg49
I00
sS'collapsed'
p987
I00
sS'inport'
p988
I00
sS'visible'
p989
I01
sS'toggle'
p990
I01
sS'button_title'
p991
g124
sS'id'
p992
I4631953192
ssa(dp993
g41
S"<class 'gpi.widgets.PushButton'>"
p994
sg43
g66
sg45
(dp995
S'outport'
p996
I00
sS'quietval'
p997
Nsg49
I01
sS'collapsed'
p998
I00
sS'inport'
p999
I00
sS'visible'
p1000
I01
sS'toggle'
p1001
I01
sS'button_title'
p1002
g124
sS'id'
p1003
I4631954096
ssasg311
S''
p1004
ssg313
S'0.165226221085'
p1005
sg43
S'Reduce'
p1006
sg316
(lp1007
F71.02844192168769
aF177.52695820833387
asg318
(lp1008
(dp1009
g321
g513
sg323
I0
sg324
(lp1010
(dp1011
g327
(dp1012
g329
g513
sg331
I4631954856
sg332
I0
sg333
I4631862928
ssg334
(dp1013
g329
g322
sg331
I4632446680
sg332
I0
sg333
I4632346856
ssasg336
Nsg337
I65540
sg338
I100
sg339
I4631954856
sa(dp1014
g321
g322
sg323
I0
sg324
(lp1015
(dp1016
g327
(dp1017
g329
g513
sg331
I4632497960
sg332
I0
sg333
I4632438792
ssg334
(dp1018
g329
g322
sg331
I4631955008
sg332
I0
sg333
I4631862928
ssasg336
Nsg337
I65541
sg338
Nsg339
I4631955008
sa(dp1019
g321
S'mask'
p1020
sg323
I1
sg324
(lp1021
sg336
Nsg337
I65541
sg338
Nsg339
I4631955160
sasg340
S'0.0465305224761'
p1022
sg342
S'core.shapers.Reduce'
p1023
sg339
I4631862928
sg344
S'0.169319152832'
p1024
sa(dp1025
g36
(dp1026
g38
(lp1027
(dp1028
g41
S"<class 'gpi.widgets.TextBox'>"
p1029
sg43
S'Status'
p1030
sg45
(dp1031
S'outport'
p1032
I00
sS'quietval'
p1033
Nsg49
S'Ready'
p1034
sS'collapsed'
p1035
I00
sS'inport'
p1036
I00
sS'visible'
p1037
I01
sS'wordwrap'
p1038
I00
sS'id'
p1039
I4632433936
ssa(dp1040
g41
S"<class 'gpi.widgets.TextBox'>"
p1041
sg43
S'Info'
p1042
sg45
(dp1043
S'outport'
p1044
I00
sS'quietval'
p1045
Nsg49
S'input: (12, 436, 436)\noutput: (436, 436)'
p1046
sS'collapsed'
p1047
I00
sS'inport'
p1048
I00
sS'visible'
p1049
I01
sS'wordwrap'
p1050
I00
sS'id'
p1051
I4632434392
ssa(dp1052
g41
S"<class 'gpi.widgets.ExclusiveRadioButtons'>"
p1053
sg43
g773
sg45
(dp1054
S'outport'
p1055
I00
sS'quietval'
p1056
Nsg49
I4
sS'collapsed'
p1057
I00
sS'inport'
p1058
I00
sS'visible'
p1059
I01
sS'id'
p1060
I4631689680
ssa(dp1061
g41
S"<class 'gpi.widgets.PushButton'>"
p1062
sg43
g66
sg45
(dp1063
S'outport'
p1064
I00
sS'quietval'
p1065
Nsg49
I01
sS'collapsed'
p1066
I00
sS'inport'
p1067
I00
sS'visible'
p1068
I01
sS'toggle'
p1069
I01
sS'button_title'
p1070
g124
sS'id'
p1071
I4635471048
ssa(dp1072
g41
S"<class 'gpi.widgets.PushButton'>"
p1073
sg43
S'Collapse All'
p1074
sg45
(dp1075
S'outport'
p1076
I00
sS'quietval'
p1077
Nsg49
I00
sS'collapsed'
p1078
I00
sS'inport'
p1079
I00
sS'visible'
p1080
I01
sS'toggle'
p1081
I01
sS'button_title'
p1082
g124
sS'id'
p1083
I4635471352
ssa(dp1084
g41
S"<class 'gpi.widgets.ExclusivePushButtons'>"
p1085
sg43
S'Dimension'
p1086
sg45
(dp1087
S'outport'
p1088
I00
sS'quietval'
p1089
Nsg49
I2
sS'collapsed'
p1090
I00
sS'inport'
p1091
I00
sS'visible'
p1092
I01
sS'id'
p1093
I4370660400
ssa(dp1094
g41
S"<class 'gpi.widgets.PushButton'>"
p1095
sg43
S'Span Entire Dimension'
p1096
sg45
(dp1097
S'outport'
p1098
I00
sS'quietval'
p1099
Nsg49
I01
sS'collapsed'
p1100
I00
sS'inport'
p1101
I00
sS'visible'
p1102
I01
sS'toggle'
p1103
I01
sS'button_title'
p1104
g124
sS'id'
p1105
I4468916304
ssa(dp1106
g41
S"<class 'gpi.widgets.Slider'>"
p1107
sg43
S'Dimension Start_Index'
p1108
sg45
(dp1109
S'outport'
p1110
I00
sS'quietval'
p1111
Nsg49
I0
sS'min'
p1112
I0
sS'max'
p1113
I12
sS'collapsed'
p1114
I00
sS'inport'
p1115
I00
sS'visible'
p1116
I00
sS'id'
p1117
I4468917064
ssa(dp1118
g41
S"<class 'gpi.widgets.Slider'>"
p1119
sg43
S'Dimension Stop_Index'
p1120
sg45
(dp1121
S'outport'
p1122
I00
sS'quietval'
p1123
Nsg49
I0
sS'min'
p1124
I0
sS'max'
p1125
I12
sS'collapsed'
p1126
I00
sS'inport'
p1127
I00
sS'visible'
p1128
I00
sS'id'
p1129
I4468918280
ssasg311
S'SUM'
p1130
ssg313
S'0.185348570347'
p1131
sg43
S'Collapse'
p1132
sg316
(lp1133
F-88.69568969892308
aF290.50880049566445
asg318
(lp1134
(dp1135
g321
g513
sg323
I0
sg324
(lp1136
(dp1137
g327
(dp1138
g329
g513
sg331
I4468919496
sg332
I0
sg333
I4631754912
ssg334
(dp1139
g329
g322
sg331
I4632446680
sg332
I0
sg333
I4632346856
ssasg336
Nsg337
I65540
sg338
I100
sg339
I4468919496
sa(dp1140
g321
g688
sg323
I0
sg324
(lp1141
(dp1142
g327
(dp1143
g329
g513
sg331
I4635467560
sg332
I0
sg333
I4632606728
ssg334
(dp1144
g329
g688
sg331
I4468919648
sg332
I0
sg333
I4631754912
ssasg336
Nsg337
I65541
sg338
Nsg339
I4468919648
sa(dp1145
g321
S'out2'
p1146
sg323
I1
sg324
(lp1147
sg336
Nsg337
I65541
sg338
Nsg339
I4468919800
sasg340
S'0.0111738906319'
p1148
sg342
S'core.math.Collapse'
p1149
sg339
I4631754912
sg344
S'0.180104970932'
p1150
sa(dp1151
g36
(dp1152
g38
(lp1153
(dp1154
g41
S"<class 'gpi.widgets.ExclusivePushButtons'>"
p1155
sg43
g763
sg45
(dp1156
S'outport'
p1157
I00
sS'quietval'
p1158
Nsg49
I0
sS'collapsed'
p1159
I00
sS'inport'
p1160
I00
sS'visible'
p1161
I01
sS'id'
p1162
I4635537792
ssa(dp1163
g41
S"<class 'gpi.widgets.ExclusiveRadioButtons'>"
p1164
sg43
g773
sg45
(dp1165
S'outport'
p1166
I00
sS'quietval'
p1167
Nsg49
I2
sS'collapsed'
p1168
I00
sS'inport'
p1169
I00
sS'visible'
p1170
I01
sS'id'
p1171
I4631753848
ssa(dp1172
g41
S"<class 'gpi.widgets.DoubleSpinBox'>"
p1173
sg43
g783
sg45
(dp1174
S'outport'
p1175
I00
sS'quietval'
p1176
Nsg49
F1.0
sS'min'
p1177
F-1.7976931348623157e+308
sS'max'
p1178
F1.7976931348623157e+308
sS'collapsed'
p1179
I00
sS'wrapping'
p1180
I00
sS'immediate'
p1181
I00
sS'label'
p1182
g124
sS'singlestep'
p1183
F1.0
sS'visible'
p1184
I00
sS'inport'
p1185
I00
sS'decimals'
p1186
I5
sS'id'
p1187
I4635546288
ssa(dp1188
g41
S"<class 'gpi.widgets.PushButton'>"
p1189
sg43
g800
sg45
(dp1190
S'outport'
p1191
I00
sS'quietval'
p1192
Nsg49
I01
sS'collapsed'
p1193
I00
sS'inport'
p1194
I00
sS'visible'
p1195
I01
sS'toggle'
p1196
I01
sS'button_title'
p1197
g124
sS'id'
p1198
I4635635792
ssasg311
S'Removed Modulus'
p1199
ssg313
S'0.676811742783'
p1200
sg43
g812
sg316
(lp1201
F-32.565412021385356
aF95.38944144280521
asg318
(lp1202
(dp1203
g321
g816
sg323
I0
sg324
(lp1204
(dp1205
g327
(dp1206
g329
g816
sg331
I4680806184
sg332
I0
sg333
I4632354144
ssg334
(dp1207
g329
g322
sg331
I4635616984
sg332
I0
sg333
I4635549176
ssasg336
Nsg337
I65540
sg338
I200
sg339
I4680806184
sa(dp1208
g321
g330
sg323
I1
sg324
(lp1209
(dp1210
g327
(dp1211
g329
g330
sg331
I4680804968
sg332
I1
sg333
I4632354144
ssg334
(dp1212
g329
g322
sg331
I4680802992
sg332
I0
sg333
I4468964704
ssasg336
Nsg337
I65540
sg338
I200
sg339
I4680804968
sa(dp1213
g321
g322
sg323
I0
sg324
(lp1214
(dp1215
g327
(dp1216
g329
g513
sg331
I4632596112
sg332
I0
sg333
I4632504328
ssg334
(dp1217
g329
g322
sg331
I4680805120
sg332
I0
sg333
I4632354144
ssa(dp1218
g327
(dp1219
g329
g816
sg331
I4631698176
sg332
I0
sg333
I4631692256
ssg334
(dp1220
g329
g322
sg331
I4680805120
sg332
I0
sg333
I4632354144
ssasg336
Nsg337
I65541
sg338
Nsg339
I4680805120
sasg340
S'0.260792341982'
p1221
sg342
g832
sg339
I4632354144
sg344
S'0.856024980545'
p1222
sa(dp1223
g36
(dp1224
g38
(lp1225
(dp1226
g41
S"<class 'gpi.widgets.TextBox'>"
p1227
sg43
S'I/O Info:'
p1228
sg45
(dp1229
S'outport'
p1230
I00
sS'quietval'
p1231
Nsg49
S'created: 13/02/2014\naccessed: 01/04/2014\nmodified: 13/02/2014\nUID: 501\nGID: 80\nfile size (bytes): 18249296\ndimensions: [12, 436, 436]\ntype: complex64\n'
p1232
sS'collapsed'
p1233
I00
sS'inport'
p1234
I00
sS'visible'
p1235
I01
sS'wordwrap'
p1236
I00
sS'id'
p1237
I4370605936
ssa(dp1238
g41
S"<class 'gpi.widgets.OpenFileBrowser'>"
p1239
sg43
S'File Browser'
p1240
sg45
(dp1241
S'outport'
p1242
I00
sS'quietval'
p1243
Nsg49
S'/opt/gpi/doc/Examples/MultiCoil.npy'
p1244
sS'collapsed'
p1245
I00
sS'inport'
p1246
I00
sS'visible'
p1247
I01
sS'id'
p1248
I4370606392
ssa(dp1249
g41
S"<class 'gpi.widgets.PushButton'>"
p1250
sg43
S'Squeeze'
p1251
sg45
(dp1252
S'outport'
p1253
I00
sS'quietval'
p1254
Nsg49
I00
sS'collapsed'
p1255
I00
sS'inport'
p1256
I00
sS'visible'
p1257
I01
sS'toggle'
p1258
I01
sS'button_title'
p1259
g124
sS'id'
p1260
I4370607000
ssasg311
S'MultiCoil.npy'
p1261
ssg313
S'0.0596091747284'
p1262
sg43
S'ReadNPY'
p1263
sg316
(lp1264
F-103.92868098766365
aF-287.99413989136076
asg318
(lp1265
(dp1266
g321
g322
sg323
I0
sg324
(lp1267
(dp1268
g327
(dp1269
g329
g513
sg331
I4632130984
sg332
I0
sg333
I4632079712
ssg334
(dp1270
g329
g322
sg331
I4370607760
sg332
I0
sg333
I4370599416
ssa(dp1271
g327
(dp1272
g329
g816
sg331
I4632446376
sg332
I0
sg333
I4632346856
ssg334
(dp1273
g329
g322
sg331
I4370607760
sg332
I0
sg333
I4370599416
ssasg336
Nsg337
I65541
sg338
Nsg339
I4370607760
sasg340
S'0.0'
p1274
sg342
S'core.fileIO.ReadNPY'
p1275
sg339
I4370599416
sg344
S'0.0596091747284'
p1276
sa(dp1277
g36
(dp1278
g38
(lp1279
(dp1280
g41
S"<class 'gpi.widgets.ExclusivePushButtons'>"
p1281
sg43
S'operation'
p1282
sg45
(dp1283
S'outport'
p1284
I00
sS'quietval'
p1285
Nsg49
I1
sS'collapsed'
p1286
I00
sS'inport'
p1287
I00
sS'visible'
p1288
I01
sS'id'
p1289
I4632073488
ssa(dp1290
g41
S"<class 'gpi.widgets.ExclusivePushButtons'>"
p1291
sg43
S'MinMax'
p1292
sg45
(dp1293
S'outport'
p1294
I00
sS'quietval'
p1295
Nsg49
I0
sS'collapsed'
p1296
I00
sS'inport'
p1297
I00
sS'visible'
p1298
I01
sS'id'
p1299
I4632074400
ssa(dp1300
g41
S"<class 'gpi.widgets.DoubleSpinBox'>"
p1301
sg43
S'Min'
p1302
sg45
(dp1303
S'outport'
p1304
I00
sS'quietval'
p1305
Nsg49
F1e-05
sS'min'
p1306
F-1.7976931348623157e+308
sS'max'
p1307
F1.7976931348623157e+308
sS'collapsed'
p1308
I00
sS'wrapping'
p1309
I00
sS'immediate'
p1310
I00
sS'label'
p1311
g124
sS'singlestep'
p1312
F1.0
sS'visible'
p1313
I01
sS'inport'
p1314
I00
sS'decimals'
p1315
I5
sS'id'
p1316
I4632075160
ssa(dp1317
g41
S"<class 'gpi.widgets.DoubleSpinBox'>"
p1318
sg43
S'Max'
p1319
sg45
(dp1320
S'outport'
p1321
I00
sS'quietval'
p1322
Nsg49
F1.0
sS'min'
p1323
F-1.7976931348623157e+308
sS'max'
p1324
F1.7976931348623157e+308
sS'collapsed'
p1325
I00
sS'wrapping'
p1326
I00
sS'immediate'
p1327
I00
sS'label'
p1328
g124
sS'singlestep'
p1329
F1.0
sS'visible'
p1330
I00
sS'inport'
p1331
I00
sS'decimals'
p1332
I5
sS'id'
p1333
I4632076072
ssasg311
S'x > 0 (clamp)'
p1334
ssg313
S'0.486937856674'
p1335
sg43
S'ValueBounds'
p1336
sg316
(lp1337
F8.63581820168261
aF8.395592558144017
asg318
(lp1338
(dp1339
g321
g513
sg323
I0
sg324
(lp1340
(dp1341
g327
(dp1342
g329
g513
sg331
I4632077128
sg332
I0
sg333
I4632062720
ssg334
(dp1343
g329
g322
sg331
I4632321680
sg332
I0
sg333
I4632255992
ssasg336
Nsg337
I65540
sg338
I100
sg339
I4632077128
sa(dp1344
g321
g322
sg323
I0
sg324
(lp1345
(dp1346
g327
(dp1347
g329
g816
sg331
I4680802688
sg332
I0
sg333
I4468964704
ssg334
(dp1348
g329
g322
sg331
I4632077280
sg332
I0
sg333
I4632062720
ssasg336
Nsg337
I65541
sg338
Nsg339
I4632077280
sasg340
S'0.24935921492'
p1349
sg342
S'core.math.ValueBounds'
p1350
sg339
I4632062720
sg344
S'0.526302099228'
p1351
sa(dp1352
g36
(dp1353
g38
(lp1354
(dp1355
g41
S"<class 'gpi.widgets.TextBox'>"
p1356
sg43
g1030
sg45
(dp1357
S'outport'
p1358
I00
sS'quietval'
p1359
Nsg49
S'Ready'
p1360
sS'collapsed'
p1361
I00
sS'inport'
p1362
I00
sS'visible'
p1363
I01
sS'wordwrap'
p1364
I00
sS'id'
p1365
I4370640976
ssa(dp1366
g41
S"<class 'gpi.widgets.TextBox'>"
p1367
sg43
g1042
sg45
(dp1368
S'outport'
p1369
I00
sS'quietval'
p1370
Nsg49
S'input: (12, 436, 436)\noutput: (436, 436)'
p1371
sS'collapsed'
p1372
I00
sS'inport'
p1373
I00
sS'visible'
p1374
I01
sS'wordwrap'
p1375
I00
sS'id'
p1376
I4370641432
ssa(dp1377
g41
S"<class 'gpi.widgets.ExclusiveRadioButtons'>"
p1378
sg43
g773
sg45
(dp1379
S'outport'
p1380
I00
sS'quietval'
p1381
Nsg49
I5
sS'collapsed'
p1382
I00
sS'inport'
p1383
I00
sS'visible'
p1384
I01
sS'id'
p1385
I4370641888
ssa(dp1386
g41
S"<class 'gpi.widgets.PushButton'>"
p1387
sg43
g66
sg45
(dp1388
S'outport'
p1389
I00
sS'quietval'
p1390
Nsg49
I01
sS'collapsed'
p1391
I00
sS'inport'
p1392
I00
sS'visible'
p1393
I01
sS'toggle'
p1394
I01
sS'button_title'
p1395
g124
sS'id'
p1396
I4370644016
ssa(dp1397
g41
S"<class 'gpi.widgets.PushButton'>"
p1398
sg43
S'Collapse All'
p1399
sg45
(dp1400
S'outport'
p1401
I00
sS'quietval'
p1402
Nsg49
I00
sS'collapsed'
p1403
I00
sS'inport'
p1404
I00
sS'visible'
p1405
I01
sS'toggle'
p1406
I01
sS'button_title'
p1407
g124
sS'id'
p1408
I4370644776
ssa(dp1409
g41
S"<class 'gpi.widgets.ExclusivePushButtons'>"
p1410
sg43
g1086
sg45
(dp1411
S'outport'
p1412
I00
sS'quietval'
p1413
Nsg49
I2
sS'collapsed'
p1414
I00
sS'inport'
p1415
I00
sS'visible'
p1416
I01
sS'id'
p1417
I4370649776
ssa(dp1418
g41
S"<class 'gpi.widgets.PushButton'>"
p1419
sg43
S'Span Entire Dimension'
p1420
sg45
(dp1421
S'outport'
p1422
I00
sS'quietval'
p1423
Nsg49
I01
sS'collapsed'
p1424
I00
sS'inport'
p1425
I00
sS'visible'
p1426
I01
sS'toggle'
p1427
I01
sS'button_title'
p1428
g124
sS'id'
p1429
I4370650688
ssa(dp1430
g41
S"<class 'gpi.widgets.Slider'>"
p1431
sg43
S'Dimension Start_Index'
p1432
sg45
(dp1433
S'outport'
p1434
I00
sS'quietval'
p1435
Nsg49
I0
sS'min'
p1436
I0
sS'max'
p1437
I12
sS'collapsed'
p1438
I00
sS'inport'
p1439
I00
sS'visible'
p1440
I00
sS'id'
p1441
I4370651448
ssa(dp1442
g41
S"<class 'gpi.widgets.Slider'>"
p1443
sg43
S'Dimension Stop_Index'
p1444
sg45
(dp1445
S'outport'
p1446
I00
sS'quietval'
p1447
Nsg49
I0
sS'min'
p1448
I0
sS'max'
p1449
I12
sS'collapsed'
p1450
I00
sS'inport'
p1451
I00
sS'visible'
p1452
I00
sS'id'
p1453
I4370652664
ssasg311
S'RMS'
p1454
ssg313
S'0.177043755849'
p1455
sg43
g1132
sg316
(lp1456
F8.63581820168261
aF-51.60440744185598
asg318
(lp1457
(dp1458
g321
g513
sg323
I0
sg324
(lp1459
(dp1460
g327
(dp1461
g329
g513
sg331
I4370658120
sg332
I0
sg333
I4667084584
ssg334
(dp1462
g329
g322
sg331
I4631722296
sg332
I0
sg333
I4631715920
ssasg336
Nsg337
I65540
sg338
I100
sg339
I4370658120
sa(dp1463
g321
g688
sg323
I0
sg324
(lp1464
(dp1465
g327
(dp1466
g329
g513
sg331
I4632321528
sg332
I0
sg333
I4632255992
ssg334
(dp1467
g329
g688
sg331
I4370658272
sg332
I0
sg333
I4667084584
ssasg336
Nsg337
I65541
sg338
Nsg339
I4370658272
sa(dp1468
g321
g1146
sg323
I1
sg324
(lp1469
sg336
Nsg337
I65541
sg338
Nsg339
I4370658424
sasg340
S'0.0267564483121'
p1470
sg342
g1149
sg339
I4667084584
sg344
S'0.16502904892'
p1471
sa(dp1472
g36
(dp1473
g38
(lp1474
(dp1475
g41
S"<class '/opt/gpi/lib/core/math/GPI/FFT_NUMPY_GPI.FFTW_GROUP'>"
p1476
sg43
S'Dimension[-1]'
p1477
sg45
(dp1478
S'outport'
p1479
I00
sS'quietval'
p1480
Nsg49
(dp1481
S'length'
p1482
I436
sS'in_len'
p1483
I436
sg800
I01
ssS'collapsed'
p1484
I00
sS'inport'
p1485
I00
sS'visible'
p1486
I01
sS'id'
p1487
I4635584520
ssa(dp1488
g41
S"<class '/opt/gpi/lib/core/math/GPI/FFT_NUMPY_GPI.FFTW_GROUP'>"
p1489
sg43
S'Dimension[-2]'
p1490
sg45
(dp1491
S'outport'
p1492
I00
sS'quietval'
p1493
Nsg49
(dp1494
g1482
I436
sg1483
I436
sg800
I01
ssS'collapsed'
p1495
I00
sS'inport'
p1496
I00
sS'visible'
p1497
I01
sS'id'
p1498
I4635594832
ssa(dp1499
g41
S"<class '/opt/gpi/lib/core/math/GPI/FFT_NUMPY_GPI.FFTW_GROUP'>"
p1500
sg43
S'Dimension[-3]'
p1501
sg45
(dp1502
S'outport'
p1503
I00
sS'quietval'
p1504
Nsg49
(dp1505
g1482
I12
sg1483
I12
sg800
I00
ssS'collapsed'
p1506
I00
sS'inport'
p1507
I00
sS'visible'
p1508
I01
sS'id'
p1509
I4635596808
ssa(dp1510
g41
S"<class '/opt/gpi/lib/core/math/GPI/FFT_NUMPY_GPI.FFTW_GROUP'>"
p1511
sg43
S'Dimension[-4]'
p1512
sg45
(dp1513
S'outport'
p1514
I00
sS'quietval'
p1515
Nsg49
(dp1516
g1482
I1
sg1483
I1
sg800
I00
ssS'collapsed'
p1517
I00
sS'inport'
p1518
I00
sS'visible'
p1519
I00
sS'id'
p1520
I4635598928
ssa(dp1521
g41
S"<class '/opt/gpi/lib/core/math/GPI/FFT_NUMPY_GPI.FFTW_GROUP'>"
p1522
sg43
S'Dimension[-5]'
p1523
sg45
(dp1524
S'outport'
p1525
I00
sS'quietval'
p1526
Nsg49
(dp1527
g1482
I1
sg1483
I1
sg800
I00
ssS'collapsed'
p1528
I00
sS'inport'
p1529
I00
sS'visible'
p1530
I00
sS'id'
p1531
I4635600904
ssa(dp1532
g41
S"<class '/opt/gpi/lib/core/math/GPI/FFT_NUMPY_GPI.FFTW_GROUP'>"
p1533
sg43
S'Dimension[-6]'
p1534
sg45
(dp1535
S'outport'
p1536
I00
sS'quietval'
p1537
Nsg49
(dp1538
g1482
I1
sg1483
I1
sg800
I00
ssS'collapsed'
p1539
I00
sS'inport'
p1540
I00
sS'visible'
p1541
I00
sS'id'
p1542
I4635607120
ssa(dp1543
g41
S"<class '/opt/gpi/lib/core/math/GPI/FFT_NUMPY_GPI.FFTW_GROUP'>"
p1544
sg43
S'Dimension[-7]'
p1545
sg45
(dp1546
S'outport'
p1547
I00
sS'quietval'
p1548
Nsg49
(dp1549
g1482
I1
sg1483
I1
sg800
I00
ssS'collapsed'
p1550
I00
sS'inport'
p1551
I00
sS'visible'
p1552
I00
sS'id'
p1553
I4635609096
ssa(dp1554
g41
S"<class '/opt/gpi/lib/core/math/GPI/FFT_NUMPY_GPI.FFTW_GROUP'>"
p1555
sg43
S'Dimension[-8]'
p1556
sg45
(dp1557
S'outport'
p1558
I00
sS'quietval'
p1559
Nsg49
(dp1560
g1482
I1
sg1483
I1
sg800
I00
ssS'collapsed'
p1561
I00
sS'inport'
p1562
I00
sS'visible'
p1563
I00
sS'id'
p1564
I4635611216
ssa(dp1565
g41
S"<class '/opt/gpi/lib/core/math/GPI/FFT_NUMPY_GPI.FFTW_GROUP'>"
p1566
sg43
S'Dimension[-9]'
p1567
sg45
(dp1568
S'outport'
p1569
I00
sS'quietval'
p1570
Nsg49
(dp1571
g1482
I1
sg1483
I1
sg800
I00
ssS'collapsed'
p1572
I00
sS'inport'
p1573
I00
sS'visible'
p1574
I00
sS'id'
p1575
I4635613192
ssa(dp1576
g41
S"<class 'gpi.widgets.PushButton'>"
p1577
sg43
g800
sg45
(dp1578
S'outport'
p1579
I00
sS'quietval'
p1580
Nsg49
I01
sS'collapsed'
p1581
I00
sS'inport'
p1582
I00
sS'visible'
p1583
I01
sS'toggle'
p1584
I01
sS'button_title'
p1585
g124
sS'id'
p1586
I4635615312
ssa(dp1587
g41
S"<class 'gpi.widgets.PushButton'>"
p1588
sg43
S'direction'
p1589
sg45
(dp1590
S'outport'
p1591
I00
sS'quietval'
p1592
Nsg49
I01
sS'collapsed'
p1593
I00
sS'inport'
p1594
I00
sS'visible'
p1595
I01
sS'toggle'
p1596
I01
sS'button_title'
p1597
VFORWARD
p1598
sS'id'
p1599
I4635616072
ssasg311
S'^-1'
p1600
ssg313
S'1.02197871208'
p1601
sg43
S'FFT_NUMPY'
p1602
sg316
(lp1603
F-61.044673887544576
aF-168.14774273140864
asg318
(lp1604
(dp1605
g321
g513
sg323
I0
sg324
(lp1606
(dp1607
g327
(dp1608
g329
g513
sg331
I4635616832
sg332
I0
sg333
I4635549176
ssg334
(dp1609
g329
g322
sg331
I4680737456
sg332
I0
sg333
I4468923744
ssasg336
Nsg337
I65540
sg338
I100
sg339
I4635616832
sa(dp1610
g321
g322
sg323
I0
sg324
(lp1611
(dp1612
g327
(dp1613
g329
g513
sg331
I4631722144
sg332
I0
sg333
I4631715920
ssg334
(dp1614
g329
g322
sg331
I4635616984
sg332
I0
sg333
I4635549176
ssa(dp1615
g327
(dp1616
g329
g513
sg331
I4632061352
sg332
I0
sg333
I4631957136
ssg334
(dp1617
g329
g322
sg331
I4635616984
sg332
I0
sg333
I4635549176
ssa(dp1618
g327
(dp1619
g329
g816
sg331
I4680806184
sg332
I0
sg333
I4632354144
ssg334
(dp1620
g329
g322
sg331
I4635616984
sg332
I0
sg333
I4635549176
ssasg336
Nsg337
I65541
sg338
Nsg339
I4635616984
sasg340
S'0.749588997'
p1621
sg342
S'core.math.FFT_NUMPY'
p1622
sg339
I4635549176
sg344
S'1.66272783279'
p1623
sa(dp1624
g36
(dp1625
g38
(lp1626
(dp1627
g41
S"<class 'gpi.widgets.ExclusivePushButtons'>"
p1628
sg43
g763
sg45
(dp1629
S'outport'
p1630
I00
sS'quietval'
p1631
Nsg49
I0
sS'collapsed'
p1632
I00
sS'inport'
p1633
I00
sS'visible'
p1634
I01
sS'id'
p1635
I4631688464
ssa(dp1636
g41
S"<class 'gpi.widgets.ExclusiveRadioButtons'>"
p1637
sg43
g773
sg45
(dp1638
S'outport'
p1639
I00
sS'quietval'
p1640
Nsg49
I2
sS'collapsed'
p1641
I00
sS'inport'
p1642
I00
sS'visible'
p1643
I01
sS'id'
p1644
I4635547352
ssa(dp1645
g41
S"<class 'gpi.widgets.DoubleSpinBox'>"
p1646
sg43
g783
sg45
(dp1647
S'outport'
p1648
I00
sS'quietval'
p1649
Nsg49
F1.0
sS'min'
p1650
F-1.7976931348623157e+308
sS'max'
p1651
F1.7976931348623157e+308
sS'collapsed'
p1652
I00
sS'wrapping'
p1653
I00
sS'immediate'
p1654
I00
sS'label'
p1655
g124
sS'singlestep'
p1656
F1.0
sS'visible'
p1657
I00
sS'inport'
p1658
I00
sS'decimals'
p1659
I5
sS'id'
p1660
I4635557520
ssa(dp1661
g41
S"<class 'gpi.widgets.PushButton'>"
p1662
sg43
g800
sg45
(dp1663
S'outport'
p1664
I00
sS'quietval'
p1665
Nsg49
I01
sS'collapsed'
p1666
I00
sS'inport'
p1667
I00
sS'visible'
p1668
I01
sS'toggle'
p1669
I01
sS'button_title'
p1670
g124
sS'id'
p1671
I4632445616
ssasg311
S'Removed Phase'
p1672
ssg313
S'0.464777517319'
p1673
sg43
g812
sg316
(lp1674
F-89.78982205837463
aF208.87302783538303
asg318
(lp1675
(dp1676
g321
g816
sg323
I0
sg324
(lp1677
(dp1678
g327
(dp1679
g329
g816
sg331
I4632446376
sg332
I0
sg333
I4632346856
ssg334
(dp1680
g329
g322
sg331
I4370607760
sg332
I0
sg333
I4370599416
ssasg336
Nsg337
I65540
sg338
I200
sg339
I4632446376
sa(dp1681
g321
g330
sg323
I1
sg324
(lp1682
(dp1683
g327
(dp1684
g329
g330
sg331
I4632446528
sg332
I1
sg333
I4632346856
ssg334
(dp1685
g329
g322
sg331
I4631698480
sg332
I0
sg333
I4631692256
ssasg336
Nsg337
I65540
sg338
I200
sg339
I4632446528
sa(dp1686
g321
g322
sg323
I0
sg324
(lp1687
(dp1688
g327
(dp1689
g329
g513
sg331
I4631954856
sg332
I0
sg333
I4631862928
ssg334
(dp1690
g329
g322
sg331
I4632446680
sg332
I0
sg333
I4632346856
ssa(dp1691
g327
(dp1692
g329
g513
sg331
I4468919496
sg332
I0
sg333
I4631754912
ssg334
(dp1693
g329
g322
sg331
I4632446680
sg332
I0
sg333
I4632346856
ssasg336
Nsg337
I65541
sg338
Nsg339
I4632446680
sasg340
S'0.286413314248'
p1694
sg342
g832
sg339
I4632346856
sg344
S'0.813647985458'
p1695
sa(dp1696
g36
(dp1697
g38
(lp1698
(dp1699
g41
S"<class '/opt/gpi/lib/core/math/GPI/FFT_NUMPY_GPI.FFTW_GROUP'>"
p1700
sg43
S'Dimension[-1]'
p1701
sg45
(dp1702
S'outport'
p1703
I00
sS'quietval'
p1704
Nsg49
(dp1705
g1482
I436
sg1483
I436
sg800
I01
ssS'collapsed'
p1706
I00
sS'inport'
p1707
I00
sS'visible'
p1708
I01
sS'id'
p1709
I4632102768
ssa(dp1710
g41
S"<class '/opt/gpi/lib/core/math/GPI/FFT_NUMPY_GPI.FFTW_GROUP'>"
p1711
sg43
S'Dimension[-2]'
p1712
sg45
(dp1713
S'outport'
p1714
I00
sS'quietval'
p1715
Nsg49
(dp1716
g1482
I436
sg1483
I436
sg800
I01
ssS'collapsed'
p1717
I00
sS'inport'
p1718
I00
sS'visible'
p1719
I01
sS'id'
p1720
I4632104744
ssa(dp1721
g41
S"<class '/opt/gpi/lib/core/math/GPI/FFT_NUMPY_GPI.FFTW_GROUP'>"
p1722
sg43
S'Dimension[-3]'
p1723
sg45
(dp1724
S'outport'
p1725
I00
sS'quietval'
p1726
Nsg49
(dp1727
g1482
I12
sg1483
I12
sg800
I00
ssS'collapsed'
p1728
I00
sS'inport'
p1729
I00
sS'visible'
p1730
I01
sS'id'
p1731
I4632110960
ssa(dp1732
g41
S"<class '/opt/gpi/lib/core/math/GPI/FFT_NUMPY_GPI.FFTW_GROUP'>"
p1733
sg43
S'Dimension[-4]'
p1734
sg45
(dp1735
S'outport'
p1736
I00
sS'quietval'
p1737
Nsg49
(dp1738
g1482
I1
sg1483
I1
sg800
I00
ssS'collapsed'
p1739
I00
sS'inport'
p1740
I00
sS'visible'
p1741
I00
sS'id'
p1742
I4632112936
ssa(dp1743
g41
S"<class '/opt/gpi/lib/core/math/GPI/FFT_NUMPY_GPI.FFTW_GROUP'>"
p1744
sg43
S'Dimension[-5]'
p1745
sg45
(dp1746
S'outport'
p1747
I00
sS'quietval'
p1748
Nsg49
(dp1749
g1482
I1
sg1483
I1
sg800
I00
ssS'collapsed'
p1750
I00
sS'inport'
p1751
I00
sS'visible'
p1752
I00
sS'id'
p1753
I4632115056
ssa(dp1754
g41
S"<class '/opt/gpi/lib/core/math/GPI/FFT_NUMPY_GPI.FFTW_GROUP'>"
p1755
sg43
S'Dimension[-6]'
p1756
sg45
(dp1757
S'outport'
p1758
I00
sS'quietval'
p1759
Nsg49
(dp1760
g1482
I1
sg1483
I1
sg800
I00
ssS'collapsed'
p1761
I00
sS'inport'
p1762
I00
sS'visible'
p1763
I00
sS'id'
p1764
I4632117032
ssa(dp1765
g41
S"<class '/opt/gpi/lib/core/math/GPI/FFT_NUMPY_GPI.FFTW_GROUP'>"
p1766
sg43
S'Dimension[-7]'
p1767
sg45
(dp1768
S'outport'
p1769
I00
sS'quietval'
p1770
Nsg49
(dp1771
g1482
I1
sg1483
I1
sg800
I00
ssS'collapsed'
p1772
I00
sS'inport'
p1773
I00
sS'visible'
p1774
I00
sS'id'
p1775
I4632123248
ssa(dp1776
g41
S"<class '/opt/gpi/lib/core/math/GPI/FFT_NUMPY_GPI.FFTW_GROUP'>"
p1777
sg43
S'Dimension[-8]'
p1778
sg45
(dp1779
S'outport'
p1780
I00
sS'quietval'
p1781
Nsg49
(dp1782
g1482
I1
sg1483
I1
sg800
I00
ssS'collapsed'
p1783
I00
sS'inport'
p1784
I00
sS'visible'
p1785
I00
sS'id'
p1786
I4632125224
ssa(dp1787
g41
S"<class '/opt/gpi/lib/core/math/GPI/FFT_NUMPY_GPI.FFTW_GROUP'>"
p1788
sg43
S'Dimension[-9]'
p1789
sg45
(dp1790
S'outport'
p1791
I00
sS'quietval'
p1792
Nsg49
(dp1793
g1482
I1
sg1483
I1
sg800
I00
ssS'collapsed'
p1794
I00
sS'inport'
p1795
I00
sS'visible'
p1796
I00
sS'id'
p1797
I4632127344
ssa(dp1798
g41
S"<class 'gpi.widgets.PushButton'>"
p1799
sg43
g800
sg45
(dp1800
S'outport'
p1801
I00
sS'quietval'
p1802
Nsg49
I01
sS'collapsed'
p1803
I00
sS'inport'
p1804
I00
sS'visible'
p1805
I01
sS'toggle'
p1806
I01
sS'button_title'
p1807
g124
sS'id'
p1808
I4632129320
ssa(dp1809
g41
S"<class 'gpi.widgets.PushButton'>"
p1810
sg43
g1589
sg45
(dp1811
S'outport'
p1812
I00
sS'quietval'
p1813
Nsg49
I00
sS'collapsed'
p1814
I00
sS'inport'
p1815
I00
sS'visible'
p1816
I01
sS'toggle'
p1817
I01
sS'button_title'
p1818
VFORWARD
p1819
sS'id'
p1820
I4632130224
ssasg311
g1004
ssg313
S'0.936268647512'
p1821
sg43
g1602
sg316
(lp1822
F-103.92868098766365
aF-257.99413989136076
asg318
(lp1823
(dp1824
g321
g513
sg323
I0
sg324
(lp1825
(dp1826
g327
(dp1827
g329
g513
sg331
I4632130984
sg332
I0
sg333
I4632079712
ssg334
(dp1828
g329
g322
sg331
I4370607760
sg332
I0
sg333
I4370599416
ssasg336
Nsg337
I65540
sg338
I100
sg339
I4632130984
sa(dp1829
g321
g322
sg323
I0
sg324
(lp1830
(dp1831
g327
(dp1832
g329
g816
sg331
I4680737152
sg332
I0
sg333
I4468923744
ssg334
(dp1833
g329
g322
sg331
I4632131136
sg332
I0
sg333
I4632079712
ssasg336
Nsg337
I65541
sg338
Nsg339
I4632131136
sasg340
S'0.66210082003'
p1834
sg342
g1622
sg339
I4632079712
sg344
S'1.4152200222'
p1835
sa(dp1836
g36
(dp1837
g38
(lp1838
(dp1839
g41
S"<class 'gpi.widgets.TextBox'>"
p1840
sg43
S'I/O Info:'
p1841
sg45
(dp1842
S'outport'
p1843
I00
sS'quietval'
p1844
Nsg49
S'input: (12, 436, 436)\noutput: (436, 436)'
p1845
sS'collapsed'
p1846
I00
sS'inport'
p1847
I00
sS'visible'
p1848
I01
sS'wordwrap'
p1849
I00
sS'id'
p1850
I4631996576
ssa(dp1851
g41
S"<class '/opt/gpi/lib/core/shapers/GPI/Reduce_GPI.ReduceSliders'>"
p1852
sg43
S'Dimension[-1]'
p1853
sg45
(dp1854
S'outport'
p1855
I00
sS'quietval'
p1856
Nsg49
(dp1857
g84
I436
sg415
I436
sg856
I3
sg857
I219
sg414
I1
ssS'min'
p1858
I1
sS'max'
p1859
I436
sS'collapsed'
p1860
I00
sS'inport'
p1861
I00
sS'visible'
p1862
I01
sS'id'
p1863
I4631997032
ssa(dp1864
g41
S"<class '/opt/gpi/lib/core/shapers/GPI/Reduce_GPI.ReduceSliders'>"
p1865
sg43
S'Dimension[-2]'
p1866
sg45
(dp1867
S'outport'
p1868
I00
sS'quietval'
p1869
Nsg49
(dp1870
g84
I436
sg415
I436
sg856
I3
sg857
I219
sg414
I1
ssS'min'
p1871
I1
sS'max'
p1872
I436
sS'collapsed'
p1873
I00
sS'inport'
p1874
I00
sS'visible'
p1875
I01
sS'id'
p1876
I4632010232
ssa(dp1877
g41
S"<class '/opt/gpi/lib/core/shapers/GPI/Reduce_GPI.ReduceSliders'>"
p1878
sg43
S'Dimension[-3]'
p1879
sg45
(dp1880
S'outport'
p1881
I00
sS'quietval'
p1882
Nsg49
(dp1883
g84
I1
sg415
I1
sg856
I2
sg857
I1
sg414
I1
ssS'min'
p1884
I1
sS'max'
p1885
I12
sS'collapsed'
p1886
I00
sS'inport'
p1887
I00
sS'visible'
p1888
I01
sS'id'
p1889
I4632015384
ssa(dp1890
g41
S"<class '/opt/gpi/lib/core/shapers/GPI/Reduce_GPI.ReduceSliders'>"
p1891
sg43
S'Dimension[-4]'
p1892
sg45
(dp1893
S'outport'
p1894
I00
sS'quietval'
p1895
Nsg49
(dp1896
g84
I100
sg415
I100
sg856
I3
sg857
I51
sg414
I1
ssS'min'
p1897
I1
sS'max'
p1898
I100
sS'collapsed'
p1899
I00
sS'inport'
p1900
I00
sS'visible'
p1901
I00
sS'id'
p1902
I4632024488
ssa(dp1903
g41
S"<class '/opt/gpi/lib/core/shapers/GPI/Reduce_GPI.ReduceSliders'>"
p1904
sg43
S'Dimension[-5]'
p1905
sg45
(dp1906
S'outport'
p1907
I00
sS'quietval'
p1908
Nsg49
(dp1909
g84
I100
sg415
I100
sg856
I3
sg857
I51
sg414
I1
ssS'min'
p1910
I1
sS'max'
p1911
I100
sS'collapsed'
p1912
I00
sS'inport'
p1913
I00
sS'visible'
p1914
I00
sS'id'
p1915
I4632029496
ssa(dp1916
g41
S"<class '/opt/gpi/lib/core/shapers/GPI/Reduce_GPI.ReduceSliders'>"
p1917
sg43
S'Dimension[-6]'
p1918
sg45
(dp1919
S'outport'
p1920
I00
sS'quietval'
p1921
Nsg49
(dp1922
g84
I100
sg415
I100
sg856
I3
sg857
I51
sg414
I1
ssS'min'
p1923
I1
sS'max'
p1924
I100
sS'collapsed'
p1925
I00
sS'inport'
p1926
I00
sS'visible'
p1927
I00
sS'id'
p1928
I4632034504
ssa(dp1929
g41
S"<class '/opt/gpi/lib/core/shapers/GPI/Reduce_GPI.ReduceSliders'>"
p1930
sg43
S'Dimension[-7]'
p1931
sg45
(dp1932
S'outport'
p1933
I00
sS'quietval'
p1934
Nsg49
(dp1935
g84
I100
sg415
I100
sg856
I3
sg857
I51
sg414
I1
ssS'min'
p1936
I1
sS'max'
p1937
I100
sS'collapsed'
p1938
I00
sS'inport'
p1939
I00
sS'visible'
p1940
I00
sS'id'
p1941
I4632039656
ssa(dp1942
g41
S"<class '/opt/gpi/lib/core/shapers/GPI/Reduce_GPI.ReduceSliders'>"
p1943
sg43
S'Dimension[-8]'
p1944
sg45
(dp1945
S'outport'
p1946
I00
sS'quietval'
p1947
Nsg49
(dp1948
g84
I100
sg415
I100
sg856
I3
sg857
I51
sg414
I1
ssS'min'
p1949
I1
sS'max'
p1950
I100
sS'collapsed'
p1951
I00
sS'inport'
p1952
I00
sS'visible'
p1953
I00
sS'id'
p1954
I4632044664
ssa(dp1955
g41
S"<class '/opt/gpi/lib/core/shapers/GPI/Reduce_GPI.ReduceSliders'>"
p1956
sg43
S'Dimension[-9]'
p1957
sg45
(dp1958
S'outport'
p1959
I00
sS'quietval'
p1960
Nsg49
(dp1961
g84
I100
sg415
I100
sg856
I3
sg857
I51
sg414
I1
ssS'min'
p1962
I1
sS'max'
p1963
I100
sS'collapsed'
p1964
I00
sS'inport'
p1965
I00
sS'visible'
p1966
I00
sS'id'
p1967
I4632049672
ssa(dp1968
g41
S"<class '/opt/gpi/lib/core/shapers/GPI/Reduce_GPI.ReduceSliders'>"
p1969
sg43
S'Dimension[-10]'
p1970
sg45
(dp1971
S'outport'
p1972
I00
sS'quietval'
p1973
Nsg49
(dp1974
g84
I100
sg415
I100
sg856
I3
sg857
I51
sg414
I1
ssS'min'
p1975
I1
sS'max'
p1976
I100
sS'collapsed'
p1977
I00
sS'inport'
p1978
I00
sS'visible'
p1979
I00
sS'id'
p1980
I4632054680
ssa(dp1981
g41
S"<class 'gpi.widgets.PushButton'>"
p1982
sg43
g983
sg45
(dp1983
S'outport'
p1984
I00
sS'quietval'
p1985
Nsg49
I00
sS'collapsed'
p1986
I00
sS'inport'
p1987
I00
sS'visible'
p1988
I01
sS'toggle'
p1989
I01
sS'button_title'
p1990
g124
sS'id'
p1991
I4632059688
ssa(dp1992
g41
S"<class 'gpi.widgets.PushButton'>"
p1993
sg43
g66
sg45
(dp1994
S'outport'
p1995
I00
sS'quietval'
p1996
Nsg49
I01
sS'collapsed'
p1997
I00
sS'inport'
p1998
I00
sS'visible'
p1999
I01
sS'toggle'
p2000
I01
sS'button_title'
p2001
g124
sS'id'
p2002
I4632060592
ssasg311
g1004
ssg313
S'0.148833698697'
p2003
sg43
g1006
sg316
(lp2004
F105.66885856620084
aF-199.5793772145476
asg318
(lp2005
(dp2006
g321
g513
sg323
I0
sg324
(lp2007
(dp2008
g327
(dp2009
g329
g513
sg331
I4632061352
sg332
I0
sg333
I4631957136
ssg334
(dp2010
g329
g322
sg331
I4635616984
sg332
I0
sg333
I4635549176
ssasg336
Nsg337
I65540
sg338
I100
sg339
I4632061352
sa(dp2011
g321
g322
sg323
I0
sg324
(lp2012
(dp2013
g327
(dp2014
g329
g513
sg331
I4632200616
sg332
I0
sg333
I4632133112
ssg334
(dp2015
g329
g322
sg331
I4629770320
sg332
I0
sg333
I4631957136
ssasg336
Nsg337
I65541
sg338
Nsg339
I4629770320
sa(dp2016
g321
g1020
sg323
I1
sg324
(lp2017
sg336
Nsg337
I65541
sg338
Nsg339
I4629221160
sasg340
S'0.0535330534264'
p2018
sg342
g1023
sg339
I4631957136
sg344
S'0.191533088684'
p2019
sa(dp2020
g36
(dp2021
g38
(lp2022
(dp2023
g41
S"<class 'gpi.widgets.ExclusivePushButtons'>"
p2024
sg43
g763
sg45
(dp2025
S'outport'
p2026
I00
sS'quietval'
p2027
Nsg49
I0
sS'collapsed'
p2028
I00
sS'inport'
p2029
I00
sS'visible'
p2030
I01
sS'id'
p2031
I4680791768
ssa(dp2032
g41
S"<class 'gpi.widgets.ExclusiveRadioButtons'>"
p2033
sg43
g773
sg45
(dp2034
S'outport'
p2035
I00
sS'quietval'
p2036
Nsg49
I4
sS'collapsed'
p2037
I00
sS'inport'
p2038
I00
sS'visible'
p2039
I01
sS'id'
p2040
I4680792528
ssa(dp2041
g41
S"<class 'gpi.widgets.DoubleSpinBox'>"
p2042
sg43
g783
sg45
(dp2043
S'outport'
p2044
I00
sS'quietval'
p2045
Nsg49
F-1.0
sS'min'
p2046
F-1.7976931348623157e+308
sS'max'
p2047
F1.7976931348623157e+308
sS'collapsed'
p2048
I00
sS'wrapping'
p2049
I00
sS'immediate'
p2050
I00
sS'label'
p2051
g124
sS'singlestep'
p2052
F1.0
sS'visible'
p2053
I01
sS'inport'
p2054
I00
sS'decimals'
p2055
I5
sS'id'
p2056
I4680800872
ssa(dp2057
g41
S"<class 'gpi.widgets.PushButton'>"
p2058
sg43
g800
sg45
(dp2059
S'outport'
p2060
I00
sS'quietval'
p2061
Nsg49
I01
sS'collapsed'
p2062
I00
sS'inport'
p2063
I00
sS'visible'
p2064
I01
sS'toggle'
p2065
I01
sS'button_title'
p2066
g124
sS'id'
p2067
I4680801784
ssasg311
S'reciprocal'
p2068
ssg313
S'0.400828202566'
p2069
sg43
g812
sg316
(lp2070
F8.63581820168261
aF38.395592558144045
asg318
(lp2071
(dp2072
g321
g816
sg323
I0
sg324
(lp2073
(dp2074
g327
(dp2075
g329
g816
sg331
I4680802688
sg332
I0
sg333
I4468964704
ssg334
(dp2076
g329
g322
sg331
I4632077280
sg332
I0
sg333
I4632062720
ssasg336
Nsg337
I65540
sg338
I200
sg339
I4680802688
sa(dp2077
g321
g330
sg323
I1
sg324
(lp2078
sg336
Nsg337
I65540
sg338
I200
sg339
I4680802840
sa(dp2079
g321
g322
sg323
I0
sg324
(lp2080
(dp2081
g327
(dp2082
g329
g330
sg331
I4680804968
sg332
I1
sg333
I4632354144
ssg334
(dp2083
g329
g322
sg331
I4680802992
sg332
I0
sg333
I4468964704
ssasg336
Nsg337
I65541
sg338
Nsg339
I4680802992
sasg340
S'0.110203980171'
p2084
sg342
g832
sg339
I4468964704
sg344
S'0.442931890488'
p2085
sa(dp2086
g36
(dp2087
g38
(lp2088
(dp2089
g41
S"<class 'gpi.widgets.TextBox'>"
p2090
sg43
S'Info:'
p2091
sg45
(dp2092
S'outport'
p2093
I00
sS'quietval'
p2094
Nsg49
S'Input Dimensions: (436, 436)\nInput Size: 190096\nOutput Dimensions: (12, 436, 436)\nOutput Size: 2281152\n'
p2095
sS'collapsed'
p2096
I00
sS'inport'
p2097
I00
sS'visible'
p2098
I01
sS'wordwrap'
p2099
I00
sS'id'
p2100
I4632283144
ssa(dp2101
g41
S"<class 'gpi.widgets.ExclusiveRadioButtons'>"
p2102
sg43
g773
sg45
(dp2103
S'outport'
p2104
I00
sS'quietval'
p2105
Nsg49
I3
sS'collapsed'
p2106
I00
sS'inport'
p2107
I00
sS'visible'
p2108
I01
sS'id'
p2109
I4632283600
ssa(dp2110
g41
S"<class 'gpi.widgets.SpinBox'>"
p2111
sg43
S'# Dimensions'
p2112
sg45
(dp2113
S'outport'
p2114
I00
sS'quietval'
p2115
Nsg49
I3
sS'min'
p2116
I-2147483648
sS'max'
p2117
I2147483647
sS'collapsed'
p2118
I00
sS'wrapping'
p2119
I00
sS'immediate'
p2120
I00
sS'label'
p2121
g124
sS'singlestep'
p2122
I1
sS'visible'
p2123
I00
sS'inport'
p2124
I00
sS'id'
p2125
I4632285416
ssa(dp2126
g41
S"<class 'gpi.widgets.SpinBox'>"
p2127
sg43
S'# Columns'
p2128
sg45
(dp2129
S'outport'
p2130
I00
sS'quietval'
p2131
Nsg49
I1
sS'min'
p2132
I-2147483648
sS'max'
p2133
I2147483647
sS'collapsed'
p2134
I00
sS'wrapping'
p2135
I00
sS'immediate'
p2136
I00
sS'label'
p2137
g124
sS'singlestep'
p2138
I1
sS'visible'
p2139
I00
sS'inport'
p2140
I00
sS'id'
p2141
I4632286328
ssa(dp2142
g41
S"<class 'gpi.widgets.SpinBox'>"
p2143
sg43
S'# Rows'
p2144
sg45
(dp2145
S'outport'
p2146
I00
sS'quietval'
p2147
Nsg49
I1
sS'min'
p2148
I-2147483648
sS'max'
p2149
I2147483647
sS'collapsed'
p2150
I00
sS'wrapping'
p2151
I00
sS'immediate'
p2152
I00
sS'label'
p2153
g124
sS'singlestep'
p2154
I1
sS'visible'
p2155
I00
sS'inport'
p2156
I00
sS'id'
p2157
I4632287240
ssa(dp2158
g41
S"<class 'gpi.widgets.SpinBox'>"
p2159
sg43
S'Dimension[-1]'
p2160
sg45
(dp2161
S'outport'
p2162
I00
sS'quietval'
p2163
Nsg49
I436
sS'min'
p2164
I1
sS'max'
p2165
I2147483647
sS'collapsed'
p2166
I00
sS'wrapping'
p2167
I00
sS'immediate'
p2168
I00
sS'label'
p2169
g124
sS'singlestep'
p2170
I1
sS'visible'
p2171
I00
sS'inport'
p2172
I00
sS'id'
p2173
I4632288152
ssa(dp2174
g41
S"<class 'gpi.widgets.SpinBox'>"
p2175
sg43
S'Dimension[-2]'
p2176
sg45
(dp2177
S'outport'
p2178
I00
sS'quietval'
p2179
Nsg49
I436
sS'min'
p2180
I1
sS'max'
p2181
I2147483647
sS'collapsed'
p2182
I00
sS'wrapping'
p2183
I00
sS'immediate'
p2184
I00
sS'label'
p2185
g124
sS'singlestep'
p2186
I1
sS'visible'
p2187
I00
sS'inport'
p2188
I00
sS'id'
p2189
I4632289064
ssa(dp2190
g41
S"<class 'gpi.widgets.SpinBox'>"
p2191
sg43
S'Dimension[-3]'
p2192
sg45
(dp2193
S'outport'
p2194
I00
sS'quietval'
p2195
Nsg49
I12
sS'min'
p2196
I1
sS'max'
p2197
I2147483647
sS'collapsed'
p2198
I00
sS'wrapping'
p2199
I00
sS'immediate'
p2200
I00
sS'label'
p2201
g124
sS'singlestep'
p2202
I1
sS'visible'
p2203
I01
sS'inport'
p2204
I00
sS'id'
p2205
I4632290120
ssa(dp2206
g41
S"<class 'gpi.widgets.SpinBox'>"
p2207
sg43
S'Dimension[-4]'
p2208
sg45
(dp2209
S'outport'
p2210
I00
sS'quietval'
p2211
Nsg49
I1
sS'min'
p2212
I-2147483648
sS'max'
p2213
I2147483647
sS'collapsed'
p2214
I00
sS'wrapping'
p2215
I00
sS'immediate'
p2216
I00
sS'label'
p2217
g124
sS'singlestep'
p2218
I1
sS'visible'
p2219
I00
sS'inport'
p2220
I00
sS'id'
p2221
I4632291032
ssa(dp2222
g41
S"<class 'gpi.widgets.SpinBox'>"
p2223
sg43
S'Dimension[-5]'
p2224
sg45
(dp2225
S'outport'
p2226
I00
sS'quietval'
p2227
Nsg49
I1
sS'min'
p2228
I-2147483648
sS'max'
p2229
I2147483647
sS'collapsed'
p2230
I00
sS'wrapping'
p2231
I00
sS'immediate'
p2232
I00
sS'label'
p2233
g124
sS'singlestep'
p2234
I1
sS'visible'
p2235
I00
sS'inport'
p2236
I00
sS'id'
p2237
I4632291944
ssa(dp2238
g41
S"<class 'gpi.widgets.SpinBox'>"
p2239
sg43
S'Dimension[-6]'
p2240
sg45
(dp2241
S'outport'
p2242
I00
sS'quietval'
p2243
Nsg49
I1
sS'min'
p2244
I-2147483648
sS'max'
p2245
I2147483647
sS'collapsed'
p2246
I00
sS'wrapping'
p2247
I00
sS'immediate'
p2248
I00
sS'label'
p2249
g124
sS'singlestep'
p2250
I1
sS'visible'
p2251
I00
sS'inport'
p2252
I00
sS'id'
p2253
I4632292856
ssa(dp2254
g41
S"<class 'gpi.widgets.SpinBox'>"
p2255
sg43
S'Dimension[-7]'
p2256
sg45
(dp2257
S'outport'
p2258
I00
sS'quietval'
p2259
Nsg49
I1
sS'min'
p2260
I-2147483648
sS'max'
p2261
I2147483647
sS'collapsed'
p2262
I00
sS'wrapping'
p2263
I00
sS'immediate'
p2264
I00
sS'label'
p2265
g124
sS'singlestep'
p2266
I1
sS'visible'
p2267
I00
sS'inport'
p2268
I00
sS'id'
p2269
I4632298008
ssa(dp2270
g41
S"<class 'gpi.widgets.SpinBox'>"
p2271
sg43
S'Dimension[-8]'
p2272
sg45
(dp2273
S'outport'
p2274
I00
sS'quietval'
p2275
Nsg49
I1
sS'min'
p2276
I-2147483648
sS'max'
p2277
I2147483647
sS'collapsed'
p2278
I00
sS'wrapping'
p2279
I00
sS'immediate'
p2280
I00
sS'label'
p2281
g124
sS'singlestep'
p2282
I1
sS'visible'
p2283
I00
sS'inport'
p2284
I00
sS'id'
p2285
I4632298920
ssa(dp2286
g41
S"<class 'gpi.widgets.SpinBox'>"
p2287
sg43
S'Dimension[-9]'
p2288
sg45
(dp2289
S'outport'
p2290
I00
sS'quietval'
p2291
Nsg49
I1
sS'min'
p2292
I-2147483648
sS'max'
p2293
I2147483647
sS'collapsed'
p2294
I00
sS'wrapping'
p2295
I00
sS'immediate'
p2296
I00
sS'label'
p2297
g124
sS'singlestep'
p2298
I1
sS'visible'
p2299
I00
sS'inport'
p2300
I00
sS'id'
p2301
I4632299832
ssa(dp2302
g41
S"<class 'gpi.widgets.SpinBox'>"
p2303
sg43
S'Dimension[-10]'
p2304
sg45
(dp2305
S'outport'
p2306
I00
sS'quietval'
p2307
Nsg49
I1
sS'min'
p2308
I-2147483648
sS'max'
p2309
I2147483647
sS'collapsed'
p2310
I00
sS'wrapping'
p2311
I00
sS'immediate'
p2312
I00
sS'label'
p2313
g124
sS'singlestep'
p2314
I1
sS'visible'
p2315
I00
sS'inport'
p2316
I00
sS'id'
p2317
I4632300744
ssa(dp2318
g41
S"<class 'gpi.widgets.SpinBox'>"
p2319
sg43
S'Dimension[-11]'
p2320
sg45
(dp2321
S'outport'
p2322
I00
sS'quietval'
p2323
Nsg49
I1
sS'min'
p2324
I-2147483648
sS'max'
p2325
I2147483647
sS'collapsed'
p2326
I00
sS'wrapping'
p2327
I00
sS'immediate'
p2328
I00
sS'label'
p2329
g124
sS'singlestep'
p2330
I1
sS'visible'
p2331
I00
sS'inport'
p2332
I00
sS'id'
p2333
I4632305896
ssa(dp2334
g41
S"<class 'gpi.widgets.SpinBox'>"
p2335
sg43
S'Dimension[-12]'
p2336
sg45
(dp2337
S'outport'
p2338
I00
sS'quietval'
p2339
Nsg49
I1
sS'min'
p2340
I-2147483648
sS'max'
p2341
I2147483647
sS'collapsed'
p2342
I00
sS'wrapping'
p2343
I00
sS'immediate'
p2344
I00
sS'label'
p2345
g124
sS'singlestep'
p2346
I1
sS'visible'
p2347
I00
sS'inport'
p2348
I00
sS'id'
p2349
I4632306808
ssa(dp2350
g41
S"<class 'gpi.widgets.SpinBox'>"
p2351
sg43
S'Dimension[-13]'
p2352
sg45
(dp2353
S'outport'
p2354
I00
sS'quietval'
p2355
Nsg49
I1
sS'min'
p2356
I-2147483648
sS'max'
p2357
I2147483647
sS'collapsed'
p2358
I00
sS'wrapping'
p2359
I00
sS'immediate'
p2360
I00
sS'label'
p2361
g124
sS'singlestep'
p2362
I1
sS'visible'
p2363
I00
sS'inport'
p2364
I00
sS'id'
p2365
I4632307720
ssa(dp2366
g41
S"<class 'gpi.widgets.NonExclusivePushButtons'>"
p2367
sg43
S'Selection'
p2368
sg45
(dp2369
S'outport'
p2370
I00
sS'quietval'
p2371
Nsg49
(lp2372
I0
asS'collapsed'
p2373
I00
sS'inport'
p2374
I00
sS'visible'
p2375
I01
sS'id'
p2376
I4632308632
ssa(dp2377
g41
S"<class 'gpi.widgets.ExclusivePushButtons'>"
p2378
sg43
S'Tile Dimension'
p2379
sg45
(dp2380
S'outport'
p2381
I00
sS'quietval'
p2382
Nsg49
I0
sS'collapsed'
p2383
I00
sS'inport'
p2384
I00
sS'visible'
p2385
I00
sS'id'
p2386
I4632319248
ssa(dp2387
g41
S"<class 'gpi.widgets.PushButton'>"
p2388
sg43
g66
sg45
(dp2389
S'outport'
p2390
I00
sS'quietval'
p2391
Nsg49
I01
sS'collapsed'
p2392
I00
sS'inport'
p2393
I00
sS'visible'
p2394
I01
sS'toggle'
p2395
I01
sS'button_title'
p2396
g124
sS'id'
p2397
I4632320008
ssa(dp2398
g41
S"<class 'gpi.widgets.PushButton'>"
p2399
sg43
S'Reset'
p2400
sg45
(dp2401
S'outport'
p2402
I00
sS'quietval'
p2403
Nsg49
I00
sS'collapsed'
p2404
I00
sS'inport'
p2405
I00
sS'visible'
p2406
I01
sS'toggle'
p2407
I01
sS'button_title'
p2408
g124
sS'id'
p2409
I4632320768
ssasg311
S'Extend x 12'
p2410
ssg313
S'0.330104291439'
p2411
sg43
S'Dimensions'
p2412
sg316
(lp2413
F8.63581820168261
aF-21.604407441855983
asg318
(lp2414
(dp2415
g321
g513
sg323
I0
sg324
(lp2416
(dp2417
g327
(dp2418
g329
g513
sg331
I4632321528
sg332
I0
sg333
I4632255992
ssg334
(dp2419
g329
g688
sg331
I4370658272
sg332
I0
sg333
I4667084584
ssasg336
Nsg337
I65540
sg338
I100
sg339
I4632321528
sa(dp2420
g321
g322
sg323
I0
sg324
(lp2421
(dp2422
g327
(dp2423
g329
g513
sg331
I4632077128
sg332
I0
sg333
I4632062720
ssg334
(dp2424
g329
g322
sg331
I4632321680
sg332
I0
sg333
I4632255992
ssasg336
Nsg337
I65541
sg338
Nsg339
I4632321680
sasg340
S'0.191826057651'
p2425
sg342
S'core.shapers.Dimensions'
p2426
sg339
I4632255992
sg344
S'0.427380084991'
p2427
sa(dp2428
g36
(dp2429
g38
(lp2430
(dp2431
g41
S"<class 'gpi.widgets.TextBox'>"
p2432
sg43
S'I/O Info:'
p2433
sg45
(dp2434
S'outport'
p2435
I00
sS'quietval'
p2436
Nsg49
S'input: (12, 436, 436)\noutput: (436, 436)'
p2437
sS'collapsed'
p2438
I00
sS'inport'
p2439
I00
sS'visible'
p2440
I01
sS'wordwrap'
p2441
I00
sS'id'
p2442
I4632535576
ssa(dp2443
g41
S"<class '/opt/gpi/lib/core/shapers/GPI/Reduce_GPI.ReduceSliders'>"
p2444
sg43
S'Dimension[-1]'
p2445
sg45
(dp2446
S'outport'
p2447
I00
sS'quietval'
p2448
Nsg49
(dp2449
g84
I436
sg415
I436
sg856
I3
sg857
I219
sg414
I1
ssS'min'
p2450
I1
sS'max'
p2451
I436
sS'collapsed'
p2452
I00
sS'inport'
p2453
I00
sS'visible'
p2454
I01
sS'id'
p2455
I4632536032
ssa(dp2456
g41
S"<class '/opt/gpi/lib/core/shapers/GPI/Reduce_GPI.ReduceSliders'>"
p2457
sg43
S'Dimension[-2]'
p2458
sg45
(dp2459
S'outport'
p2460
I00
sS'quietval'
p2461
Nsg49
(dp2462
g84
I436
sg415
I436
sg856
I3
sg857
I219
sg414
I1
ssS'min'
p2463
I1
sS'max'
p2464
I436
sS'collapsed'
p2465
I00
sS'inport'
p2466
I00
sS'visible'
p2467
I01
sS'id'
p2468
I4632541040
ssa(dp2469
g41
S"<class '/opt/gpi/lib/core/shapers/GPI/Reduce_GPI.ReduceSliders'>"
p2470
sg43
S'Dimension[-3]'
p2471
sg45
(dp2472
S'outport'
p2473
I00
sS'quietval'
p2474
Nsg49
(dp2475
g84
I1
sg415
I1
sg856
I2
sg857
I1
sg414
I1
ssS'min'
p2476
I1
sS'max'
p2477
I12
sS'collapsed'
p2478
I00
sS'inport'
p2479
I00
sS'visible'
p2480
I01
sS'id'
p2481
I4632546048
ssa(dp2482
g41
S"<class '/opt/gpi/lib/core/shapers/GPI/Reduce_GPI.ReduceSliders'>"
p2483
sg43
S'Dimension[-4]'
p2484
sg45
(dp2485
S'outport'
p2486
I00
sS'quietval'
p2487
Nsg49
(dp2488
g84
I100
sg415
I100
sg856
I3
sg857
I51
sg414
I1
ssS'min'
p2489
I1
sS'max'
p2490
I100
sS'collapsed'
p2491
I00
sS'inport'
p2492
I00
sS'visible'
p2493
I00
sS'id'
p2494
I4632551056
ssa(dp2495
g41
S"<class '/opt/gpi/lib/core/shapers/GPI/Reduce_GPI.ReduceSliders'>"
p2496
sg43
S'Dimension[-5]'
p2497
sg45
(dp2498
S'outport'
p2499
I00
sS'quietval'
p2500
Nsg49
(dp2501
g84
I100
sg415
I100
sg856
I3
sg857
I51
sg414
I1
ssS'min'
p2502
I1
sS'max'
p2503
I100
sS'collapsed'
p2504
I00
sS'inport'
p2505
I00
sS'visible'
p2506
I00
sS'id'
p2507
I4632556208
ssa(dp2508
g41
S"<class '/opt/gpi/lib/core/shapers/GPI/Reduce_GPI.ReduceSliders'>"
p2509
sg43
S'Dimension[-6]'
p2510
sg45
(dp2511
S'outport'
p2512
I00
sS'quietval'
p2513
Nsg49
(dp2514
g84
I100
sg415
I100
sg856
I3
sg857
I51
sg414
I1
ssS'min'
p2515
I1
sS'max'
p2516
I100
sS'collapsed'
p2517
I00
sS'inport'
p2518
I00
sS'visible'
p2519
I00
sS'id'
p2520
I4632569408
ssa(dp2521
g41
S"<class '/opt/gpi/lib/core/shapers/GPI/Reduce_GPI.ReduceSliders'>"
p2522
sg43
S'Dimension[-7]'
p2523
sg45
(dp2524
S'outport'
p2525
I00
sS'quietval'
p2526
Nsg49
(dp2527
g84
I100
sg415
I100
sg856
I3
sg857
I51
sg414
I1
ssS'min'
p2528
I1
sS'max'
p2529
I100
sS'collapsed'
p2530
I00
sS'inport'
p2531
I00
sS'visible'
p2532
I00
sS'id'
p2533
I4632574416
ssa(dp2534
g41
S"<class '/opt/gpi/lib/core/shapers/GPI/Reduce_GPI.ReduceSliders'>"
p2535
sg43
S'Dimension[-8]'
p2536
sg45
(dp2537
S'outport'
p2538
I00
sS'quietval'
p2539
Nsg49
(dp2540
g84
I100
sg415
I100
sg856
I3
sg857
I51
sg414
I1
ssS'min'
p2541
I1
sS'max'
p2542
I100
sS'collapsed'
p2543
I00
sS'inport'
p2544
I00
sS'visible'
p2545
I00
sS'id'
p2546
I4632579424
ssa(dp2547
g41
S"<class '/opt/gpi/lib/core/shapers/GPI/Reduce_GPI.ReduceSliders'>"
p2548
sg43
S'Dimension[-9]'
p2549
sg45
(dp2550
S'outport'
p2551
I00
sS'quietval'
p2552
Nsg49
(dp2553
g84
I100
sg415
I100
sg856
I3
sg857
I51
sg414
I1
ssS'min'
p2554
I1
sS'max'
p2555
I100
sS'collapsed'
p2556
I00
sS'inport'
p2557
I00
sS'visible'
p2558
I00
sS'id'
p2559
I4632584576
ssa(dp2560
g41
S"<class '/opt/gpi/lib/core/shapers/GPI/Reduce_GPI.ReduceSliders'>"
p2561
sg43
S'Dimension[-10]'
p2562
sg45
(dp2563
S'outport'
p2564
I00
sS'quietval'
p2565
Nsg49
(dp2566
g84
I100
sg415
I100
sg856
I3
sg857
I51
sg414
I1
ssS'min'
p2567
I1
sS'max'
p2568
I100
sS'collapsed'
p2569
I00
sS'inport'
p2570
I00
sS'visible'
p2571
I00
sS'id'
p2572
I4632589584
ssa(dp2573
g41
S"<class 'gpi.widgets.PushButton'>"
p2574
sg43
g983
sg45
(dp2575
S'outport'
p2576
I00
sS'quietval'
p2577
Nsg49
I00
sS'collapsed'
p2578
I00
sS'inport'
p2579
I00
sS'visible'
p2580
I01
sS'toggle'
p2581
I01
sS'button_title'
p2582
g124
sS'id'
p2583
I4632594592
ssa(dp2584
g41
S"<class 'gpi.widgets.PushButton'>"
p2585
sg43
g66
sg45
(dp2586
S'outport'
p2587
I00
sS'quietval'
p2588
Nsg49
I01
sS'collapsed'
p2589
I00
sS'inport'
p2590
I00
sS'visible'
p2591
I01
sS'toggle'
p2592
I01
sS'button_title'
p2593
g124
sS'id'
p2594
I4632595352
ssasg311
g1004
ssg313
S'0.164157120387'
p2595
sg43
g1006
sg316
(lp2596
F170.75981263028916
aF55.24539637911522
asg318
(lp2597
(dp2598
g321
g513
sg323
I0
sg324
(lp2599
(dp2600
g327
(dp2601
g329
g513
sg331
I4632596112
sg332
I0
sg333
I4632504328
ssg334
(dp2602
g329
g322
sg331
I4680805120
sg332
I0
sg333
I4632354144
ssasg336
Nsg337
I65540
sg338
I100
sg339
I4632596112
sa(dp2603
g321
g322
sg323
I0
sg324
(lp2604
(dp2605
g327
(dp2606
g329
g513
sg331
I4632253864
sg332
I0
sg333
I4632202744
ssg334
(dp2607
g329
g322
sg331
I4632596264
sg332
I0
sg333
I4632504328
ssasg336
Nsg337
I65541
sg338
Nsg339
I4632596264
sa(dp2608
g321
g1020
sg323
I1
sg324
(lp2609
sg336
Nsg337
I65541
sg338
Nsg339
I4632604752
sasg340
S'0.0487306064056'
p2610
sg342
g1023
sg339
I4632504328
sg344
S'0.164505004883'
p2611
sa(dp2612
g36
(dp2613
g38
(lp2614
(dp2615
g41
S"<class 'gpi.widgets.ExclusivePushButtons'>"
p2616
sg43
S'Complex Display'
p2617
sg45
(dp2618
S'outport'
p2619
I00
sS'quietval'
p2620
Nsg49
I4
sS'collapsed'
p2621
I00
sS'inport'
p2622
I00
sS'visible'
p2623
I01
sS'id'
p2624
I4632233992
ssa(dp2625
g41
S"<class 'gpi.widgets.SpinBox'>"
p2626
sg43
S'Edge Pixels'
p2627
sg45
(dp2628
S'outport'
p2629
I00
sS'quietval'
p2630
Nsg49
I0
sS'min'
p2631
I0
sS'max'
p2632
I2147483647
sS'collapsed'
p2633
I00
sS'wrapping'
p2634
I00
sS'immediate'
p2635
I00
sS'label'
p2636
g124
sS'singlestep'
p2637
I1
sS'visible'
p2638
I01
sS'inport'
p2639
I00
sS'id'
p2640
I4632235056
ssa(dp2641
g41
S"<class 'gpi.widgets.SpinBox'>"
p2642
sg43
S'Black Pixels'
p2643
sg45
(dp2644
S'outport'
p2645
I00
sS'quietval'
p2646
Nsg49
I0
sS'min'
p2647
I0
sS'max'
p2648
I2147483647
sS'collapsed'
p2649
I00
sS'wrapping'
p2650
I00
sS'immediate'
p2651
I00
sS'label'
p2652
g124
sS'singlestep'
p2653
I1
sS'visible'
p2654
I01
sS'inport'
p2655
I00
sS'id'
p2656
I4632236112
ssa(dp2657
g41
S"<class 'gpi.widgets.DisplayBox'>"
p2658
sg43
S'Viewport:'
p2659
sg45
(dp2660
S'outport'
p2661
I00
sS'scale'
p2662
F1.0
sS'quietval'
p2663
Nsg49
NsS'collapsed'
p2664
I01
sS'interp'
p2665
I00
sS'inport'
p2666
I00
sS'visible'
p2667
I01
sS'noscroll'
p2668
I01
sS'points'
p2669
NsS'line'
p2670
NsS'id'
p2671
I4632237024
ssa(dp2672
g41
S"<class '/opt/gpi/lib/core/display/GPI/ImageDisplay_GPI.WindowLevel'>"
p2673
sg43
S'L W F C:'
p2674
sg45
(dp2675
S'outport'
p2676
I00
sS'quietval'
p2677
Nsg49
(dp2678
g413
I100
sg414
I0
sg415
I100
sg416
I50
ssS'min'
p2679
I0
sS'max'
p2680
I100
sS'collapsed'
p2681
I00
sS'inport'
p2682
I00
sS'visible'
p2683
I01
sS'id'
p2684
I4632239456
ssa(dp2685
g41
S"<class 'gpi.widgets.ExclusivePushButtons'>"
p2686
sg43
S'Scalar Display'
p2687
sg45
(dp2688
S'outport'
p2689
I00
sS'quietval'
p2690
Nsg49
I0
sS'collapsed'
p2691
I00
sS'inport'
p2692
I00
sS'visible'
p2693
I00
sS'id'
p2694
I4632248552
ssa(dp2695
g41
S"<class 'gpi.widgets.DoubleSpinBox'>"
p2696
sg43
g435
sg45
(dp2697
S'outport'
p2698
I00
sS'quietval'
p2699
Nsg49
F1.0
sS'min'
p2700
F0.1
sS'max'
p2701
F10.0
sS'collapsed'
p2702
I00
sS'wrapping'
p2703
I00
sS'immediate'
p2704
I00
sS'label'
p2705
g124
sS'singlestep'
p2706
F0.05
sS'visible'
p2707
I01
sS'inport'
p2708
I00
sS'decimals'
p2709
I3
sS'id'
p2710
I4632249312
ssa(dp2711
g41
S"<class 'gpi.widgets.ExclusivePushButtons'>"
p2712
sg43
S'Zero Ref'
p2713
sg45
(dp2714
S'outport'
p2715
I00
sS'quietval'
p2716
Nsg49
I0
sS'collapsed'
p2717
I00
sS'inport'
p2718
I00
sS'visible'
p2719
I00
sS'id'
p2720
I4632250224
ssa(dp2721
g41
S"<class 'gpi.widgets.PushButton'>"
p2722
sg43
S'Fix Range'
p2723
sg45
(dp2724
S'outport'
p2725
I00
sS'quietval'
p2726
Nsg49
I00
sS'collapsed'
p2727
I00
sS'inport'
p2728
I00
sS'visible'
p2729
I01
sS'toggle'
p2730
I01
sS'button_title'
p2731
VAuto-Range On
p2732
sS'id'
p2733
I4632251136
ssa(dp2734
g41
S"<class 'gpi.widgets.DoubleSpinBox'>"
p2735
sg43
S'Range Min'
p2736
sg45
(dp2737
S'outport'
p2738
I00
sS'quietval'
p2739
Nsg49
F0.0
sS'min'
p2740
F-1.7976931348623157e+308
sS'max'
p2741
F1.7976931348623157e+308
sS'collapsed'
p2742
I00
sS'wrapping'
p2743
I00
sS'immediate'
p2744
I00
sS'label'
p2745
g124
sS'singlestep'
p2746
F1.0
sS'visible'
p2747
I00
sS'inport'
p2748
I00
sS'decimals'
p2749
I2
sS'id'
p2750
I4632251896
ssa(dp2751
g41
S"<class 'gpi.widgets.DoubleSpinBox'>"
p2752
sg43
S'Range Max'
p2753
sg45
(dp2754
S'outport'
p2755
I00
sS'quietval'
p2756
Nsg49
F2.74
sS'min'
p2757
F-1.7976931348623157e+308
sS'max'
p2758
F1.7976931348623157e+308
sS'collapsed'
p2759
I00
sS'wrapping'
p2760
I00
sS'immediate'
p2761
I00
sS'label'
p2762
g124
sS'singlestep'
p2763
F1.0
sS'visible'
p2764
I01
sS'inport'
p2765
I00
sS'decimals'
p2766
I2
sS'id'
p2767
I4632252952
ssasg311
S'Coil Sensitivity Maps'
p2768
ssg313
S'0.0432879288991'
p2769
sg43
g509
sg316
(lp2770
F170.75981263028916
aF85.24539637911523
asg318
(lp2771
(dp2772
g321
g513
sg323
I0
sg324
(lp2773
(dp2774
g327
(dp2775
g329
g513
sg331
I4632253864
sg332
I0
sg333
I4632202744
ssg334
(dp2776
g329
g322
sg331
I4632596264
sg332
I0
sg333
I4632504328
ssasg336
Nsg337
I65540
sg338
I100
sg339
I4632253864
sa(dp2777
g321
g322
sg323
I0
sg324
(lp2778
sg336
Nsg337
I65541
sg338
Nsg339
I4632254016
sasg340
S'0.0124891241493'
p2779
sg342
g521
sg339
I4632202744
sg344
S'0.0442759990692'
p2780
sa(dp2781
g36
(dp2782
g38
(lp2783
(dp2784
g41
S"<class 'gpi.widgets.ExclusivePushButtons'>"
p2785
sg43
g763
sg45
(dp2786
S'outport'
p2787
I00
sS'quietval'
p2788
Nsg49
I0
sS'collapsed'
p2789
I00
sS'inport'
p2790
I00
sS'visible'
p2791
I01
sS'id'
p2792
I4631694232
ssa(dp2793
g41
S"<class 'gpi.widgets.ExclusiveRadioButtons'>"
p2794
sg43
g773
sg45
(dp2795
S'outport'
p2796
I00
sS'quietval'
p2797
Nsg49
I9
sS'collapsed'
p2798
I00
sS'inport'
p2799
I00
sS'visible'
p2800
I01
sS'id'
p2801
I4468961512
ssa(dp2802
g41
S"<class 'gpi.widgets.DoubleSpinBox'>"
p2803
sg43
g783
sg45
(dp2804
S'outport'
p2805
I00
sS'quietval'
p2806
Nsg49
F1.0
sS'min'
p2807
F-1.7976931348623157e+308
sS'max'
p2808
F1.7976931348623157e+308
sS'collapsed'
p2809
I00
sS'wrapping'
p2810
I00
sS'immediate'
p2811
I00
sS'label'
p2812
g124
sS'singlestep'
p2813
F1.0
sS'visible'
p2814
I00
sS'inport'
p2815
I00
sS'decimals'
p2816
I5
sS'id'
p2817
I4631696504
ssa(dp2818
g41
S"<class 'gpi.widgets.PushButton'>"
p2819
sg43
g800
sg45
(dp2820
S'outport'
p2821
I00
sS'quietval'
p2822
Nsg49
I01
sS'collapsed'
p2823
I00
sS'inport'
p2824
I00
sS'visible'
p2825
I01
sS'toggle'
p2826
I01
sS'button_title'
p2827
g124
sS'id'
p2828
I4631697416
ssasg311
S'Conjugate'
p2829
ssg313
S'0.620498001575'
p2830
sg43
g812
sg316
(lp2831
F-74.40523230004584
aF176.78752017090764
asg318
(lp2832
(dp2833
g321
g816
sg323
I0
sg324
(lp2834
(dp2835
g327
(dp2836
g329
g816
sg331
I4631698176
sg332
I0
sg333
I4631692256
ssg334
(dp2837
g329
g322
sg331
I4680805120
sg332
I0
sg333
I4632354144
ssasg336
Nsg337
I65540
sg338
I200
sg339
I4631698176
sa(dp2838
g321
g330
sg323
I1
sg324
(lp2839
sg336
Nsg337
I65540
sg338
I200
sg339
I4631698328
sa(dp2840
g321
g322
sg323
I0
sg324
(lp2841
(dp2842
g327
(dp2843
g329
g330
sg331
I4632446528
sg332
I1
sg333
I4632346856
ssg334
(dp2844
g329
g322
sg331
I4631698480
sg332
I0
sg333
I4631692256
ssasg336
Nsg337
I65541
sg338
Nsg339
I4631698480
sasg340
S'0.278600937671'
p2845
sg342
g832
sg339
I4631692256
sg344
S'0.795272111893'
p2846
sa(dp2847
g36
(dp2848
g38
(lp2849
(dp2850
g41
S"<class 'gpi.widgets.ExclusivePushButtons'>"
p2851
sg43
S'Complex Display'
p2852
sg45
(dp2853
S'outport'
p2854
I00
sS'quietval'
p2855
Nsg49
I4
sS'collapsed'
p2856
I00
sS'inport'
p2857
I00
sS'visible'
p2858
I01
sS'id'
p2859
I4632172552
ssa(dp2860
g41
S"<class 'gpi.widgets.SpinBox'>"
p2861
sg43
S'Edge Pixels'
p2862
sg45
(dp2863
S'outport'
p2864
I00
sS'quietval'
p2865
Nsg49
I0
sS'min'
p2866
I0
sS'max'
p2867
I2147483647
sS'collapsed'
p2868
I00
sS'wrapping'
p2869
I00
sS'immediate'
p2870
I00
sS'label'
p2871
g124
sS'singlestep'
p2872
I1
sS'visible'
p2873
I01
sS'inport'
p2874
I00
sS'id'
p2875
I4632173616
ssa(dp2876
g41
S"<class 'gpi.widgets.SpinBox'>"
p2877
sg43
S'Black Pixels'
p2878
sg45
(dp2879
S'outport'
p2880
I00
sS'quietval'
p2881
Nsg49
I0
sS'min'
p2882
I0
sS'max'
p2883
I2147483647
sS'collapsed'
p2884
I00
sS'wrapping'
p2885
I00
sS'immediate'
p2886
I00
sS'label'
p2887
g124
sS'singlestep'
p2888
I1
sS'visible'
p2889
I01
sS'inport'
p2890
I00
sS'id'
p2891
I4632178768
ssa(dp2892
g41
S"<class 'gpi.widgets.DisplayBox'>"
p2893
sg43
S'Viewport:'
p2894
sg45
(dp2895
S'outport'
p2896
I00
sS'scale'
p2897
F1.0
sS'quietval'
p2898
Nsg49
NsS'collapsed'
p2899
I01
sS'interp'
p2900
I00
sS'inport'
p2901
I00
sS'visible'
p2902
I01
sS'noscroll'
p2903
I01
sS'points'
p2904
NsS'line'
p2905
NsS'id'
p2906
I4632179680
ssa(dp2907
g41
S"<class '/opt/gpi/lib/core/display/GPI/ImageDisplay_GPI.WindowLevel'>"
p2908
sg43
S'L W F C:'
p2909
sg45
(dp2910
S'outport'
p2911
I00
sS'quietval'
p2912
Nsg49
(dp2913
g413
I100
sg414
I0
sg415
I100
sg416
I50
ssS'min'
p2914
I0
sS'max'
p2915
I100
sS'collapsed'
p2916
I00
sS'inport'
p2917
I00
sS'visible'
p2918
I01
sS'id'
p2919
I4632182112
ssa(dp2920
g41
S"<class 'gpi.widgets.ExclusivePushButtons'>"
p2921
sg43
S'Scalar Display'
p2922
sg45
(dp2923
S'outport'
p2924
I00
sS'quietval'
p2925
Nsg49
I0
sS'collapsed'
p2926
I00
sS'inport'
p2927
I00
sS'visible'
p2928
I00
sS'id'
p2929
I4632195304
ssa(dp2930
g41
S"<class 'gpi.widgets.DoubleSpinBox'>"
p2931
sg43
g435
sg45
(dp2932
S'outport'
p2933
I00
sS'quietval'
p2934
Nsg49
F1.0
sS'min'
p2935
F0.1
sS'max'
p2936
F10.0
sS'collapsed'
p2937
I00
sS'wrapping'
p2938
I00
sS'immediate'
p2939
I00
sS'label'
p2940
g124
sS'singlestep'
p2941
F0.05
sS'visible'
p2942
I01
sS'inport'
p2943
I00
sS'decimals'
p2944
I3
sS'id'
p2945
I4632196064
ssa(dp2946
g41
S"<class 'gpi.widgets.ExclusivePushButtons'>"
p2947
sg43
S'Zero Ref'
p2948
sg45
(dp2949
S'outport'
p2950
I00
sS'quietval'
p2951
Nsg49
I0
sS'collapsed'
p2952
I00
sS'inport'
p2953
I00
sS'visible'
p2954
I00
sS'id'
p2955
I4632196976
ssa(dp2956
g41
S"<class 'gpi.widgets.PushButton'>"
p2957
sg43
S'Fix Range'
p2958
sg45
(dp2959
S'outport'
p2960
I00
sS'quietval'
p2961
Nsg49
I00
sS'collapsed'
p2962
I00
sS'inport'
p2963
I00
sS'visible'
p2964
I01
sS'toggle'
p2965
I01
sS'button_title'
p2966
VAuto-Range On
p2967
sS'id'
p2968
I4632197888
ssa(dp2969
g41
S"<class 'gpi.widgets.DoubleSpinBox'>"
p2970
sg43
S'Range Min'
p2971
sg45
(dp2972
S'outport'
p2973
I00
sS'quietval'
p2974
Nsg49
F0.0
sS'min'
p2975
F-1.7976931348623157e+308
sS'max'
p2976
F1.7976931348623157e+308
sS'collapsed'
p2977
I00
sS'wrapping'
p2978
I00
sS'immediate'
p2979
I00
sS'label'
p2980
g124
sS'singlestep'
p2981
F1.0
sS'visible'
p2982
I00
sS'inport'
p2983
I00
sS'decimals'
p2984
I2
sS'id'
p2985
I4632198648
ssa(dp2986
g41
S"<class 'gpi.widgets.DoubleSpinBox'>"
p2987
sg43
S'Range Max'
p2988
sg45
(dp2989
S'outport'
p2990
I00
sS'quietval'
p2991
Nsg49
F4187.65
sS'min'
p2992
F-1.7976931348623157e+308
sS'max'
p2993
F1.7976931348623157e+308
sS'collapsed'
p2994
I00
sS'wrapping'
p2995
I00
sS'immediate'
p2996
I00
sS'label'
p2997
g124
sS'singlestep'
p2998
F1.0
sS'visible'
p2999
I01
sS'inport'
p3000
I00
sS'decimals'
p3001
I2
sS'id'
p3002
I4632199704
ssasg311
S'Blurred Coil Images'
p3003
ssg313
S'0.0416102144453'
p3004
sg43
g509
sg316
(lp3005
F105.66885856620084
aF-169.5793772145476
asg318
(lp3006
(dp3007
g321
g513
sg323
I0
sg324
(lp3008
(dp3009
g327
(dp3010
g329
g513
sg331
I4632200616
sg332
I0
sg333
I4632133112
ssg334
(dp3011
g329
g322
sg331
I4629770320
sg332
I0
sg333
I4631957136
ssasg336
Nsg337
I65540
sg338
I100
sg339
I4632200616
sa(dp3012
g321
g322
sg323
I0
sg324
(lp3013
sg336
Nsg337
I65541
sg338
Nsg339
I4632200768
sasg340
S'0.0151585808892'
p3014
sg342
g521
sg339
I4632133112
sg344
S'0.0558009147644'
p3015
sassS'WALLTIME'
p3016
S'0.115243196487'
p3017
s.