(dp0
S'HEADER'
p1
S'This is a GPI Network File'
p2
sS'GPI_VERSION'
p3
S'0.2'
p4
sS'PLATFORM'
p5
(dp6
S'PYTHON_VERSION'
p7
S'2.7.6'
p8
sS'PYTHON'
p9
S'CPython'
p10
sS'TOTAL_PHYMEM'
p11
L8367030272L
sS'NUM_CPUS'
p12
I4
sS'HOSTNAME'
p13
S'ubuntu'
p14
sg5
S'Linux-3.8.0-29-generic-x86_64-with-debian-wheezy-sid'
p15
sS'TOTAL_PHYMEM_STR'
p16
S'7.79 GB'
p17
sS'OS'
p18
S'Linux'
p19
ssS'DATETIME'
p20
S'Thu Aug 21 15:25:20 2014'
p21
sS'NETWORK_VERSION'
p22
S'2'
p23
sS'layouts'
p24
(lp25
sS'TOTAL_PMEM'
p26
S'13914608'
p27
sS'nodes'
p28
(dp29
S'macroNodes'
p30
(lp31
sg28
(lp32
(dp33
S'widget_settings'
p34
(dp35
S'parms'
p36
(lp37
(dp38
S'type'
p39
S"<class 'gpi.widgets.TextBox'>"
p40
sS'name'
p41
S'I/O Info:'
p42
sS'kwargs'
p43
(dp44
S'outport'
p45
I00
sS'quietval'
p46
NsS'val'
p47
S'input: (2, 1)\noutput: (1,)'
p48
sS'collapsed'
p49
I00
sS'inport'
p50
I00
sS'visible'
p51
I01
sS'wordwrap'
p52
I00
sS'id'
p53
I79946264
ssa(dp54
g39
S"<class '/opt/gpi/lib/core/shapers/GPI/Reduce_GPI.ReduceSliders'>"
p55
sg41
S'Dimension[-1]'
p56
sg43
(dp57
S'outport'
p58
I00
sS'quietval'
p59
Nsg47
(dp60
S'width'
p61
I1
sS'ceiling'
p62
I1
sS'selection'
p63
I3
sS'center'
p64
I1
sS'floor'
p65
I1
ssS'min'
p66
I1
sS'max'
p67
I1
sS'collapsed'
p68
I00
sS'inport'
p69
I00
sS'visible'
p70
I01
sS'id'
p71
I79946720
ssa(dp72
g39
S"<class '/opt/gpi/lib/core/shapers/GPI/Reduce_GPI.ReduceSliders'>"
p73
sg41
S'Dimension[-2]'
p74
sg43
(dp75
S'outport'
p76
I00
sS'quietval'
p77
Nsg47
(dp78
g61
I1
sg62
I1
sg63
I2
sg64
I1
sg65
I1
ssS'min'
p79
I1
sS'max'
p80
I2
sS'collapsed'
p81
I00
sS'inport'
p82
I00
sS'visible'
p83
I01
sS'id'
p84
I79951728
ssa(dp85
g39
S"<class '/opt/gpi/lib/core/shapers/GPI/Reduce_GPI.ReduceSliders'>"
p86
sg41
S'Dimension[-3]'
p87
sg43
(dp88
S'outport'
p89
I00
sS'quietval'
p90
Nsg47
(dp91
g61
I100
sg62
I100
sg63
I3
sg64
I51
sg65
I1
ssS'min'
p92
I1
sS'max'
p93
I100
sS'collapsed'
p94
I00
sS'inport'
p95
I00
sS'visible'
p96
I00
sS'id'
p97
I79956736
ssa(dp98
g39
S"<class '/opt/gpi/lib/core/shapers/GPI/Reduce_GPI.ReduceSliders'>"
p99
sg41
S'Dimension[-4]'
p100
sg43
(dp101
S'outport'
p102
I00
sS'quietval'
p103
Nsg47
(dp104
g61
I100
sg62
I100
sg63
I3
sg64
I51
sg65
I1
ssS'min'
p105
I1
sS'max'
p106
I100
sS'collapsed'
p107
I00
sS'inport'
p108
I00
sS'visible'
p109
I00
sS'id'
p110
I79961744
ssa(dp111
g39
S"<class '/opt/gpi/lib/core/shapers/GPI/Reduce_GPI.ReduceSliders'>"
p112
sg41
S'Dimension[-5]'
p113
sg43
(dp114
S'outport'
p115
I00
sS'quietval'
p116
Nsg47
(dp117
g61
I100
sg62
I100
sg63
I3
sg64
I51
sg65
I1
ssS'min'
p118
I1
sS'max'
p119
I100
sS'collapsed'
p120
I00
sS'inport'
p121
I00
sS'visible'
p122
I00
sS'id'
p123
I78430896
ssa(dp124
g39
S"<class '/opt/gpi/lib/core/shapers/GPI/Reduce_GPI.ReduceSliders'>"
p125
sg41
S'Dimension[-6]'
p126
sg43
(dp127
S'outport'
p128
I00
sS'quietval'
p129
Nsg47
(dp130
g61
I100
sg62
I100
sg63
I3
sg64
I51
sg65
I1
ssS'min'
p131
I1
sS'max'
p132
I100
sS'collapsed'
p133
I00
sS'inport'
p134
I00
sS'visible'
p135
I00
sS'id'
p136
I78435904
ssa(dp137
g39
S"<class '/opt/gpi/lib/core/shapers/GPI/Reduce_GPI.ReduceSliders'>"
p138
sg41
S'Dimension[-7]'
p139
sg43
(dp140
S'outport'
p141
I00
sS'quietval'
p142
Nsg47
(dp143
g61
I100
sg62
I100
sg63
I3
sg64
I51
sg65
I1
ssS'min'
p144
I1
sS'max'
p145
I100
sS'collapsed'
p146
I00
sS'inport'
p147
I00
sS'visible'
p148
I00
sS'id'
p149
I76507296
ssa(dp150
g39
S"<class '/opt/gpi/lib/core/shapers/GPI/Reduce_GPI.ReduceSliders'>"
p151
sg41
S'Dimension[-8]'
p152
sg43
(dp153
S'outport'
p154
I00
sS'quietval'
p155
Nsg47
(dp156
g61
I100
sg62
I100
sg63
I3
sg64
I51
sg65
I1
ssS'min'
p157
I1
sS'max'
p158
I100
sS'collapsed'
p159
I00
sS'inport'
p160
I00
sS'visible'
p161
I00
sS'id'
p162
I79337632
ssa(dp163
g39
S"<class '/opt/gpi/lib/core/shapers/GPI/Reduce_GPI.ReduceSliders'>"
p164
sg41
S'Dimension[-9]'
p165
sg43
(dp166
S'outport'
p167
I00
sS'quietval'
p168
Nsg47
(dp169
g61
I100
sg62
I100
sg63
I3
sg64
I51
sg65
I1
ssS'min'
p170
I1
sS'max'
p171
I100
sS'collapsed'
p172
I00
sS'inport'
p173
I00
sS'visible'
p174
I00
sS'id'
p175
I78449712
ssa(dp176
g39
S"<class '/opt/gpi/lib/core/shapers/GPI/Reduce_GPI.ReduceSliders'>"
p177
sg41
S'Dimension[-10]'
p178
sg43
(dp179
S'outport'
p180
I00
sS'quietval'
p181
Nsg47
(dp182
g61
I100
sg62
I100
sg63
I3
sg64
I51
sg65
I1
ssS'min'
p183
I1
sS'max'
p184
I100
sS'collapsed'
p185
I00
sS'inport'
p186
I00
sS'visible'
p187
I00
sS'id'
p188
I78442576
ssa(dp189
g39
S"<class 'gpi.widgets.PushButton'>"
p190
sg41
S'Mask'
p191
sg43
(dp192
S'outport'
p193
I00
sS'quietval'
p194
Nsg47
I00
sS'collapsed'
p195
I00
sS'inport'
p196
I00
sS'visible'
p197
I01
sS'toggle'
p198
I01
sS'button_title'
p199
V
p200
sS'id'
p201
I78455776
ssa(dp202
g39
S"<class 'gpi.widgets.PushButton'>"
p203
sg41
S'Compute'
p204
sg43
(dp205
S'outport'
p206
I00
sS'quietval'
p207
Nsg47
I01
sS'collapsed'
p208
I00
sS'inport'
p209
I00
sS'visible'
p210
I01
sS'toggle'
p211
I01
sS'button_title'
p212
g200
sS'id'
p213
I78456536
ssasS'label'
p214
S''
p215
ssS'avgwalltime'
p216
S'0.116129994392'
p217
sg41
S'Reduce'
p218
sS'pos'
p219
(lp220
F204.06251279904228
aF6.7748299405384245
asS'ports'
p221
(lp222
(dp223
S'porttitle'
p224
S'in'
p225
sS'portnum'
p226
I0
sS'connections'
p227
(lp228
(dp229
S'dest'
p230
(dp231
S'portName'
p232
g225
sS'portID'
p233
I78457296
sS'portNum'
p234
I0
sS'nodeID'
p235
I79898632
ssS'src'
p236
(dp237
g232
S'coefficients'
p238
sg233
I90150920
sg234
I1
sg235
I90085688
ssasS'widgetTitle'
p239
NsS'porttype'
p240
I65540
sS'obligation'
p241
I100
sS'id'
p242
I78457296
sa(dp243
g224
S'out'
p244
sg226
I0
sg227
(lp245
(dp246
g230
(dp247
g232
S'in1'
p248
sg233
I79870568
sg234
I0
sg235
I79799872
ssg236
(dp249
g232
g244
sg233
I78457448
sg234
I0
sg235
I79898632
ssasg239
Nsg240
I65541
sg241
Nsg242
I78457448
sa(dp250
g224
S'mask'
p251
sg226
I1
sg227
(lp252
sg239
Nsg240
I65541
sg241
Nsg242
I78457600
sasS'stdwalltime'
p253
S'0.00817125882649'
p254
sS'key'
p255
S'core.shapers.Reduce'
p256
sg242
I79898632
sS'walltime'
p257
S'0.116014003754'
p258
sa(dp259
g34
(dp260
g36
(lp261
(dp262
g39
S"<class 'gpi.widgets.ExclusiveRadioButtons'>"
p263
sg41
S'Operation'
p264
sg43
(dp265
S'outport'
p266
I00
sS'quietval'
p267
Nsg47
I2
sS'collapsed'
p268
I00
sS'inport'
p269
I00
sS'visible'
p270
I01
sS'id'
p271
I90245584
ssa(dp272
g39
S"<class 'gpi.widgets.DoubleSpinBox'>"
p273
sg41
S'Scalar'
p274
sg43
(dp275
S'outport'
p276
I00
sS'quietval'
p277
Nsg47
F0.2
sS'min'
p278
F-1.7976931348623157e+308
sS'max'
p279
F1.7976931348623157e+308
sS'collapsed'
p280
I00
sS'wrapping'
p281
I00
sS'immediate'
p282
I00
sS'label'
p283
g200
sS'singlestep'
p284
F1.0
sS'visible'
p285
I01
sS'inport'
p286
I00
sS'decimals'
p287
I5
sS'id'
p288
I90247400
ssa(dp289
g39
S"<class 'gpi.widgets.PushButton'>"
p290
sg41
S'compute'
p291
sg43
(dp292
S'outport'
p293
I00
sS'quietval'
p294
Nsg47
I01
sS'collapsed'
p295
I00
sS'inport'
p296
I00
sS'visible'
p297
I01
sS'toggle'
p298
I01
sS'button_title'
p299
g200
sS'id'
p300
I90248312
ssasg214
g215
ssg216
S'0.10639500618'
p301
sg41
S'Float_Math'
p302
sg219
(lp303
F-164.93748720095772
aF25.455322029765554
asg221
(lp304
(dp305
g224
S'inLeft'
p306
sg226
I0
sg227
(lp307
(dp308
g230
(dp309
g232
g306
sg233
I90249072
sg234
I0
sg235
I90243152
ssg236
(dp310
g232
g244
sg233
I96023368
sg234
I0
sg235
I95996520
ssasg239
Nsg240
I65540
sg241
I200
sg242
I90249072
sa(dp311
g224
S'inRight'
p312
sg226
I1
sg227
(lp313
sg239
Nsg240
I65540
sg241
I200
sg242
I90249224
sa(dp314
g224
g244
sg226
I0
sg227
(lp315
(dp316
g230
(dp317
g232
S'Poly j:'
p318
sg233
I99113272
sg234
I1
sg235
I90084624
ssg236
(dp319
g232
g244
sg233
I90249376
sg234
I0
sg235
I90243152
ssasg239
Nsg240
I65541
sg241
Nsg242
I90249376
sasg253
S'0.00940509108995'
p320
sg255
S'core.math.Float_Math'
p321
sg242
I90243152
sg257
S'0.10444688797'
p322
sa(dp323
g34
(dp324
g36
(lp325
(dp326
g39
S"<class 'gpi.widgets.ExclusiveRadioButtons'>"
p327
sg41
g264
sg43
(dp328
S'outport'
p329
I00
sS'quietval'
p330
Nsg47
I1
sS'collapsed'
p331
I00
sS'inport'
p332
I00
sS'visible'
p333
I01
sS'id'
p334
I96088752
ssa(dp335
g39
S"<class 'gpi.widgets.DoubleSpinBox'>"
p336
sg41
g274
sg43
(dp337
S'outport'
p338
I00
sS'quietval'
p339
Nsg47
F640.0
sS'min'
p340
F-1.7976931348623157e+308
sS'max'
p341
F1.7976931348623157e+308
sS'collapsed'
p342
I00
sS'wrapping'
p343
I00
sS'immediate'
p344
I00
sS'label'
p345
g200
sS'singlestep'
p346
F1.0
sS'visible'
p347
I01
sS'inport'
p348
I00
sS'decimals'
p349
I5
sS'id'
p350
I96090424
ssa(dp351
g39
S"<class 'gpi.widgets.PushButton'>"
p352
sg41
g291
sg43
(dp353
S'outport'
p354
I00
sS'quietval'
p355
Nsg47
I01
sS'collapsed'
p356
I00
sS'inport'
p357
I00
sS'visible'
p358
I01
sS'toggle'
p359
I01
sS'button_title'
p360
g200
sS'id'
p361
I96091336
ssasg214
g215
ssg216
S'0.107737016678'
p362
sg41
g302
sg219
(lp363
F-164.93748720095772
aF-34.544677970234446
asg221
(lp364
(dp365
g224
g306
sg226
I0
sg227
(lp366
(dp367
g230
(dp368
g232
g306
sg233
I96092240
sg234
I0
sg235
I96061600
ssg236
(dp369
g232
S'out2'
p370
sg233
I79777272
sg234
I1
sg235
I78057256
ssasg239
Nsg240
I65540
sg241
I200
sg242
I96092240
sa(dp371
g224
g312
sg226
I1
sg227
(lp372
sg239
Nsg240
I65540
sg241
I200
sg242
I96092392
sa(dp373
g224
g244
sg226
I0
sg227
(lp374
(dp375
g230
(dp376
g232
g306
sg233
I96023064
sg234
I0
sg235
I95996520
ssg236
(dp377
g232
g244
sg233
I96092544
sg234
I0
sg235
I96061600
ssasg239
Nsg240
I65541
sg241
Nsg242
I96092544
sasg253
S'0.00598580607481'
p378
sg255
g321
sg242
I96061600
sg257
S'0.105231046677'
p379
sa(dp380
g34
(dp381
g36
(lp382
(dp383
g39
S"<class 'gpi.widgets.TextBox'>"
p384
sg41
S'I/O Info:'
p385
sg43
(dp386
S'outport'
p387
I00
sS'quietval'
p388
Nsg47
S'input: (256,)\noutput: (180,)'
p389
sS'collapsed'
p390
I00
sS'inport'
p391
I00
sS'visible'
p392
I01
sS'wordwrap'
p393
I00
sS'id'
p394
I87039632
ssa(dp395
g39
S"<class '/opt/gpi/lib/core/shapers/GPI/Reduce_GPI.ReduceSliders'>"
p396
sg41
S'Dimension[-1]'
p397
sg43
(dp398
S'outport'
p399
I00
sS'quietval'
p400
Nsg47
(dp401
g61
I180
sg62
I218
sg63
I0
sg64
I129
sg65
I39
ssS'min'
p402
I1
sS'max'
p403
I256
sS'collapsed'
p404
I00
sS'inport'
p405
I00
sS'visible'
p406
I01
sS'id'
p407
I87068904
ssa(dp408
g39
S"<class '/opt/gpi/lib/core/shapers/GPI/Reduce_GPI.ReduceSliders'>"
p409
sg41
S'Dimension[-2]'
p410
sg43
(dp411
S'outport'
p412
I00
sS'quietval'
p413
Nsg47
(dp414
g61
I100
sg62
I100
sg63
I3
sg64
I51
sg65
I1
ssS'min'
p415
I1
sS'max'
p416
I100
sS'collapsed'
p417
I00
sS'inport'
p418
I00
sS'visible'
p419
I00
sS'id'
p420
I87073912
ssa(dp421
g39
S"<class '/opt/gpi/lib/core/shapers/GPI/Reduce_GPI.ReduceSliders'>"
p422
sg41
S'Dimension[-3]'
p423
sg43
(dp424
S'outport'
p425
I00
sS'quietval'
p426
Nsg47
(dp427
g61
I100
sg62
I100
sg63
I3
sg64
I51
sg65
I1
ssS'min'
p428
I1
sS'max'
p429
I100
sS'collapsed'
p430
I00
sS'inport'
p431
I00
sS'visible'
p432
I00
sS'id'
p433
I87078920
ssa(dp434
g39
S"<class '/opt/gpi/lib/core/shapers/GPI/Reduce_GPI.ReduceSliders'>"
p435
sg41
S'Dimension[-4]'
p436
sg43
(dp437
S'outport'
p438
I00
sS'quietval'
p439
Nsg47
(dp440
g61
I100
sg62
I100
sg63
I3
sg64
I51
sg65
I1
ssS'min'
p441
I1
sS'max'
p442
I100
sS'collapsed'
p443
I00
sS'inport'
p444
I00
sS'visible'
p445
I00
sS'id'
p446
I87083928
ssa(dp447
g39
S"<class '/opt/gpi/lib/core/shapers/GPI/Reduce_GPI.ReduceSliders'>"
p448
sg41
S'Dimension[-5]'
p449
sg43
(dp450
S'outport'
p451
I00
sS'quietval'
p452
Nsg47
(dp453
g61
I100
sg62
I100
sg63
I3
sg64
I51
sg65
I1
ssS'min'
p454
I1
sS'max'
p455
I100
sS'collapsed'
p456
I00
sS'inport'
p457
I00
sS'visible'
p458
I00
sS'id'
p459
I87088936
ssa(dp460
g39
S"<class '/opt/gpi/lib/core/shapers/GPI/Reduce_GPI.ReduceSliders'>"
p461
sg41
S'Dimension[-6]'
p462
sg43
(dp463
S'outport'
p464
I00
sS'quietval'
p465
Nsg47
(dp466
g61
I100
sg62
I100
sg63
I3
sg64
I51
sg65
I1
ssS'min'
p467
I1
sS'max'
p468
I100
sS'collapsed'
p469
I00
sS'inport'
p470
I00
sS'visible'
p471
I00
sS'id'
p472
I87094088
ssa(dp473
g39
S"<class '/opt/gpi/lib/core/shapers/GPI/Reduce_GPI.ReduceSliders'>"
p474
sg41
S'Dimension[-7]'
p475
sg43
(dp476
S'outport'
p477
I00
sS'quietval'
p478
Nsg47
(dp479
g61
I100
sg62
I100
sg63
I3
sg64
I51
sg65
I1
ssS'min'
p480
I1
sS'max'
p481
I100
sS'collapsed'
p482
I00
sS'inport'
p483
I00
sS'visible'
p484
I00
sS'id'
p485
I87103192
ssa(dp486
g39
S"<class '/opt/gpi/lib/core/shapers/GPI/Reduce_GPI.ReduceSliders'>"
p487
sg41
S'Dimension[-8]'
p488
sg43
(dp489
S'outport'
p490
I00
sS'quietval'
p491
Nsg47
(dp492
g61
I100
sg62
I100
sg63
I3
sg64
I51
sg65
I1
ssS'min'
p493
I1
sS'max'
p494
I100
sS'collapsed'
p495
I00
sS'inport'
p496
I00
sS'visible'
p497
I00
sS'id'
p498
I87112296
ssa(dp499
g39
S"<class '/opt/gpi/lib/core/shapers/GPI/Reduce_GPI.ReduceSliders'>"
p500
sg41
S'Dimension[-9]'
p501
sg43
(dp502
S'outport'
p503
I00
sS'quietval'
p504
Nsg47
(dp505
g61
I100
sg62
I100
sg63
I3
sg64
I51
sg65
I1
ssS'min'
p506
I1
sS'max'
p507
I100
sS'collapsed'
p508
I00
sS'inport'
p509
I00
sS'visible'
p510
I00
sS'id'
p511
I87117304
ssa(dp512
g39
S"<class '/opt/gpi/lib/core/shapers/GPI/Reduce_GPI.ReduceSliders'>"
p513
sg41
S'Dimension[-10]'
p514
sg43
(dp515
S'outport'
p516
I00
sS'quietval'
p517
Nsg47
(dp518
g61
I100
sg62
I100
sg63
I3
sg64
I51
sg65
I1
ssS'min'
p519
I1
sS'max'
p520
I100
sS'collapsed'
p521
I00
sS'inport'
p522
I00
sS'visible'
p523
I00
sS'id'
p524
I87122456
ssa(dp525
g39
S"<class 'gpi.widgets.PushButton'>"
p526
sg41
g191
sg43
(dp527
S'outport'
p528
I00
sS'quietval'
p529
Nsg47
I00
sS'collapsed'
p530
I00
sS'inport'
p531
I00
sS'visible'
p532
I01
sS'toggle'
p533
I01
sS'button_title'
p534
g200
sS'id'
p535
I87127464
ssa(dp536
g39
S"<class 'gpi.widgets.PushButton'>"
p537
sg41
g204
sg43
(dp538
S'outport'
p539
I00
sS'quietval'
p540
Nsg47
I01
sS'collapsed'
p541
I00
sS'inport'
p542
I00
sS'visible'
p543
I01
sS'toggle'
p544
I01
sS'button_title'
p545
g200
sS'id'
p546
I87128224
ssasg214
g215
ssg216
S'0.119737577438'
p547
sg41
g218
sg219
(lp548
F98.06251279904228
aF-103.54467797023445
asg221
(lp549
(dp550
g224
g225
sg226
I0
sg227
(lp551
(dp552
g230
(dp553
g232
g225
sg233
I87128984
sg234
I0
sg235
I87037200
ssg236
(dp554
g232
g244
sg233
I99165456
sg234
I0
sg235
I99122072
ssasg239
Nsg240
I65540
sg241
I100
sg242
I87128984
sa(dp555
g224
g244
sg226
I0
sg227
(lp556
(dp557
g230
(dp558
g232
S'in0'
p559
sg233
I78477168
sg234
I0
sg235
I78463816
ssg236
(dp560
g232
g244
sg233
I87129136
sg234
I0
sg235
I87037200
ssa(dp561
g230
(dp562
g232
S'dataIn'
p563
sg233
I90150464
sg234
I0
sg235
I90085688
ssg236
(dp564
g232
g244
sg233
I87129136
sg234
I0
sg235
I87037200
ssasg239
Nsg240
I65541
sg241
Nsg242
I87129136
sa(dp565
g224
g251
sg226
I1
sg227
(lp566
sg239
Nsg240
I65541
sg241
Nsg242
I87129288
sasg253
S'0.00729158577526'
p567
sg255
g256
sg242
I87037200
sg257
S'0.126080036163'
p568
sa(dp569
g34
(dp570
g36
(lp571
(dp572
g39
S"<class 'gpi.widgets.ExclusivePushButtons'>"
p573
sg41
S'Mode'
p574
sg43
(dp575
S'outport'
p576
I00
sS'quietval'
p577
Nsg47
I0
sS'collapsed'
p578
I00
sS'inport'
p579
I00
sS'visible'
p580
I01
sS'id'
p581
I90116936
ssa(dp582
g39
S"<class 'gpi.widgets.TextBox'>"
p583
sg41
S'Info:'
p584
sg43
(dp585
S'outport'
p586
I00
sS'quietval'
p587
Nsg47
S'Select the order of the polynomial to which to fit the data.\n\n\nFit coefficients: [[   1.86960503 -168.30742782]]'
p588
sS'collapsed'
p589
I00
sS'inport'
p590
I00
sS'visible'
p591
I01
sS'wordwrap'
p592
I00
sS'id'
p593
I90117696
ssa(dp594
g39
S"<class 'gpi.widgets.StringBox'>"
p595
sg41
S'Model Definition:'
p596
sg43
(dp597
S'maskedval'
p598
S'x\x9c\xabT\xb0U\xa8\x00\x00\x04Q\x01o'
p599
sS'outport'
p600
I00
sS'quietval'
p601
Nsg47
S'y = x'
p602
sS'collapsed'
p603
I00
sS'mask'
p604
I00
sS'inport'
p605
I00
sS'visible'
p606
I00
sS'id'
p607
I90118152
ssa(dp608
g39
S"<class 'gpi.widgets.SpinBox'>"
p609
sg41
S'# Model Parameters'
p610
sg43
(dp611
S'outport'
p612
I00
sS'quietval'
p613
Nsg47
I3
sS'min'
p614
I1
sS'max'
p615
I9
sS'collapsed'
p616
I00
sS'wrapping'
p617
I00
sS'immediate'
p618
I00
sS'label'
p619
g200
sS'singlestep'
p620
I1
sS'visible'
p621
I00
sS'inport'
p622
I00
sS'id'
p623
I90118608
ssa(dp624
g39
S"<class 'gpi.widgets.DoubleSpinBox'>"
p625
sg41
S'Initial a0'
p626
sg43
(dp627
S'outport'
p628
I00
sS'quietval'
p629
Nsg47
F1.0
sS'min'
p630
F-1.7976931348623157e+308
sS'max'
p631
F1.7976931348623157e+308
sS'collapsed'
p632
I00
sS'wrapping'
p633
I00
sS'immediate'
p634
I00
sS'label'
p635
g200
sS'singlestep'
p636
F1.0
sS'visible'
p637
I00
sS'inport'
p638
I00
sS'decimals'
p639
I5
sS'id'
p640
I90119520
ssa(dp641
g39
S"<class 'gpi.widgets.StringBox'>"
p642
sg41
S'f0(x) ='
p643
sg43
(dp644
S'maskedval'
p645
S'x\x9c3\x04\x00\x002\x002'
p646
sS'outport'
p647
I00
sS'quietval'
p648
Nsg47
S'1'
p649
sS'collapsed'
p650
I00
sS'mask'
p651
I00
sS'inport'
p652
I00
sS'visible'
p653
I00
sS'id'
p654
I90124672
ssa(dp655
g39
S"<class 'gpi.widgets.DoubleSpinBox'>"
p656
sg41
S'Initial a1'
p657
sg43
(dp658
S'outport'
p659
I00
sS'quietval'
p660
Nsg47
F1.0
sS'min'
p661
F-1.7976931348623157e+308
sS'max'
p662
F1.7976931348623157e+308
sS'collapsed'
p663
I00
sS'wrapping'
p664
I00
sS'immediate'
p665
I00
sS'label'
p666
g200
sS'singlestep'
p667
F1.0
sS'visible'
p668
I00
sS'inport'
p669
I00
sS'decimals'
p670
I5
sS'id'
p671
I90125128
ssa(dp672
g39
S"<class 'gpi.widgets.StringBox'>"
p673
sg41
S'f1(x) ='
p674
sg43
(dp675
S'maskedval'
p676
S'x\x9c\xcb+\xd0+\xc8/O-\xd2\xa8\xd0Q0\xd4\x04\x00&h\x04\x80'
p677
sS'outport'
p678
I00
sS'quietval'
p679
Nsg47
S'np.power(x, 1)'
p680
sS'collapsed'
p681
I00
sS'mask'
p682
I00
sS'inport'
p683
I00
sS'visible'
p684
I00
sS'id'
p685
I90126040
ssa(dp686
g39
S"<class 'gpi.widgets.DoubleSpinBox'>"
p687
sg41
S'Initial a2'
p688
sg43
(dp689
S'outport'
p690
I00
sS'quietval'
p691
Nsg47
F1.0
sS'min'
p692
F-1.7976931348623157e+308
sS'max'
p693
F1.7976931348623157e+308
sS'collapsed'
p694
I00
sS'wrapping'
p695
I00
sS'immediate'
p696
I00
sS'label'
p697
g200
sS'singlestep'
p698
F1.0
sS'visible'
p699
I00
sS'inport'
p700
I00
sS'decimals'
p701
I5
sS'id'
p702
I90126496
ssa(dp703
g39
S"<class 'gpi.widgets.StringBox'>"
p704
sg41
S'f2(x) ='
p705
sg43
(dp706
S'maskedval'
p707
S'x\x9c\xcb+\xd0+\xc8/O-\xd2\xa8\xd0Q0\xd2\x04\x00&j\x04\x81'
p708
sS'outport'
p709
I00
sS'quietval'
p710
Nsg47
S'np.power(x, 2)'
p711
sS'collapsed'
p712
I00
sS'mask'
p713
I00
sS'inport'
p714
I00
sS'visible'
p715
I00
sS'id'
p716
I90127408
ssa(dp717
g39
S"<class 'gpi.widgets.DoubleSpinBox'>"
p718
sg41
S'Initial a3'
p719
sg43
(dp720
S'outport'
p721
I00
sS'quietval'
p722
Nsg47
F1.0
sS'min'
p723
F-1.7976931348623157e+308
sS'max'
p724
F1.7976931348623157e+308
sS'collapsed'
p725
I00
sS'wrapping'
p726
I00
sS'immediate'
p727
I00
sS'label'
p728
g200
sS'singlestep'
p729
F1.0
sS'visible'
p730
I00
sS'inport'
p731
I00
sS'decimals'
p732
I5
sS'id'
p733
I90127864
ssa(dp734
g39
S"<class 'gpi.widgets.StringBox'>"
p735
sg41
S'f3(x) ='
p736
sg43
(dp737
S'maskedval'
p738
S'x\x9c\xcb+\xd0+\xc8/O-\xd2\xa8\xd0Q0\xd6\x04\x00&l\x04\x82'
p739
sS'outport'
p740
I00
sS'quietval'
p741
Nsg47
S'np.power(x, 3)'
p742
sS'collapsed'
p743
I00
sS'mask'
p744
I00
sS'inport'
p745
I00
sS'visible'
p746
I00
sS'id'
p747
I90133016
ssa(dp748
g39
S"<class 'gpi.widgets.DoubleSpinBox'>"
p749
sg41
S'Initial a4'
p750
sg43
(dp751
S'outport'
p752
I00
sS'quietval'
p753
Nsg47
F1.0
sS'min'
p754
F-1.7976931348623157e+308
sS'max'
p755
F1.7976931348623157e+308
sS'collapsed'
p756
I00
sS'wrapping'
p757
I00
sS'immediate'
p758
I00
sS'label'
p759
g200
sS'singlestep'
p760
F1.0
sS'visible'
p761
I00
sS'inport'
p762
I00
sS'decimals'
p763
I5
sS'id'
p764
I90133472
ssa(dp765
g39
S"<class 'gpi.widgets.StringBox'>"
p766
sg41
S'f4(x) ='
p767
sg43
(dp768
S'maskedval'
p769
S'x\x9c\xcb+\xd0+\xc8/O-\xd2\xa8\xd0Q0\xd1\x04\x00&n\x04\x83'
p770
sS'outport'
p771
I00
sS'quietval'
p772
Nsg47
S'np.power(x, 4)'
p773
sS'collapsed'
p774
I00
sS'mask'
p775
I00
sS'inport'
p776
I00
sS'visible'
p777
I00
sS'id'
p778
I90134384
ssa(dp779
g39
S"<class 'gpi.widgets.DoubleSpinBox'>"
p780
sg41
S'Initial a5'
p781
sg43
(dp782
S'outport'
p783
I00
sS'quietval'
p784
Nsg47
F1.0
sS'min'
p785
F-1.7976931348623157e+308
sS'max'
p786
F1.7976931348623157e+308
sS'collapsed'
p787
I00
sS'wrapping'
p788
I00
sS'immediate'
p789
I00
sS'label'
p790
g200
sS'singlestep'
p791
F1.0
sS'visible'
p792
I00
sS'inport'
p793
I00
sS'decimals'
p794
I5
sS'id'
p795
I90134840
ssa(dp796
g39
S"<class 'gpi.widgets.StringBox'>"
p797
sg41
S'f5(x) ='
p798
sg43
(dp799
S'maskedval'
p800
S'x\x9c\xcb+\xd0+\xc8/O-\xd2\xa8\xd0Q0\xd5\x04\x00&p\x04\x84'
p801
sS'outport'
p802
I00
sS'quietval'
p803
Nsg47
S'np.power(x, 5)'
p804
sS'collapsed'
p805
I00
sS'mask'
p806
I00
sS'inport'
p807
I00
sS'visible'
p808
I00
sS'id'
p809
I90135752
ssa(dp810
g39
S"<class 'gpi.widgets.DoubleSpinBox'>"
p811
sg41
S'Initial a6'
p812
sg43
(dp813
S'outport'
p814
I00
sS'quietval'
p815
Nsg47
F1.0
sS'min'
p816
F-1.7976931348623157e+308
sS'max'
p817
F1.7976931348623157e+308
sS'collapsed'
p818
I00
sS'wrapping'
p819
I00
sS'immediate'
p820
I00
sS'label'
p821
g200
sS'singlestep'
p822
F1.0
sS'visible'
p823
I00
sS'inport'
p824
I00
sS'decimals'
p825
I5
sS'id'
p826
I90136208
ssa(dp827
g39
S"<class 'gpi.widgets.StringBox'>"
p828
sg41
S'f6(x) ='
p829
sg43
(dp830
S'maskedval'
p831
S'x\x9c\xcb+\xd0+\xc8/O-\xd2\xa8\xd0Q0\xd3\x04\x00&r\x04\x85'
p832
sS'outport'
p833
I00
sS'quietval'
p834
Nsg47
S'np.power(x, 6)'
p835
sS'collapsed'
p836
I00
sS'mask'
p837
I00
sS'inport'
p838
I00
sS'visible'
p839
I00
sS'id'
p840
I90141360
ssa(dp841
g39
S"<class 'gpi.widgets.DoubleSpinBox'>"
p842
sg41
S'Initial a7'
p843
sg43
(dp844
S'outport'
p845
I00
sS'quietval'
p846
Nsg47
F1.0
sS'min'
p847
F-1.7976931348623157e+308
sS'max'
p848
F1.7976931348623157e+308
sS'collapsed'
p849
I00
sS'wrapping'
p850
I00
sS'immediate'
p851
I00
sS'label'
p852
g200
sS'singlestep'
p853
F1.0
sS'visible'
p854
I00
sS'inport'
p855
I00
sS'decimals'
p856
I5
sS'id'
p857
I90141816
ssa(dp858
g39
S"<class 'gpi.widgets.StringBox'>"
p859
sg41
S'f7(x) ='
p860
sg43
(dp861
S'maskedval'
p862
S'x\x9c\xcb+\xd0+\xc8/O-\xd2\xa8\xd0Q0\xd7\x04\x00&t\x04\x86'
p863
sS'outport'
p864
I00
sS'quietval'
p865
Nsg47
S'np.power(x, 7)'
p866
sS'collapsed'
p867
I00
sS'mask'
p868
I00
sS'inport'
p869
I00
sS'visible'
p870
I00
sS'id'
p871
I90142728
ssa(dp872
g39
S"<class 'gpi.widgets.DoubleSpinBox'>"
p873
sg41
S'Initial a8'
p874
sg43
(dp875
S'outport'
p876
I00
sS'quietval'
p877
Nsg47
F1.0
sS'min'
p878
F-1.7976931348623157e+308
sS'max'
p879
F1.7976931348623157e+308
sS'collapsed'
p880
I00
sS'wrapping'
p881
I00
sS'immediate'
p882
I00
sS'label'
p883
g200
sS'singlestep'
p884
F1.0
sS'visible'
p885
I00
sS'inport'
p886
I00
sS'decimals'
p887
I5
sS'id'
p888
I90143184
ssa(dp889
g39
S"<class 'gpi.widgets.StringBox'>"
p890
sg41
S'f8(x) ='
p891
sg43
(dp892
S'maskedval'
p893
S'x\x9c\xcb+\xd0+\xc8/O-\xd2\xa8\xd0Q\xb0\xd0\x04\x00&v\x04\x87'
p894
sS'outport'
p895
I00
sS'quietval'
p896
Nsg47
S'np.power(x, 8)'
p897
sS'collapsed'
p898
I00
sS'mask'
p899
I00
sS'inport'
p900
I00
sS'visible'
p901
I00
sS'id'
p902
I90144096
ssa(dp903
g39
S"<class 'gpi.widgets.SpinBox'>"
p904
sg41
S'Polynomial Order'
p905
sg43
(dp906
S'outport'
p907
I00
sS'quietval'
p908
Nsg47
I1
sS'min'
p909
I0
sS'max'
p910
I2147483647
sS'collapsed'
p911
I00
sS'wrapping'
p912
I00
sS'immediate'
p913
I00
sS'label'
p914
g200
sS'singlestep'
p915
I1
sS'visible'
p916
I01
sS'inport'
p917
I00
sS'id'
p918
I90144552
ssa(dp919
g39
S"<class 'gpi.widgets.PushButton'>"
p920
sg41
g204
sg43
(dp921
S'outport'
p922
I00
sS'quietval'
p923
Nsg47
I01
sS'collapsed'
p924
I00
sS'inport'
p925
I00
sS'visible'
p926
I01
sS'toggle'
p927
I01
sS'button_title'
p928
g200
sS'id'
p929
I90149704
ssasg214
g215
ssg216
S'0.240383505821'
p930
sg41
S'Regression'
p931
sg219
(lp932
F178.06251279904225
aF-23.225170059461576
asg221
(lp933
(dp934
g224
g563
sg226
I0
sg227
(lp935
(dp936
g230
(dp937
g232
g563
sg233
I90150464
sg234
I0
sg235
I90085688
ssg236
(dp938
g232
g244
sg233
I87129136
sg234
I0
sg235
I87037200
ssasg239
Nsg240
I65540
sg241
I100
sg242
I90150464
sa(dp939
g224
S'coordsIn'
p940
sg226
I1
sg227
(lp941
sg239
Nsg240
I65540
sg241
I200
sg242
I90150616
sa(dp942
g224
S'fit'
p943
sg226
I0
sg227
(lp944
(dp945
g230
(dp946
g232
S'in1'
p947
sg233
I78477320
sg234
I1
sg235
I78463816
ssg236
(dp948
g232
g943
sg233
I90150768
sg234
I0
sg235
I90085688
ssasg239
Nsg240
I65541
sg241
Nsg242
I90150768
sa(dp949
g224
g238
sg226
I1
sg227
(lp950
(dp951
g230
(dp952
g232
g225
sg233
I78457296
sg234
I0
sg235
I79898632
ssg236
(dp953
g232
g238
sg233
I90150920
sg234
I1
sg235
I90085688
ssasg239
Nsg240
I65541
sg241
Nsg242
I90150920
sa(dp954
g224
S'residual'
p955
sg226
I2
sg227
(lp956
sg239
Nsg240
I65541
sg241
Nsg242
I90151072
sasg253
S'0.0444789720738'
p957
sg255
S'core.math.Regression'
p958
sg242
I90085688
sg257
S'0.240333795547'
p959
sa(dp960
g34
(dp961
g36
(lp962
(dp963
g39
S"<class 'gpi.widgets.TextBox'>"
p964
sg41
S'Status'
p965
sg43
(dp966
S'outport'
p967
I00
sS'quietval'
p968
Nsg47
S'Ready'
p969
sS'collapsed'
p970
I00
sS'inport'
p971
I00
sS'visible'
p972
I01
sS'wordwrap'
p973
I00
sS'id'
p974
I90215392
ssa(dp975
g39
S"<class 'gpi.widgets.TextBox'>"
p976
sg41
S'Info'
p977
sg43
(dp978
S'outport'
p979
I00
sS'quietval'
p980
Nsg47
S'input: (256, 1280)\noutput: (1280,)'
p981
sS'collapsed'
p982
I00
sS'inport'
p983
I00
sS'visible'
p984
I01
sS'wordwrap'
p985
I00
sS'id'
p986
I90215848
ssa(dp987
g39
S"<class 'gpi.widgets.ExclusiveRadioButtons'>"
p988
sg41
g264
sg43
(dp989
S'outport'
p990
I00
sS'quietval'
p991
Nsg47
I1
sS'collapsed'
p992
I00
sS'inport'
p993
I00
sS'visible'
p994
I01
sS'id'
p995
I90216304
ssa(dp996
g39
S"<class 'gpi.widgets.PushButton'>"
p997
sg41
g204
sg43
(dp998
S'outport'
p999
I00
sS'quietval'
p1000
Nsg47
I01
sS'collapsed'
p1001
I00
sS'inport'
p1002
I00
sS'visible'
p1003
I01
sS'toggle'
p1004
I01
sS'button_title'
p1005
g200
sS'id'
p1006
I90218576
ssa(dp1007
g39
S"<class 'gpi.widgets.PushButton'>"
p1008
sg41
S'Collapse All'
p1009
sg43
(dp1010
S'outport'
p1011
I00
sS'quietval'
p1012
Nsg47
I00
sS'collapsed'
p1013
I00
sS'inport'
p1014
I00
sS'visible'
p1015
I01
sS'toggle'
p1016
I01
sS'button_title'
p1017
g200
sS'id'
p1018
I90219336
ssa(dp1019
g39
S"<class 'gpi.widgets.ExclusivePushButtons'>"
p1020
sg41
S'Dimension'
p1021
sg43
(dp1022
S'outport'
p1023
I00
sS'quietval'
p1024
Nsg47
I1
sS'collapsed'
p1025
I00
sS'inport'
p1026
I00
sS'visible'
p1027
I01
sS'id'
p1028
I90220096
ssa(dp1029
g39
S"<class 'gpi.widgets.PushButton'>"
p1030
sg41
S'Span Entire Dimension'
p1031
sg43
(dp1032
S'outport'
p1033
I00
sS'quietval'
p1034
Nsg47
I01
sS'collapsed'
p1035
I00
sS'inport'
p1036
I00
sS'visible'
p1037
I01
sS'toggle'
p1038
I01
sS'button_title'
p1039
g200
sS'id'
p1040
I90221008
ssa(dp1041
g39
S"<class 'gpi.widgets.Slider'>"
p1042
sg41
S'Dimension Start_Index'
p1043
sg43
(dp1044
S'outport'
p1045
I00
sS'quietval'
p1046
Nsg47
I0
sS'min'
p1047
I0
sS'max'
p1048
I256
sS'collapsed'
p1049
I00
sS'inport'
p1050
I00
sS'visible'
p1051
I00
sS'id'
p1052
I90221768
ssa(dp1053
g39
S"<class 'gpi.widgets.Slider'>"
p1054
sg41
S'Dimension Stop_Index'
p1055
sg43
(dp1056
S'outport'
p1057
I00
sS'quietval'
p1058
Nsg47
I0
sS'min'
p1059
I0
sS'max'
p1060
I256
sS'collapsed'
p1061
I00
sS'inport'
p1062
I00
sS'visible'
p1063
I00
sS'id'
p1064
I90223128
ssasg214
g215
ssg216
S'0.110433530808'
p1065
sg41
S'Collapse'
p1066
sg219
(lp1067
F-164.93748720095772
aF-94.54467797023445
asg221
(lp1068
(dp1069
g224
g225
sg226
I0
sg227
(lp1070
(dp1071
g230
(dp1072
g232
g225
sg233
I90224344
sg234
I0
sg235
I90188240
ssg236
(dp1073
g232
g244
sg233
I93111416
sg234
I0
sg235
I93076224
ssasg239
Nsg240
I65540
sg241
I100
sg242
I90224344
sa(dp1074
g224
S'out1'
p1075
sg226
I0
sg227
(lp1076
(dp1077
g230
(dp1078
g232
g225
sg233
I79776968
sg234
I0
sg235
I78057256
ssg236
(dp1079
g232
g1075
sg233
I90224496
sg234
I0
sg235
I90188240
ssasg239
Nsg240
I65541
sg241
Nsg242
I90224496
sa(dp1080
g224
g370
sg226
I1
sg227
(lp1081
sg239
Nsg240
I65541
sg241
Nsg242
I90224648
sasg253
S'0.00644726485791'
p1082
sg255
S'core.math.Collapse'
p1083
sg242
I90188240
sg257
S'0.110112905502'
p1084
sa(dp1085
g34
(dp1086
g36
(lp1087
(dp1088
g39
S"<class 'gpi.widgets.ExclusivePushButtons'>"
p1089
sg41
g574
sg43
(dp1090
S'outport'
p1091
I00
sS'quietval'
p1092
Nsg47
I0
sS'collapsed'
p1093
I00
sS'inport'
p1094
I00
sS'visible'
p1095
I01
sS'id'
p1096
I87201040
ssa(dp1097
g39
S"<class 'gpi.widgets.ExclusiveRadioButtons'>"
p1098
sg41
g264
sg43
(dp1099
S'outport'
p1100
I00
sS'quietval'
p1101
Nsg47
I2
sS'collapsed'
p1102
I00
sS'inport'
p1103
I00
sS'visible'
p1104
I01
sS'id'
p1105
I87201800
ssa(dp1106
g39
S"<class 'gpi.widgets.DoubleSpinBox'>"
p1107
sg41
g274
sg43
(dp1108
S'outport'
p1109
I00
sS'quietval'
p1110
Nsg47
F1.0
sS'min'
p1111
F-1.7976931348623157e+308
sS'max'
p1112
F1.7976931348623157e+308
sS'collapsed'
p1113
I00
sS'wrapping'
p1114
I00
sS'immediate'
p1115
I00
sS'label'
p1116
g200
sS'singlestep'
p1117
F1.0
sS'visible'
p1118
I00
sS'inport'
p1119
I00
sS'decimals'
p1120
I5
sS'id'
p1121
I87206048
ssa(dp1122
g39
S"<class 'gpi.widgets.PushButton'>"
p1123
sg41
g291
sg43
(dp1124
S'outport'
p1125
I00
sS'quietval'
p1126
Nsg47
I01
sS'collapsed'
p1127
I00
sS'inport'
p1128
I00
sS'visible'
p1129
I01
sS'toggle'
p1130
I01
sS'button_title'
p1131
g200
sS'id'
p1132
I87206960
ssasg214
g215
ssg216
S'0.126436257362'
p1133
sg41
S'Math'
p1134
sg219
(lp1135
F94.06251279904228
aF195.45532202976557
asg221
(lp1136
(dp1137
g224
g306
sg226
I0
sg227
(lp1138
(dp1139
g230
(dp1140
g232
g306
sg233
I87207720
sg234
I0
sg235
I87173888
ssg236
(dp1141
g232
g244
sg233
I87258536
sg234
I0
sg235
I87251560
ssasg239
Nsg240
I65540
sg241
I200
sg242
I87207720
sa(dp1142
g224
g312
sg226
I1
sg227
(lp1143
(dp1144
g230
(dp1145
g232
g312
sg233
I87208016
sg234
I1
sg235
I87173888
ssg236
(dp1146
g232
g244
sg233
I90075672
sg234
I0
sg235
I90067632
ssasg239
Nsg240
I65540
sg241
I200
sg242
I87208016
sa(dp1147
g224
g244
sg226
I0
sg227
(lp1148
(dp1149
g230
(dp1150
g232
g225
sg233
I96209512
sg234
I0
sg235
I96153080
ssg236
(dp1151
g232
g244
sg233
I87208168
sg234
I0
sg235
I87173888
ssasg239
Nsg240
I65541
sg241
Nsg242
I87208168
sasg253
S'0.0178531851092'
p1152
sg255
S'core.math.Math'
p1153
sg242
I87173888
sg257
S'0.128271818161'
p1154
sa(dp1155
g34
(dp1156
g36
(lp1157
(dp1158
g39
S"<class 'gpi.widgets.ExclusiveRadioButtons'>"
p1159
sg41
g264
sg43
(dp1160
S'outport'
p1161
I00
sS'quietval'
p1162
Nsg47
I2
sS'collapsed'
p1163
I00
sS'inport'
p1164
I00
sS'visible'
p1165
I01
sS'id'
p1166
I96019576
ssa(dp1167
g39
S"<class 'gpi.widgets.DoubleSpinBox'>"
p1168
sg41
g274
sg43
(dp1169
S'outport'
p1170
I00
sS'quietval'
p1171
Nsg47
F-1.40625
sS'min'
p1172
F-1.7976931348623157e+308
sS'max'
p1173
F1.7976931348623157e+308
sS'collapsed'
p1174
I00
sS'wrapping'
p1175
I00
sS'immediate'
p1176
I00
sS'label'
p1177
g200
sS'singlestep'
p1178
F1.0
sS'visible'
p1179
I01
sS'inport'
p1180
I00
sS'decimals'
p1181
I5
sS'id'
p1182
I96021248
ssa(dp1183
g39
S"<class 'gpi.widgets.PushButton'>"
p1184
sg41
g291
sg43
(dp1185
S'outport'
p1186
I00
sS'quietval'
p1187
Nsg47
I01
sS'collapsed'
p1188
I00
sS'inport'
p1189
I00
sS'visible'
p1190
I01
sS'toggle'
p1191
I01
sS'button_title'
p1192
g200
sS'id'
p1193
I96022160
ssasg214
g215
ssg216
S'0.109493637085'
p1194
sg41
g302
sg219
(lp1195
F-164.93748720095772
aF-4.544677970234446
asg221
(lp1196
(dp1197
g224
g306
sg226
I0
sg227
(lp1198
(dp1199
g230
(dp1200
g232
g306
sg233
I96023064
sg234
I0
sg235
I95996520
ssg236
(dp1201
g232
g244
sg233
I96092544
sg234
I0
sg235
I96061600
ssasg239
Nsg240
I65540
sg241
I200
sg242
I96023064
sa(dp1202
g224
g312
sg226
I1
sg227
(lp1203
sg239
Nsg240
I65540
sg241
I200
sg242
I96023216
sa(dp1204
g224
g244
sg226
I0
sg227
(lp1205
(dp1206
g230
(dp1207
g232
g306
sg233
I90249072
sg234
I0
sg235
I90243152
ssg236
(dp1208
g232
g244
sg233
I96023368
sg234
I0
sg235
I95996520
ssasg239
Nsg240
I65541
sg241
Nsg242
I96023368
sasg253
S'0.00800767099311'
p1209
sg255
g321
sg242
I95996520
sg257
S'0.10676908493'
p1210
sa(dp1211
g34
(dp1212
g36
(lp1213
(dp1214
g39
S"<class 'gpi.widgets.TextBox'>"
p1215
sg41
S'I/O Info:'
p1216
sg43
(dp1217
S'outport'
p1218
I00
sS'quietval'
p1219
Nsg47
S'created: 21/08/2014\naccessed: 21/08/2014\nmodified: 21/08/2014\nUID: 1001\nGID: 1001\nfile size (bytes): 1050720\nv7.3+ Matlab file (HDF5)\n'
p1220
sS'collapsed'
p1221
I00
sS'inport'
p1222
I00
sS'visible'
p1223
I01
sS'wordwrap'
p1224
I00
sS'id'
p1225
I90069912
ssa(dp1226
g39
S"<class 'gpi.widgets.OpenFileBrowser'>"
p1227
sg41
S'File Browser'
p1228
sg43
(dp1229
S'outport'
p1230
I00
sS'quietval'
p1231
Nsg47
S'/opt/gpi/doc/Examples/eddycurrents.mat'
p1232
sS'collapsed'
p1233
I00
sS'inport'
p1234
I00
sS'visible'
p1235
I01
sS'id'
p1236
I90070216
ssa(dp1237
g39
S"<class 'gpi.widgets.ComboBox'>"
p1238
sg41
S'dataset'
p1239
sg43
(dp1240
S'index'
p1241
I0
sS'outport'
p1242
I00
sS'quietval'
p1243
Nsg47
S'gpidata'
p1244
sS'items'
p1245
(lp1246
S'gpidata'
p1247
asS'collapsed'
p1248
I00
sS'inport'
p1249
I00
sS'visible'
p1250
I01
sS'id'
p1251
I90075216
ssasg214
g215
ssg216
S'0.131984806061'
p1252
sg41
S'ReadMatlab'
p1253
sg219
(lp1254
F-4.377689720852402
aF-285.48013933963614
asg221
(lp1255
(dp1256
g224
g244
sg226
I0
sg227
(lp1257
(dp1258
g230
(dp1259
g232
g225
sg233
I84741472
sg234
I0
sg235
I78624168
ssg236
(dp1260
g232
g244
sg233
I90075672
sg234
I0
sg235
I90067632
ssa(dp1261
g230
(dp1262
g232
g312
sg233
I96059472
sg234
I1
sg235
I96025344
ssg236
(dp1263
g232
g244
sg233
I90075672
sg234
I0
sg235
I90067632
ssa(dp1264
g230
(dp1265
g232
g312
sg233
I87208016
sg234
I1
sg235
I87173888
ssg236
(dp1266
g232
g244
sg233
I90075672
sg234
I0
sg235
I90067632
ssa(dp1267
g230
(dp1268
g232
g225
sg233
I87171608
sg234
I0
sg235
I87135504
ssg236
(dp1269
g232
g244
sg233
I90075672
sg234
I0
sg235
I90067632
ssa(dp1270
g230
(dp1271
g232
g225
sg233
I96150952
sg234
I0
sg235
I96094520
ssg236
(dp1272
g232
g244
sg233
I90075672
sg234
I0
sg235
I90067632
ssasg239
Nsg240
I65541
sg241
Nsg242
I90075672
sasg253
S'0.011588476617'
p1273
sg255
S'core.fileIO.ReadMatlab'
p1274
sg242
I90067632
sg257
S'0.140835046768'
p1275
sa(dp1276
g34
(dp1277
g36
(lp1278
(dp1279
g39
S"<class 'gpi.widgets.ExclusivePushButtons'>"
p1280
sg41
S'R I M P'
p1281
sg43
(dp1282
S'outport'
p1283
I00
sS'quietval'
p1284
Nsg47
I2
sS'collapsed'
p1285
I00
sS'inport'
p1286
I00
sS'visible'
p1287
I01
sS'id'
p1288
I93103376
ssa(dp1289
g39
S"<class 'gpi.widgets.ExclusivePushButtons'>"
p1290
sg41
S'Units'
p1291
sg43
(dp1292
S'outport'
p1293
I00
sS'quietval'
p1294
Nsg47
I1
sS'collapsed'
p1295
I00
sS'inport'
p1296
I00
sS'visible'
p1297
I00
sS'id'
p1298
I93104288
ssa(dp1299
g39
S"<class 'gpi.widgets.PushButton'>"
p1300
sg41
S'UnWrap'
p1301
sg43
(dp1302
S'outport'
p1303
I00
sS'quietval'
p1304
Nsg47
I00
sS'collapsed'
p1305
I00
sS'inport'
p1306
I00
sS'visible'
p1307
I00
sS'toggle'
p1308
I01
sS'button_title'
p1309
g200
sS'id'
p1310
I93105048
ssa(dp1311
g39
S"<class 'gpi.widgets.Slider'>"
p1312
sg41
S'UnWrap Dimension'
p1313
sg43
(dp1314
S'outport'
p1315
I00
sS'quietval'
p1316
Nsg47
I0
sS'min'
p1317
I-2
sS'max'
p1318
I1
sS'collapsed'
p1319
I00
sS'inport'
p1320
I00
sS'visible'
p1321
I00
sS'id'
p1322
I93105808
ssasg214
g215
ssg216
S'0.147694158554'
p1323
sg41
S'RIMP'
p1324
sg219
(lp1325
F-164.93748720095772
aF-124.54467797023445
asg221
(lp1326
(dp1327
g224
g225
sg226
I0
sg227
(lp1328
(dp1329
g230
(dp1330
g232
g225
sg233
I93111264
sg234
I0
sg235
I93076224
ssg236
(dp1331
g232
g244
sg233
I84741624
sg234
I0
sg235
I78624168
ssasg239
Nsg240
I65540
sg241
I100
sg242
I93111264
sa(dp1332
g224
g244
sg226
I0
sg227
(lp1333
(dp1334
g230
(dp1335
g232
g225
sg233
I90224344
sg234
I0
sg235
I90188240
ssg236
(dp1336
g232
g244
sg233
I93111416
sg234
I0
sg235
I93076224
ssasg239
Nsg240
I65541
sg241
Nsg242
I93111416
sasg253
S'0.00915313681163'
p1337
sg255
S'core.math.RIMP'
p1338
sg242
I93076224
sg257
S'0.136675834656'
p1339
sa(dp1340
g34
(dp1341
g36
(lp1342
(dp1343
g39
S"<class '/opt/gpi/lib/core/display/GPI/Matplotlib_GPI.MatplotDisplay'>"
p1344
sg41
S'Plot'
p1345
sg43
(dp1346
S'outport'
p1347
I00
sS'quietval'
p1348
Nsg47
(lp1349
cnumpy.core.multiarray
_reconstruct
p1350
(cnumpy
ndarray
p1351
(I0
tp1352
S'b'
p1353
tp1354
Rp1355
(I1
(I180
tp1356
cnumpy
dtype
p1357
(S'f8'
p1358
I0
I1
tp1359
Rp1360
(I3
S'<'
p1361
NNNI-1
I-1
I0
tp1362
bI00
S'\x00\x00\x00\x00\x00\x00\x00\x00\x00\x00\x00\x00\x00\x00\x00\x00w\x08\x9a\x00\x00\x00f\xc0Q\x1f \x00\x00\xc0e\xc0\xcc\xb80\xff\xff\x7fe\xc0D\x02h\xff\xff?e\xc0\x18\xdcL\x01\x00\x00e\xc0\xfb\x1bQ\xff\xff\xbfd\xc0\xdd\x9d}\xff\xff\x7fd\xc0\xc5T\xf1\xff\xff?d\xc0\xb2\xfd\x9d\xfe\xff\xffc\xc0[4\x15\x02\x00\xc0c\xc0\xcbF\xbd\xfe\xff\x7fc\xc0\xef\xbe\xed\xff\xff?c\xc0]\x1a5\xfd\xff\xffb\xc0\x88\xef\x10\xff\xff\xbfb\xc0\xca\x83j\xff\xff\x7fb\xc0;\xaf\x0b\xff\xff?b\xc0G\x0fc\x01\x00\x00b\xc0\xb8\x1f%\xff\xff\xbfa\xc0\xeaW<\xfd\xff\x7fa\xc0\xa3YA\xfd\xff?a\xc0\x080\x88\xfc\xff\xff`\xc0\xf8\xcfw\x03\x00\xc0`\xc0^\xa6\xbe\x02\x00\x80`\xc0\x15\xa8\xc3\x02\x00@`\xc0I\xe0\xda\x00\x00\x00`\xc0p\xe19\xfd\xff\x7f_\xc0\x8b\xa1\xe8\x01\x00\x00_\xc0n\xf8*\x01\x00\x80^\xc0\xf2 \xde\x01\x00\x00^\xc0F\xcb\x95\x05\x00\x80]\xc0&\x82$\x00\x00\x00]\xc0ir\x85\x02\x00\x80\\\xc0L\x97\xd5\xfb\xff\xff[\xc0\x98\x04\xc4\x02\x00\x80[\xc0uV\x1d\x00\x00\x00[\xc0G\xc4\x04\x01\x00\x80Z\xc0\x0e\xc8]\x01\x00\x00Z\xc0\xcdGf\xfd\xff\x7fY\xc0x\xfb/\x01\x00\x00Y\xc0j\x8e\x9e\x01\x00\x80X\xc0`\xc1\xbf\xff\xff\xffW\xc0\x14\xef\xcb\xfe\xff\x7fW\xc0a\xa4\x9b\xff\xff\xffV\xc0\x00\x00\x00\x00\x00\x80V\xc0\xa0[d\x00\x00\x00V\xc0\xed\x104\x01\x00\x80U\xc0\xa0>@\x00\x00\x00U\xc0\x96qa\xfe\xff\x7fT\xc0\x88\x04\xd0\xfe\xff\xffS\xc03\xb8\x99\x02\x00\x80S\xc0\xf37\xa2\xfe\xff\xffR\xc0\xb9;\xfb\xfe\xff\x7fR\xc0\x89\xa9\xe2\xff\xff\xffQ\xc0d\xfb;\xfd\xff\x7fQ\xc0\xb5h*\x04\x00\x00Q\xc0\x97\x8dz\xfd\xff\x7fP\xc0\xbb\xfb\xb6\xff\xff\xffO\xc0vi\xd4\xf4\xff\xffN\xc0"\xbeC\xfc\xff\xffM\xc0%\x0f\xaa\xfd\xff\xffL\xc0\xef\xbc.\xfc\xff\xffK\xc0\x1e=\x8c\x05\x00\x00K\xc0\xd7~\x94\xfc\xff\xffI\xc0\xab_\xf1\xf4\xff\xffH\xc0\x95f\x05\xf5\xff\xffG\xc0 \xc0 \xf2\xff\xffF\xc0\xe0?\xdf\r\x00\x00F\xc0h\x99\xfa\n\x00\x00E\xc0X\xa0\x0e\x0b\x00\x00D\xc0%\x81k\x03\x00\x00C\xc0\xe8\xc2s\xfa\xff\xffA\xc0\x0cC\xd1\x03\x00\x00A\xc0\xd4\xf0U\x02\x00\x00@\xc0\xd9\x83x\x07\x00\x00>\xc0\x17-W\x16\x00\x00<\xc0|\x08\x92\x00\x00\x00:\xc0\xca\xc9\x15\n\x00\x008\xc0O]V\xef\xff\xff5\xc0e\x12\x10\x0b\x00\x004\xc0\xccYu\x00\x00\x002\xc0\x1c\x11\x13\x04\x00\x000\xc0I@\xee\n\x00\x00,\xc0\x87>2\xeb\xff\xff\'\xc0\xbf\xdb\x7f\t\x00\x00$\xc0?s\xf4\x0c\x00\x00 \xc0\xf5\x15\xfc\xfb\xff\xff\x17\xc0\x88\xe2}\xd9\xff\xff\x0f\xc0-\x18\xe9\xe6\xff\xff\xff\xbf\x00\x00\x00\x00\x00\x00\x00\x00/\x18\xe9\xe6\xff\xff\xff?\x88\xe2}\xd9\xff\xff\x0f@\xf4\x15\xfc\xfb\xff\xff\x17@Fs\xf4\x0c\x00\x00 @\xbf\xdb\x7f\t\x00\x00$@q>2\xeb\xff\xff\'@j@\xee\n\x00\x00,@\x1c\x11\x13\x04\x00\x000@\xdaYu\x00\x00\x002@s\x12\x10\x0b\x00\x004@L]V\xef\xff\xff5@\xc2\xc9\x15\n\x00\x008@\x80\x08\x92\x00\x00\x00:@\x14-W\x16\x00\x00<@\xd0\x83x\x07\x00\x00>@\xcf\xf0U\x02\x00\x00@@\tC\xd1\x03\x00\x00A@\xec\xc2s\xfa\xff\xffA@"\x81k\x03\x00\x00C@b\xa0\x0e\x0b\x00\x00D@h\x99\xfa\n\x00\x00E@\xe0?\xdf\r\x00\x00F@ \xc0 \xf2\xff\xffF@\x93f\x05\xf5\xff\xffG@\xaa_\xf1\xf4\xff\xffH@\xdc~\x94\xfc\xff\xffI@\x1f=\x8c\x05\x00\x00K@\xec\xbc.\xfc\xff\xffK@%\x0f\xaa\xfd\xff\xffL@!\xbeC\xfc\xff\xffM@vi\xd4\xf4\xff\xffN@\xb8\xfb\xb6\xff\xff\xffO@\x99\x8dz\xfd\xff\x7fP@\xb6h*\x04\x00\x00Q@d\xfb;\xfd\xff\x7fQ@\x89\xa9\xe2\xff\xff\xffQ@\xb9;\xfb\xfe\xff\x7fR@\xf27\xa2\xfe\xff\xffR@3\xb8\x99\x02\x00\x80S@\x89\x04\xd0\xfe\xff\xffS@\x96qa\xfe\xff\x7fT@\x9f>@\x00\x00\x00U@\xed\x104\x01\x00\x80U@\xa0[d\x00\x00\x00V@\x00\x00\x00\x00\x00\x80V@a\xa4\x9b\xff\xff\xffV@\x14\xef\xcb\xfe\xff\x7fW@a\xc1\xbf\xff\xff\xffW@i\x8e\x9e\x01\x00\x80X@x\xfb/\x01\x00\x00Y@\xcdGf\xfd\xff\x7fY@\n\xc8]\x01\x00\x00Z@G\xc4\x04\x01\x00\x80Z@uV\x1d\x00\x00\x00[@\x98\x04\xc4\x02\x00\x80[@L\x97\xd5\xfb\xff\xff[@hr\x85\x02\x00\x80\\@&\x82$\x00\x00\x00]@F\xcb\x95\x05\x00\x80]@\xf1 \xde\x01\x00\x00^@n\xf8*\x01\x00\x80^@\x8c\xa1\xe8\x01\x00\x00_@r\xe19\xfd\xff\x7f_@I\xe0\xda\x00\x00\x00`@\x16\xa8\xc3\x02\x00@`@^\xa6\xbe\x02\x00\x80`@\xf8\xcfw\x03\x00\xc0`@\x080\x88\xfc\xff\xff`@\xa3YA\xfd\xff?a@\xeaW<\xfd\xff\x7fa@\xb8\x1f%\xff\xff\xbfa@G\x0fc\x01\x00\x00b@;\xaf\x0b\xff\xff?b@\xca\x83j\xff\xff\x7fb@\x88\xef\x10\xff\xff\xbfb@^\x1a5\xfd\xff\xffb@\xef\xbe\xed\xff\xff?c@\xcbF\xbd\xfe\xff\x7fc@[4\x15\x02\x00\xc0c@\xb2\xfd\x9d\xfe\xff\xffc@\xc5T\xf1\xff\xff?d@\xdd\x9d}\xff\xff\x7fd@\xfb\x1bQ\xff\xff\xbfd@\x18\xdcL\x01\x00\x00e@D\x02h\xff\xff?e@\xcc\xb80\xff\xff\x7fe@Q\x1f \x00\x00\xc0e@\x00\x00\x00\x00\x00\x00\x00\x00\x00\x00\x00\x00\x00\x00\x00\x00'
p1363
tp1364
bag1350
(g1351
(I0
tp1365
g1353
tp1366
Rp1367
(I1
(I180
tp1368
g1357
(S'f8'
p1369
I0
I1
tp1370
Rp1371
(I3
S'<'
p1372
NNNI-1
I-1
I0
tp1373
bI00
S'\r\xdb\xder\xd6\te\xc0f-\xf2\xa4\x02\xced\xc0\xbe\x7f\x05\xd7.\x92d\xc0\x17\xd2\x18\t[Vd\xc0o$,;\x87\x1ad\xc0\xc8v?m\xb3\xdec\xc0 \xc9R\x9f\xdf\xa2c\xc0y\x1bf\xd1\x0bgc\xc0\xd2my\x038+c\xc0*\xc0\x8c5d\xefb\xc0\x83\x12\xa0g\x90\xb3b\xc0\xdbd\xb3\x99\xbcwb\xc04\xb7\xc6\xcb\xe8;b\xc0\x8c\t\xda\xfd\x14\x00b\xc0\xe5[\xed/A\xc4a\xc0>\xae\x00bm\x88a\xc0\x96\x00\x14\x94\x99La\xc0\xefR\'\xc6\xc5\x10a\xc0H\xa5:\xf8\xf1\xd4`\xc0\xa0\xf7M*\x1e\x99`\xc0\xf8Ia\\J]`\xc0Q\x9ct\x8ev!`\xc0T\xdd\x0f\x81E\xcb_\xc0\x04\x826\xe5\x9dS_\xc0\xb6&]I\xf6\xdb^\xc0g\xcb\x83\xadNd^\xc0\x18p\xaa\x11\xa7\xec]\xc0\xc9\x14\xd1u\xfft]\xc0z\xb9\xf7\xd9W\xfd\\\xc0,^\x1e>\xb0\x85\\\xc0\xdc\x02E\xa2\x08\x0e\\\xc0\x8e\xa7k\x06a\x96[\xc0?L\x92j\xb9\x1e[\xc0\xf0\xf0\xb8\xce\x11\xa7Z\xc0\xa2\x95\xdf2j/Z\xc0R:\x06\x97\xc2\xb7Y\xc0\x04\xdf,\xfb\x1a@Y\xc0\xb5\x83S_s\xc8X\xc0f(z\xc3\xcbPX\xc0\x17\xcd\xa0\'$\xd9W\xc0\xc8q\xc7\x8b|aW\xc0y\x16\xee\xef\xd4\xe9V\xc0+\xbb\x14T-rV\xc0\xdc_;\xb8\x85\xfaU\xc0\x8d\x04b\x1c\xde\x82U\xc0>\xa9\x88\x806\x0bU\xc0\xefM\xaf\xe4\x8e\x93T\xc0\xa0\xf2\xd5H\xe7\x1bT\xc0R\x97\xfc\xac?\xa4S\xc0\x03<#\x11\x98,S\xc0\xb4\xe0Iu\xf0\xb4R\xc0e\x85p\xd9H=R\xc0\x16*\x97=\xa1\xc5Q\xc0\xc7\xce\xbd\xa1\xf9MQ\xc0xs\xe4\x05R\xd6P\xc0*\x18\x0bj\xaa^P\xc0\xb6yc\x9c\x05\xceO\xc0\x18\xc3\xb0d\xb6\xdeN\xc0z\x0c\xfe,g\xefM\xc0\xdcUK\xf5\x17\x00M\xc0>\x9f\x98\xbd\xc8\x10L\xc0\xa2\xe8\xe5\x85y!K\xc0\x0423N*2J\xc0f{\x80\x16\xdbBI\xc0\xc8\xc4\xcd\xde\x8bSH\xc0*\x0e\x1b\xa7<dG\xc0\x8cWho\xedtF\xc0\xee\xa0\xb57\x9e\x85E\xc0R\xea\x02\x00O\x96D\xc0\xb43P\xc8\xff\xa6C\xc0\x14}\x9d\x90\xb0\xb7B\xc0x\xc6\xeaXa\xc8A\xc0\xdc\x0f8!\x12\xd9@\xc0x\xb2\n\xd3\x85\xd3?\xc0@E\xa5c\xe7\xf4=\xc0\x00\xd8?\xf4H\x16<\xc0\xc8j\xda\x84\xaa7:\xc0\x90\xfdt\x15\x0cY8\xc0P\x90\x0f\xa6mz6\xc0\x18#\xaa6\xcf\x9b4\xc0\xd8\xb5D\xc70\xbd2\xc0\xa0H\xdfW\x92\xde0\xc0\xc0\xb6\xf3\xd0\xe7\xff-\xc0P\xdc(\xf2\xaaB*\xc0\xe0\x01^\x13n\x85&\xc0`\'\x9341\xc8"\xc0\xe0\x99\x90\xab\xe8\x15\x1e\xc0\xe0\xe4\xfa\xedn\x9b\x16\xc0\x00`\xca`\xeaA\x0e\xc0\x00\xec=\xcb\xed\x99\xfe\xbf\x00\x10\xe3\x9c\xda\x00\xa6\xbf\x00\xbbo!\xe09\xfd?\x80G\xe3\x8b\xe3\x91\r@\xa0X\x87\x83kC\x16@\xa0\r\x1dA\xe5\xbd\x1d@@aY\x7f/\x9c"@\xb0;$^lY&@0\x16\xef<\xa9\x16*@\xa0\xf0\xb9\x1b\xe6\xd3-@\x90eB}\x91\xc80@\xc8\xd2\xa7\xec/\xa72@\x08@\r\\\xce\x854@@\xadr\xcbld6@x\x1a\xd8:\x0bC8@\xb8\x87=\xaa\xa9!:@\xf0\xf4\xa2\x19H\x00<@0b\x08\x89\xe6\xde=@h\xcfm\xf8\x84\xbd?@T\x9e\xe9\xb3\x11\xce@@\xf0T\x9c\xeb`\xbdA@\x8c\x0bO#\xb0\xacB@,\xc2\x01[\xff\x9bC@\xc8x\xb4\x92N\x8bD@h/g\xca\x9dzE@\x04\xe6\x19\x02\xediF@\xa4\x9c\xcc9<YG@@S\x7fq\x8bHH@\xdc\t2\xa9\xda7I@|\xc0\xe4\xe0)\'J@\x18w\x97\x18y\x16K@\xb8-JP\xc8\x05L@T\xe4\xfc\x87\x17\xf5L@\xf0\x9a\xaf\xbff\xe4M@\x90Qb\xf7\xb5\xd3N@,\x08\x15/\x05\xc3O@f\xdfc3*YP@\xb4:=\xcf\xd1\xd0P@\x04\x96\x16kyHQ@R\xf1\xef\x06!\xc0Q@\xa0L\xc9\xa2\xc87R@\xf0\xa7\xa2>p\xafR@>\x03|\xda\x17\'S@\x8e^Uv\xbf\x9eS@\xdc\xb9.\x12g\x16T@,\x15\x08\xae\x0e\x8eT@zp\xe1I\xb6\x05U@\xc8\xcb\xba\xe5]}U@\x16\'\x94\x81\x05\xf5U@f\x82m\x1d\xadlV@\xb6\xddF\xb9T\xe4V@\x069 U\xfc[W@R\x94\xf9\xf0\xa3\xd3W@\xa2\xef\xd2\x8cKKX@\xf2J\xac(\xf3\xc2X@>\xa6\x85\xc4\x9a:Y@\x8e\x01_`B\xb2Y@\xde\\8\xfc\xe9)Z@.\xb8\x11\x98\x91\xa1Z@z\x13\xeb39\x19[@\xcan\xc4\xcf\xe0\x90[@\x1a\xca\x9dk\x88\x08\\@f%w\x070\x80\\@\xb6\x80P\xa3\xd7\xf7\\@\x06\xdc)?\x7fo]@R7\x03\xdb&\xe7]@\xa2\x92\xdcv\xce^^@\xf2\xed\xb5\x12v\xd6^@BI\x8f\xae\x1dN_@\x8e\xa4hJ\xc5\xc5_@\xef\xff s\xb6\x1e`@\x97\xad\rA\x8aZ`@=[\xfa\x0e^\x96`@\xe5\x08\xe7\xdc1\xd2`@\x8d\xb6\xd3\xaa\x05\x0ea@5d\xc0x\xd9Ia@\xdb\x11\xadF\xad\x85a@\x83\xbf\x99\x14\x81\xc1a@+m\x86\xe2T\xfda@\xd1\x1as\xb0(9b@y\xc8_~\xfctb@!vLL\xd0\xb0b@\xc9#9\x1a\xa4\xecb@o\xd1%\xe8w(c@\x17\x7f\x12\xb6Kdc@\xbf,\xff\x83\x1f\xa0c@e\xda\xebQ\xf3\xdbc@\r\x88\xd8\x1f\xc7\x17d@\xb55\xc5\xed\x9aSd@]\xe3\xb1\xbbn\x8fd@\x03\x91\x9e\x89B\xcbd@'
p1374
tp1375
basS'collapsed'
p1376
I00
sS'inport'
p1377
I00
sS'visible'
p1378
I01
sS'id'
p1379
I78466248
ssasg214
g215
ssg216
S'0.105181246996'
p1380
sg41
S'Matplotlib'
p1381
sg219
(lp1382
F104.06251279904228
aF18.45532202976554
asg221
(lp1383
(dp1384
g224
g559
sg226
I0
sg227
(lp1385
(dp1386
g230
(dp1387
g232
g559
sg233
I78477168
sg234
I0
sg235
I78463816
ssg236
(dp1388
g232
g244
sg233
I87129136
sg234
I0
sg235
I87037200
ssasg239
Nsg240
I65540
sg241
I200
sg242
I78477168
sa(dp1389
g224
g947
sg226
I1
sg227
(lp1390
(dp1391
g230
(dp1392
g232
g947
sg233
I78477320
sg234
I1
sg235
I78463816
ssg236
(dp1393
g232
g943
sg233
I90150768
sg234
I0
sg235
I90085688
ssasg239
Nsg240
I65540
sg241
I200
sg242
I78477320
sa(dp1394
g224
S'in2'
p1395
sg226
I2
sg227
(lp1396
sg239
Nsg240
I65540
sg241
I200
sg242
I78477472
sa(dp1397
g224
S'in3'
p1398
sg226
I3
sg227
(lp1399
sg239
Nsg240
I65540
sg241
I200
sg242
I78477624
sa(dp1400
g224
S'in4'
p1401
sg226
I4
sg227
(lp1402
sg239
Nsg240
I65540
sg241
I200
sg242
I78477776
sa(dp1403
g224
S'in5'
p1404
sg226
I5
sg227
(lp1405
sg239
Nsg240
I65540
sg241
I200
sg242
I78477928
sa(dp1406
g224
S'in6'
p1407
sg226
I6
sg227
(lp1408
sg239
Nsg240
I65540
sg241
I200
sg242
I78478080
sa(dp1409
g224
S'in7'
p1410
sg226
I7
sg227
(lp1411
sg239
Nsg240
I65540
sg241
I200
sg242
I78478232
sasg253
S'0.00464895202307'
p1412
sg255
S'core.display.Matplotlib'
p1413
sg242
I78463816
sg257
S'0.109917163849'
p1414
sa(dp1415
g34
(dp1416
g36
(lp1417
(dp1418
g39
S"<class 'gpi.widgets.ExclusivePushButtons'>"
p1419
sg41
S'R I M P'
p1420
sg43
(dp1421
S'outport'
p1422
I00
sS'quietval'
p1423
Nsg47
I3
sS'collapsed'
p1424
I00
sS'inport'
p1425
I00
sS'visible'
p1426
I01
sS'id'
p1427
I99153320
ssa(dp1428
g39
S"<class 'gpi.widgets.ExclusivePushButtons'>"
p1429
sg41
g1291
sg43
(dp1430
S'outport'
p1431
I00
sS'quietval'
p1432
Nsg47
I0
sS'collapsed'
p1433
I00
sS'inport'
p1434
I00
sS'visible'
p1435
I01
sS'id'
p1436
I99154232
ssa(dp1437
g39
S"<class 'gpi.widgets.PushButton'>"
p1438
sg41
g1301
sg43
(dp1439
S'outport'
p1440
I00
sS'quietval'
p1441
Nsg47
I01
sS'collapsed'
p1442
I00
sS'inport'
p1443
I00
sS'visible'
p1444
I01
sS'toggle'
p1445
I01
sS'button_title'
p1446
g200
sS'id'
p1447
I99154992
ssa(dp1448
g39
S"<class 'gpi.widgets.Slider'>"
p1449
sg41
S'UnWrap Dimension'
p1450
sg43
(dp1451
S'outport'
p1452
I00
sS'quietval'
p1453
Nsg47
I-1
sS'min'
p1454
I-1
sS'max'
p1455
I0
sS'collapsed'
p1456
I00
sS'inport'
p1457
I00
sS'visible'
p1458
I01
sS'id'
p1459
I99155752
ssasg214
g215
ssg216
S'0.110991382599'
p1460
sg41
g1324
sg219
(lp1461
F98.06251279904228
aF-133.54467797023443
asg221
(lp1462
(dp1463
g224
g225
sg226
I0
sg227
(lp1464
(dp1465
g230
(dp1466
g232
g225
sg233
I99165304
sg234
I0
sg235
I99122072
ssg236
(dp1467
g232
g1075
sg233
I87171760
sg234
I0
sg235
I87135504
ssasg239
Nsg240
I65540
sg241
I100
sg242
I99165304
sa(dp1468
g224
g244
sg226
I0
sg227
(lp1469
(dp1470
g230
(dp1471
g232
g225
sg233
I87128984
sg234
I0
sg235
I87037200
ssg236
(dp1472
g232
g244
sg233
I99165456
sg234
I0
sg235
I99122072
ssasg239
Nsg240
I65541
sg241
Nsg242
I99165456
sasg253
S'0.00868222845925'
p1473
sg255
g1338
sg242
I99122072
sg257
S'0.108281850815'
p1474
sa(dp1475
g34
(dp1476
g36
(lp1477
(dp1478
g39
S"<class 'gpi.widgets.ExclusivePushButtons'>"
p1479
sg41
g574
sg43
(dp1480
S'outport'
p1481
I00
sS'quietval'
p1482
Nsg47
I0
sS'collapsed'
p1483
I00
sS'inport'
p1484
I00
sS'visible'
p1485
I01
sS'id'
p1486
I96052496
ssa(dp1487
g39
S"<class 'gpi.widgets.ExclusiveRadioButtons'>"
p1488
sg41
g264
sg43
(dp1489
S'outport'
p1490
I00
sS'quietval'
p1491
Nsg47
I2
sS'collapsed'
p1492
I00
sS'inport'
p1493
I00
sS'visible'
p1494
I01
sS'id'
p1495
I96053256
ssa(dp1496
g39
S"<class 'gpi.widgets.DoubleSpinBox'>"
p1497
sg41
g274
sg43
(dp1498
S'outport'
p1499
I00
sS'quietval'
p1500
Nsg47
F1.0
sS'min'
p1501
F-1.7976931348623157e+308
sS'max'
p1502
F1.7976931348623157e+308
sS'collapsed'
p1503
I00
sS'wrapping'
p1504
I00
sS'immediate'
p1505
I00
sS'label'
p1506
g200
sS'singlestep'
p1507
F1.0
sS'visible'
p1508
I00
sS'inport'
p1509
I00
sS'decimals'
p1510
I5
sS'id'
p1511
I96057504
ssa(dp1512
g39
S"<class 'gpi.widgets.PushButton'>"
p1513
sg41
g291
sg43
(dp1514
S'outport'
p1515
I00
sS'quietval'
p1516
Nsg47
I01
sS'collapsed'
p1517
I00
sS'inport'
p1518
I00
sS'visible'
p1519
I01
sS'toggle'
p1520
I01
sS'button_title'
p1521
g200
sS'id'
p1522
I96058416
ssasg214
g215
ssg216
S'0.124065518379'
p1523
sg41
g1134
sg219
(lp1524
F-38.93748720095772
aF194.45532202976557
asg221
(lp1525
(dp1526
g224
g306
sg226
I0
sg227
(lp1527
(dp1528
g230
(dp1529
g232
g306
sg233
I96059176
sg234
I0
sg235
I96025344
ssg236
(dp1530
g232
g244
sg233
I87024000
sg234
I0
sg235
I84747840
ssasg239
Nsg240
I65540
sg241
I200
sg242
I96059176
sa(dp1531
g224
g312
sg226
I1
sg227
(lp1532
(dp1533
g230
(dp1534
g232
g312
sg233
I96059472
sg234
I1
sg235
I96025344
ssg236
(dp1535
g232
g244
sg233
I90075672
sg234
I0
sg235
I90067632
ssasg239
Nsg240
I65540
sg241
I200
sg242
I96059472
sa(dp1536
g224
g244
sg226
I0
sg227
(lp1537
(dp1538
g230
(dp1539
g232
g225
sg233
I93178016
sg234
I0
sg235
I93113392
ssg236
(dp1540
g232
g244
sg233
I96059624
sg234
I0
sg235
I96025344
ssasg239
Nsg240
I65541
sg241
Nsg242
I96059624
sasg253
S'0.00647313179197'
p1541
sg255
g1153
sg242
I96025344
sg257
S'0.122513055801'
p1542
sa(dp1543
g34
(dp1544
g36
(lp1545
(dp1546
g39
S"<class 'gpi.widgets.ExclusivePushButtons'>"
p1547
sg41
S'Complex Display'
p1548
sg43
(dp1549
S'outport'
p1550
I00
sS'quietval'
p1551
Nsg47
I4
sS'collapsed'
p1552
I00
sS'inport'
p1553
I00
sS'visible'
p1554
I01
sS'id'
p1555
I93140544
ssa(dp1556
g39
S"<class 'gpi.widgets.ExclusivePushButtons'>"
p1557
sg41
S'Color Map'
p1558
sg43
(dp1559
S'outport'
p1560
I00
sS'quietval'
p1561
Nsg47
I0
sS'collapsed'
p1562
I01
sS'inport'
p1563
I00
sS'visible'
p1564
I00
sS'id'
p1565
I93141608
ssa(dp1566
g39
S"<class 'gpi.widgets.SpinBox'>"
p1567
sg41
S'Edge Pixels'
p1568
sg43
(dp1569
S'outport'
p1570
I00
sS'quietval'
p1571
Nsg47
I0
sS'min'
p1572
I0
sS'max'
p1573
I2147483647
sS'collapsed'
p1574
I00
sS'wrapping'
p1575
I00
sS'immediate'
p1576
I00
sS'label'
p1577
g200
sS'singlestep'
p1578
I1
sS'visible'
p1579
I01
sS'inport'
p1580
I00
sS'id'
p1581
I93142824
ssa(dp1582
g39
S"<class 'gpi.widgets.SpinBox'>"
p1583
sg41
S'Black Pixels'
p1584
sg43
(dp1585
S'outport'
p1586
I00
sS'quietval'
p1587
Nsg47
I0
sS'min'
p1588
I0
sS'max'
p1589
I2147483647
sS'collapsed'
p1590
I00
sS'wrapping'
p1591
I00
sS'immediate'
p1592
I00
sS'label'
p1593
g200
sS'singlestep'
p1594
I1
sS'visible'
p1595
I01
sS'inport'
p1596
I00
sS'id'
p1597
I93152072
ssa(dp1598
g39
S"<class 'gpi.widgets.DisplayBox'>"
p1599
sg41
S'Viewport:'
p1600
sg43
(dp1601
S'outport'
p1602
I00
sS'scale'
p1603
F1.0
sS'quietval'
p1604
Nsg47
NsS'collapsed'
p1605
I01
sS'interp'
p1606
I00
sS'inport'
p1607
I00
sS'visible'
p1608
I01
sS'noscroll'
p1609
I01
sS'points'
p1610
NsS'line'
p1611
NsS'id'
p1612
I93152984
ssa(dp1613
g39
S"<class '/opt/gpi/lib/core/display/GPI/ImageDisplay_GPI.WindowLevel'>"
p1614
sg41
S'L W F C:'
p1615
sg43
(dp1616
S'outport'
p1617
I00
sS'quietval'
p1618
Nsg47
(dp1619
S'window'
p1620
I100
sg65
I0
sg62
I100
sS'level'
p1621
I50
ssS'min'
p1622
I0
sS'max'
p1623
I100
sS'collapsed'
p1624
I01
sS'inport'
p1625
I00
sS'visible'
p1626
I01
sS'id'
p1627
I93167848
ssa(dp1628
g39
S"<class 'gpi.widgets.ExclusivePushButtons'>"
p1629
sg41
S'Scalar Display'
p1630
sg43
(dp1631
S'outport'
p1632
I00
sS'quietval'
p1633
Nsg47
I0
sS'collapsed'
p1634
I00
sS'inport'
p1635
I00
sS'visible'
p1636
I00
sS'id'
p1637
I93172704
ssa(dp1638
g39
S"<class 'gpi.widgets.DoubleSpinBox'>"
p1639
sg41
S'Gamma'
p1640
sg43
(dp1641
S'outport'
p1642
I00
sS'quietval'
p1643
Nsg47
F1.0
sS'min'
p1644
F0.1
sS'max'
p1645
F10.0
sS'collapsed'
p1646
I00
sS'wrapping'
p1647
I00
sS'immediate'
p1648
I00
sS'label'
p1649
g200
sS'singlestep'
p1650
F0.05
sS'visible'
p1651
I01
sS'inport'
p1652
I00
sS'decimals'
p1653
I3
sS'id'
p1654
I93173464
ssa(dp1655
g39
S"<class 'gpi.widgets.ExclusivePushButtons'>"
p1656
sg41
S'Zero Ref'
p1657
sg43
(dp1658
S'outport'
p1659
I00
sS'quietval'
p1660
Nsg47
I0
sS'collapsed'
p1661
I00
sS'inport'
p1662
I00
sS'visible'
p1663
I00
sS'id'
p1664
I93174376
ssa(dp1665
g39
S"<class 'gpi.widgets.PushButton'>"
p1666
sg41
S'Fix Range'
p1667
sg43
(dp1668
S'outport'
p1669
I00
sS'quietval'
p1670
Nsg47
I00
sS'collapsed'
p1671
I00
sS'inport'
p1672
I00
sS'visible'
p1673
I01
sS'toggle'
p1674
I01
sS'button_title'
p1675
VAuto-Range On
p1676
sS'id'
p1677
I93175288
ssa(dp1678
g39
S"<class 'gpi.widgets.DoubleSpinBox'>"
p1679
sg41
S'Range Min'
p1680
sg43
(dp1681
S'outport'
p1682
I00
sS'quietval'
p1683
Nsg47
F0.0
sS'min'
p1684
F-1.7976931348623157e+308
sS'max'
p1685
F1.7976931348623157e+308
sS'collapsed'
p1686
I00
sS'wrapping'
p1687
I00
sS'immediate'
p1688
I00
sS'label'
p1689
g200
sS'singlestep'
p1690
F1.0
sS'visible'
p1691
I00
sS'inport'
p1692
I00
sS'decimals'
p1693
I2
sS'id'
p1694
I93176192
ssa(dp1695
g39
S"<class 'gpi.widgets.DoubleSpinBox'>"
p1696
sg41
S'Range Max'
p1697
sg43
(dp1698
S'outport'
p1699
I00
sS'quietval'
p1700
Nsg47
F1.0
sS'min'
p1701
F-1.7976931348623157e+308
sS'max'
p1702
F1.7976931348623157e+308
sS'collapsed'
p1703
I00
sS'wrapping'
p1704
I00
sS'immediate'
p1705
I00
sS'label'
p1706
g200
sS'singlestep'
p1707
F1.0
sS'visible'
p1708
I01
sS'inport'
p1709
I00
sS'decimals'
p1710
I2
sS'id'
p1711
I93177104
ssasg214
g215
ssg216
S'0.0106139779091'
p1712
sg41
S'ImageDisplay'
p1713
sg219
(lp1714
F-38.93748720095772
aF224.45532202976557
asg221
(lp1715
(dp1716
g224
g225
sg226
I0
sg227
(lp1717
(dp1718
g230
(dp1719
g232
g225
sg233
I93178016
sg234
I0
sg235
I93113392
ssg236
(dp1720
g232
g244
sg233
I96059624
sg234
I0
sg235
I96025344
ssasg239
Nsg240
I65540
sg241
I100
sg242
I93178016
sa(dp1721
g224
g244
sg226
I0
sg227
(lp1722
sg239
Nsg240
I65541
sg241
Nsg242
I93178168
sasg253
S'0.000681232452638'
p1723
sg255
S'core.display.ImageDisplay'
p1724
sg242
I93113392
sg257
S'0.010479927063'
p1725
sa(dp1726
g34
(dp1727
g36
(lp1728
(dp1729
g39
S"<class 'gpi.widgets.ExclusivePushButtons'>"
p1730
sg41
S'Dimensions'
p1731
sg43
(dp1732
S'outport'
p1733
I00
sS'quietval'
p1734
Nsg47
I1
sS'collapsed'
p1735
I00
sS'inport'
p1736
I00
sS'visible'
p1737
I01
sS'id'
p1738
I95994240
ssa(dp1739
g39
S"<class 'gpi.widgets.ExclusiveRadioButtons'>"
p1740
sg41
S'Function'
p1741
sg43
(dp1742
S'outport'
p1743
I00
sS'quietval'
p1744
Nsg47
I5
sS'collapsed'
p1745
I00
sS'inport'
p1746
I00
sS'visible'
p1747
I01
sS'id'
p1748
I95995456
ssa(dp1749
g39
S"<class 'gpi.widgets.PushButton'>"
p1750
sg41
g204
sg43
(dp1751
S'outport'
p1752
I00
sS'quietval'
p1753
Nsg47
I01
sS'collapsed'
p1754
I00
sS'inport'
p1755
I00
sS'visible'
p1756
I01
sS'toggle'
p1757
I01
sS'button_title'
p1758
VON
p1759
sS'id'
p1760
I90268488
ssa(dp1761
g39
S"<class 'gpi.widgets.PushButton'>"
p1762
sg41
S'Equal Dimensions'
p1763
sg43
(dp1764
S'outport'
p1765
I00
sS'quietval'
p1766
Nsg47
I01
sS'collapsed'
p1767
I00
sS'inport'
p1768
I00
sS'visible'
p1769
I01
sS'toggle'
p1770
I01
sS'button_title'
p1771
g200
sS'id'
p1772
I90268032
ssa(dp1773
g39
S"<class '/opt/gpi/lib/core/generators/GPI/Shapes_GPI.SHAPES_GROUP'>"
p1774
sg41
S'Dimension: 1'
p1775
sg43
(dp1776
S'outport'
p1777
I00
sS'quietval'
p1778
Nsg47
(dp1779
g61
I1
sS'size'
p1780
I256
ssS'collapsed'
p1781
I00
sS'inport'
p1782
I00
sS'visible'
p1783
I01
sS'id'
p1784
I90271224
ssa(dp1785
g39
S"<class '/opt/gpi/lib/core/generators/GPI/Shapes_GPI.SHAPES_GROUP'>"
p1786
sg41
S'Dimension: 2'
p1787
sg43
(dp1788
S'outport'
p1789
I00
sS'quietval'
p1790
Nsg47
(dp1791
g61
I1
sg1780
I256
ssS'collapsed'
p1792
I00
sS'inport'
p1793
I00
sS'visible'
p1794
I00
sS'id'
p1795
I93075920
ssa(dp1796
g39
S"<class '/opt/gpi/lib/core/generators/GPI/Shapes_GPI.SHAPES_GROUP'>"
p1797
sg41
S'Dimension: 3'
p1798
sg43
(dp1799
S'outport'
p1800
I00
sS'quietval'
p1801
Nsg47
(dp1802
g61
I1
sg1780
I1
ssS'collapsed'
p1803
I00
sS'inport'
p1804
I00
sS'visible'
p1805
I00
sS'id'
p1806
I93074704
ssa(dp1807
g39
S"<class 'gpi.widgets.SpinBox'>"
p1808
sg41
S'Veclen:'
p1809
sg43
(dp1810
S'outport'
p1811
I00
sS'quietval'
p1812
Nsg47
I1
sS'min'
p1813
I1
sS'max'
p1814
I2147483647
sS'collapsed'
p1815
I00
sS'wrapping'
p1816
I00
sS'immediate'
p1817
I00
sS'label'
p1818
g200
sS'singlestep'
p1819
I1
sS'visible'
p1820
I01
sS'inport'
p1821
I00
sS'id'
p1822
I90083712
ssa(dp1823
g39
S"<class 'gpi.widgets.DoubleSpinBox'>"
p1824
sg41
S'Pass Value:'
p1825
sg43
(dp1826
S'outport'
p1827
I00
sS'quietval'
p1828
Nsg47
F1.0
sS'min'
p1829
F-1.7976931348623157e+308
sS'max'
p1830
F1.7976931348623157e+308
sS'collapsed'
p1831
I00
sS'wrapping'
p1832
I00
sS'immediate'
p1833
I00
sS'label'
p1834
g200
sS'singlestep'
p1835
F1.0
sS'visible'
p1836
I00
sS'inport'
p1837
I00
sS'decimals'
p1838
I5
sS'id'
p1839
I90084168
ssa(dp1840
g39
S"<class 'gpi.widgets.DoubleSpinBox'>"
p1841
sg41
S'Stop Value:'
p1842
sg43
(dp1843
S'outport'
p1844
I00
sS'quietval'
p1845
Nsg47
F0.0
sS'min'
p1846
F-1.7976931348623157e+308
sS'max'
p1847
F1.7976931348623157e+308
sS'collapsed'
p1848
I00
sS'wrapping'
p1849
I00
sS'immediate'
p1850
I00
sS'label'
p1851
g200
sS'singlestep'
p1852
F1.0
sS'visible'
p1853
I00
sS'inport'
p1854
I00
sS'decimals'
p1855
I5
sS'id'
p1856
I99113880
ssa(dp1857
g39
S"<class 'gpi.widgets.Slider'>"
p1858
sg41
S'Window:'
p1859
sg43
(dp1860
S'outport'
p1861
I00
sS'quietval'
p1862
Nsg47
I1
sS'min'
p1863
I0
sS'max'
p1864
I100
sS'collapsed'
p1865
I00
sS'inport'
p1866
I00
sS'visible'
p1867
I00
sS'id'
p1868
I99114792
ssa(dp1869
g39
S"<class 'gpi.widgets.DoubleSpinBox'>"
p1870
sg41
S'Poly Const:'
p1871
sg43
(dp1872
S'outport'
p1873
I00
sS'quietval'
p1874
Nsg47
F0.0
sS'min'
p1875
F-1.7976931348623157e+308
sS'max'
p1876
F1.7976931348623157e+308
sS'collapsed'
p1877
I00
sS'wrapping'
p1878
I00
sS'immediate'
p1879
I00
sS'label'
p1880
g200
sS'singlestep'
p1881
F1.0
sS'visible'
p1882
I01
sS'inport'
p1883
I00
sS'decimals'
p1884
I5
sS'id'
p1885
I93285272
ssa(dp1886
g39
S"<class 'gpi.widgets.DoubleSpinBox'>"
p1887
sg41
S'Poly i:'
p1888
sg43
(dp1889
S'outport'
p1890
I00
sS'quietval'
p1891
Nsg47
F0.0
sS'min'
p1892
F-1.7976931348623157e+308
sS'max'
p1893
F1.7976931348623157e+308
sS'collapsed'
p1894
I00
sS'wrapping'
p1895
I00
sS'immediate'
p1896
I00
sS'label'
p1897
g200
sS'singlestep'
p1898
F1.0
sS'visible'
p1899
I01
sS'inport'
p1900
I00
sS'decimals'
p1901
I5
sS'id'
p1902
I96003952
ssa(dp1903
g39
S"<class 'gpi.widgets.DoubleSpinBox'>"
p1904
sg41
S'Poly i^2:'
p1905
sg43
(dp1906
S'outport'
p1907
I00
sS'quietval'
p1908
Nsg47
F0.0
sS'min'
p1909
F-1.7976931348623157e+308
sS'max'
p1910
F1.7976931348623157e+308
sS'collapsed'
p1911
I00
sS'wrapping'
p1912
I00
sS'immediate'
p1913
I00
sS'label'
p1914
g200
sS'singlestep'
p1915
F1.0
sS'visible'
p1916
I01
sS'inport'
p1917
I00
sS'decimals'
p1918
I5
sS'id'
p1919
I96004864
ssa(dp1920
g39
S"<class 'gpi.widgets.DoubleSpinBox'>"
p1921
sg41
S'Poly j:'
p1922
sg43
(dp1923
S'outport'
p1924
I00
sS'quietval'
p1925
Nsg47
F-1.86961
sS'min'
p1926
F-1.7976931348623157e+308
sS'max'
p1927
F1.7976931348623157e+308
sS'collapsed'
p1928
I00
sS'wrapping'
p1929
I00
sS'immediate'
p1930
I00
sS'label'
p1931
g200
sS'singlestep'
p1932
F1.0
sS'visible'
p1933
I01
sS'inport'
p1934
I01
sS'decimals'
p1935
I5
sS'id'
p1936
I96005776
ssa(dp1937
g39
S"<class 'gpi.widgets.DoubleSpinBox'>"
p1938
sg41
S'Poly j^2:'
p1939
sg43
(dp1940
S'outport'
p1941
I00
sS'quietval'
p1942
Nsg47
F0.0
sS'min'
p1943
F-1.7976931348623157e+308
sS'max'
p1944
F1.7976931348623157e+308
sS'collapsed'
p1945
I00
sS'wrapping'
p1946
I00
sS'immediate'
p1947
I00
sS'label'
p1948
g200
sS'singlestep'
p1949
F1.0
sS'visible'
p1950
I01
sS'inport'
p1951
I00
sS'decimals'
p1952
I5
sS'id'
p1953
I96010928
ssa(dp1954
g39
S"<class 'gpi.widgets.DoubleSpinBox'>"
p1955
sg41
S'Poly k:'
p1956
sg43
(dp1957
S'outport'
p1958
I00
sS'quietval'
p1959
Nsg47
F0.0
sS'min'
p1960
F-1.7976931348623157e+308
sS'max'
p1961
F1.7976931348623157e+308
sS'collapsed'
p1962
I00
sS'wrapping'
p1963
I00
sS'immediate'
p1964
I00
sS'label'
p1965
g200
sS'singlestep'
p1966
F1.0
sS'visible'
p1967
I00
sS'inport'
p1968
I00
sS'decimals'
p1969
I5
sS'id'
p1970
I96011840
ssa(dp1971
g39
S"<class 'gpi.widgets.DoubleSpinBox'>"
p1972
sg41
S'Poly k^2:'
p1973
sg43
(dp1974
S'outport'
p1975
I00
sS'quietval'
p1976
Nsg47
F0.0
sS'min'
p1977
F-1.7976931348623157e+308
sS'max'
p1978
F1.7976931348623157e+308
sS'collapsed'
p1979
I00
sS'wrapping'
p1980
I00
sS'immediate'
p1981
I00
sS'label'
p1982
g200
sS'singlestep'
p1983
F1.0
sS'visible'
p1984
I00
sS'inport'
p1985
I00
sS'decimals'
p1986
I5
sS'id'
p1987
I96012752
ssa(dp1988
g39
S"<class 'gpi.widgets.DoubleSpinBox'>"
p1989
sg41
S'Noise Std:'
p1990
sg43
(dp1991
S'outport'
p1992
I00
sS'quietval'
p1993
Nsg47
F1.0
sS'min'
p1994
F-1.7976931348623157e+308
sS'max'
p1995
F1.7976931348623157e+308
sS'collapsed'
p1996
I00
sS'wrapping'
p1997
I00
sS'immediate'
p1998
I00
sS'label'
p1999
g200
sS'singlestep'
p2000
F1.0
sS'visible'
p2001
I00
sS'inport'
p2002
I00
sS'decimals'
p2003
I5
sS'id'
p2004
I96013664
ssasg214
g215
ssg216
S'0.126214981079'
p2005
sg41
S'Shapes'
p2006
sg219
(lp2007
F154.01400712446556
aF105.16885448351096
asg221
(lp2008
(dp2009
g224
g225
sg226
I0
sg227
(lp2010
sg239
Nsg240
I65540
sg241
I200
sg242
I87249280
sa(dp2011
g224
g1922
sg226
I1
sg227
(lp2012
(dp2013
g230
(dp2014
g232
g1922
sg233
I87251408
sg234
I1
sg235
I93285576
ssg236
(dp2015
g232
g1075
sg233
I79871176
sg234
I0
sg235
I79799872
ssasg239
g1922
sg240
I65540
sg241
I200
sg242
I87251408
sa(dp2016
g224
g244
sg226
I0
sg227
(lp2017
(dp2018
g230
(dp2019
g232
g306
sg233
I87258232
sg234
I0
sg235
I87251560
ssg236
(dp2020
g232
g244
sg233
I87249432
sg234
I0
sg235
I93285576
ssasg239
Nsg240
I65541
sg241
Nsg242
I87249432
sasg253
S'0.00343081837914'
p2021
sg255
S'core.generators.Shapes'
p2022
sg242
I93285576
sg257
S'0.131468057632'
p2023
sa(dp2024
g34
(dp2025
g36
(lp2026
(dp2027
g39
S"<class 'gpi.widgets.TextBox'>"
p2028
sg41
g965
sg43
(dp2029
S'outport'
p2030
I00
sS'quietval'
p2031
Nsg47
S'Ready'
p2032
sS'collapsed'
p2033
I00
sS'inport'
p2034
I00
sS'visible'
p2035
I01
sS'wordwrap'
p2036
I00
sS'id'
p2037
I87137936
ssa(dp2038
g39
S"<class 'gpi.widgets.TextBox'>"
p2039
sg41
g977
sg43
(dp2040
S'outport'
p2041
I00
sS'quietval'
p2042
Nsg47
S'input: (256, 256)\noutput: (256,)'
p2043
sS'collapsed'
p2044
I00
sS'inport'
p2045
I00
sS'visible'
p2046
I01
sS'wordwrap'
p2047
I00
sS'id'
p2048
I87159016
ssa(dp2049
g39
S"<class 'gpi.widgets.ExclusiveRadioButtons'>"
p2050
sg41
g264
sg43
(dp2051
S'outport'
p2052
I00
sS'quietval'
p2053
Nsg47
I2
sS'collapsed'
p2054
I00
sS'inport'
p2055
I00
sS'visible'
p2056
I01
sS'id'
p2057
I87159472
ssa(dp2058
g39
S"<class 'gpi.widgets.PushButton'>"
p2059
sg41
g204
sg43
(dp2060
S'outport'
p2061
I00
sS'quietval'
p2062
Nsg47
I01
sS'collapsed'
p2063
I00
sS'inport'
p2064
I00
sS'visible'
p2065
I01
sS'toggle'
p2066
I01
sS'button_title'
p2067
g200
sS'id'
p2068
I87161600
ssa(dp2069
g39
S"<class 'gpi.widgets.PushButton'>"
p2070
sg41
S'Collapse All'
p2071
sg43
(dp2072
S'outport'
p2073
I00
sS'quietval'
p2074
Nsg47
I00
sS'collapsed'
p2075
I00
sS'inport'
p2076
I00
sS'visible'
p2077
I01
sS'toggle'
p2078
I01
sS'button_title'
p2079
g200
sS'id'
p2080
I87162360
ssa(dp2081
g39
S"<class 'gpi.widgets.ExclusivePushButtons'>"
p2082
sg41
g1021
sg43
(dp2083
S'outport'
p2084
I00
sS'quietval'
p2085
Nsg47
I1
sS'collapsed'
p2086
I00
sS'inport'
p2087
I00
sS'visible'
p2088
I01
sS'id'
p2089
I87167360
ssa(dp2090
g39
S"<class 'gpi.widgets.PushButton'>"
p2091
sg41
S'Span Entire Dimension'
p2092
sg43
(dp2093
S'outport'
p2094
I00
sS'quietval'
p2095
Nsg47
I01
sS'collapsed'
p2096
I00
sS'inport'
p2097
I00
sS'visible'
p2098
I01
sS'toggle'
p2099
I01
sS'button_title'
p2100
g200
sS'id'
p2101
I87168272
ssa(dp2102
g39
S"<class 'gpi.widgets.Slider'>"
p2103
sg41
S'Dimension Start_Index'
p2104
sg43
(dp2105
S'outport'
p2106
I00
sS'quietval'
p2107
Nsg47
I0
sS'min'
p2108
I0
sS'max'
p2109
I256
sS'collapsed'
p2110
I00
sS'inport'
p2111
I00
sS'visible'
p2112
I00
sS'id'
p2113
I87169032
ssa(dp2114
g39
S"<class 'gpi.widgets.Slider'>"
p2115
sg41
S'Dimension Stop_Index'
p2116
sg43
(dp2117
S'outport'
p2118
I00
sS'quietval'
p2119
Nsg47
I0
sS'min'
p2120
I0
sS'max'
p2121
I256
sS'collapsed'
p2122
I00
sS'inport'
p2123
I00
sS'visible'
p2124
I00
sS'id'
p2125
I87170248
ssasg214
g215
ssg216
S'0.122771596909'
p2126
sg41
g1066
sg219
(lp2127
F98.06251279904228
aF-163.54467797023443
asg221
(lp2128
(dp2129
g224
g225
sg226
I0
sg227
(lp2130
(dp2131
g230
(dp2132
g232
g225
sg233
I87171608
sg234
I0
sg235
I87135504
ssg236
(dp2133
g232
g244
sg233
I90075672
sg234
I0
sg235
I90067632
ssasg239
Nsg240
I65540
sg241
I100
sg242
I87171608
sa(dp2134
g224
g1075
sg226
I0
sg227
(lp2135
(dp2136
g230
(dp2137
g232
g225
sg233
I99165304
sg234
I0
sg235
I99122072
ssg236
(dp2138
g232
g1075
sg233
I87171760
sg234
I0
sg235
I87135504
ssasg239
Nsg240
I65541
sg241
Nsg242
I87171760
sa(dp2139
g224
g370
sg226
I1
sg227
(lp2140
sg239
Nsg240
I65541
sg241
Nsg242
I87171912
sasg253
S'0.0157970927346'
p2141
sg255
g1083
sg242
I87135504
sg257
S'0.11797785759'
p2142
sa(dp2143
g34
(dp2144
g36
(lp2145
(dp2146
g39
S"<class 'gpi.widgets.TextBox'>"
p2147
sg41
g965
sg43
(dp2148
S'outport'
p2149
I00
sS'quietval'
p2150
Nsg47
S'Ready.'
p2151
sS'collapsed'
p2152
I00
sS'inport'
p2153
I00
sS'visible'
p2154
I01
sS'wordwrap'
p2155
I00
sS'id'
p2156
I79867984
ssa(dp2157
g39
S"<class 'gpi.widgets.TextEdit'>"
p2158
sg41
S'Python Code'
p2159
sg43
(dp2160
S'outport'
p2161
I00
sS'quietval'
p2162
Nsg47
S"in1 = self.getData('in1')\nin2 = self.getData('in2')\nin3 = self.getData('in3')\nin4 = self.getData('in4')\n\n\nout = -float(in1)\n\nself.setData('out1', out)\nself.setData('out2', None)\nself.setData('out3', None)\nself.setData('out4', None)\n"
p2163
sS'collapsed'
p2164
I00
sS'inport'
p2165
I00
sS'visible'
p2166
I01
sS'id'
p2167
I79868440
ssa(dp2168
g39
S"<class 'gpi.widgets.PushButton'>"
p2169
sg41
g204
sg43
(dp2170
S'outport'
p2171
I00
sS'quietval'
p2172
Nsg47
I00
sS'collapsed'
p2173
I00
sS'inport'
p2174
I00
sS'visible'
p2175
I01
sS'toggle'
p2176
I00
sS'button_title'
p2177
VCompute
p2178
sS'id'
p2179
I79869048
ssa(dp2180
g39
S"<class 'gpi.widgets.ExclusiveRadioButtons'>"
p2181
sg41
S'Execution Type'
p2182
sg43
(dp2183
S'outport'
p2184
I00
sS'quietval'
p2185
Nsg47
I1
sS'collapsed'
p2186
I01
sS'inport'
p2187
I00
sS'visible'
p2188
I01
sS'id'
p2189
I79869808
ssasg214
g215
ssg216
S'0.107912472316'
p2190
sg41
S'Custom'
p2191
sg219
(lp2192
F204.06251279904228
aF36.774829940538424
asg221
(lp2193
(dp2194
g224
g248
sg226
I0
sg227
(lp2195
(dp2196
g230
(dp2197
g232
g248
sg233
I79870568
sg234
I0
sg235
I79799872
ssg236
(dp2198
g232
g244
sg233
I78457448
sg234
I0
sg235
I79898632
ssasg239
Nsg240
I65540
sg241
I200
sg242
I79870568
sa(dp2199
g224
S'in2'
p2200
sg226
I1
sg227
(lp2201
sg239
Nsg240
I65540
sg241
I200
sg242
I79870720
sa(dp2202
g224
S'in3'
p2203
sg226
I2
sg227
(lp2204
sg239
Nsg240
I65540
sg241
I200
sg242
I79870872
sa(dp2205
g224
S'in4'
p2206
sg226
I3
sg227
(lp2207
sg239
Nsg240
I65540
sg241
I200
sg242
I79871024
sa(dp2208
g224
g1075
sg226
I0
sg227
(lp2209
(dp2210
g230
(dp2211
g232
g1922
sg233
I87251408
sg234
I1
sg235
I93285576
ssg236
(dp2212
g232
g1075
sg233
I79871176
sg234
I0
sg235
I79799872
ssasg239
Nsg240
I65541
sg241
Nsg242
I79871176
sa(dp2213
g224
g370
sg226
I1
sg227
(lp2214
sg239
Nsg240
I65541
sg241
Nsg242
I79871328
sa(dp2215
g224
S'out3'
p2216
sg226
I2
sg227
(lp2217
sg239
Nsg240
I65541
sg241
Nsg242
I79871480
sa(dp2218
g224
S'out4'
p2219
sg226
I3
sg227
(lp2220
sg239
Nsg240
I65541
sg241
Nsg242
I79871632
sasg253
S'0.0051921468711'
p2221
sg255
S'core.interfaces.Custom'
p2222
sg242
I79799872
sg257
S'0.110490083694'
p2223
sa(dp2224
g34
(dp2225
g36
(lp2226
(dp2227
g39
S"<class '/opt/gpi/lib/core/math/GPI/FFT_NUMPY_GPI.FFTW_GROUP'>"
p2228
sg41
S'Dimension[-1]'
p2229
sg43
(dp2230
S'outport'
p2231
I00
sS'quietval'
p2232
Nsg47
(dp2233
S'length'
p2234
I1280
sS'in_len'
p2235
I256
sg291
I01
ssS'collapsed'
p2236
I00
sS'inport'
p2237
I00
sS'visible'
p2238
I01
sS'id'
p2239
I78626600
ssa(dp2240
g39
S"<class '/opt/gpi/lib/core/math/GPI/FFT_NUMPY_GPI.FFTW_GROUP'>"
p2241
sg41
S'Dimension[-2]'
p2242
sg43
(dp2243
S'outport'
p2244
I00
sS'quietval'
p2245
Nsg47
(dp2246
g2234
I256
sg2235
I256
sg291
I01
ssS'collapsed'
p2247
I00
sS'inport'
p2248
I00
sS'visible'
p2249
I01
sS'id'
p2250
I84723568
ssa(dp2251
g39
S"<class '/opt/gpi/lib/core/math/GPI/FFT_NUMPY_GPI.FFTW_GROUP'>"
p2252
sg41
S'Dimension[-3]'
p2253
sg43
(dp2254
S'outport'
p2255
I00
sS'quietval'
p2256
Nsg47
(dp2257
g2234
I1
sg2235
I1
sg291
I00
ssS'collapsed'
p2258
I00
sS'inport'
p2259
I00
sS'visible'
p2260
I00
sS'id'
p2261
I84725544
ssa(dp2262
g39
S"<class '/opt/gpi/lib/core/math/GPI/FFT_NUMPY_GPI.FFTW_GROUP'>"
p2263
sg41
S'Dimension[-4]'
p2264
sg43
(dp2265
S'outport'
p2266
I00
sS'quietval'
p2267
Nsg47
(dp2268
g2234
I1
sg2235
I1
sg291
I00
ssS'collapsed'
p2269
I00
sS'inport'
p2270
I00
sS'visible'
p2271
I00
sS'id'
p2272
I84727664
ssa(dp2273
g39
S"<class '/opt/gpi/lib/core/math/GPI/FFT_NUMPY_GPI.FFTW_GROUP'>"
p2274
sg41
S'Dimension[-5]'
p2275
sg43
(dp2276
S'outport'
p2277
I00
sS'quietval'
p2278
Nsg47
(dp2279
g2234
I1
sg2235
I1
sg291
I00
ssS'collapsed'
p2280
I00
sS'inport'
p2281
I00
sS'visible'
p2282
I00
sS'id'
p2283
I84729640
ssa(dp2284
g39
S"<class '/opt/gpi/lib/core/math/GPI/FFT_NUMPY_GPI.FFTW_GROUP'>"
p2285
sg41
S'Dimension[-6]'
p2286
sg43
(dp2287
S'outport'
p2288
I00
sS'quietval'
p2289
Nsg47
(dp2290
g2234
I1
sg2235
I1
sg291
I00
ssS'collapsed'
p2291
I00
sS'inport'
p2292
I00
sS'visible'
p2293
I00
sS'id'
p2294
I84731760
ssa(dp2295
g39
S"<class '/opt/gpi/lib/core/math/GPI/FFT_NUMPY_GPI.FFTW_GROUP'>"
p2296
sg41
S'Dimension[-7]'
p2297
sg43
(dp2298
S'outport'
p2299
I00
sS'quietval'
p2300
Nsg47
(dp2301
g2234
I1
sg2235
I1
sg291
I00
ssS'collapsed'
p2302
I00
sS'inport'
p2303
I00
sS'visible'
p2304
I00
sS'id'
p2305
I84733736
ssa(dp2306
g39
S"<class '/opt/gpi/lib/core/math/GPI/FFT_NUMPY_GPI.FFTW_GROUP'>"
p2307
sg41
S'Dimension[-8]'
p2308
sg43
(dp2309
S'outport'
p2310
I00
sS'quietval'
p2311
Nsg47
(dp2312
g2234
I1
sg2235
I1
sg291
I00
ssS'collapsed'
p2313
I00
sS'inport'
p2314
I00
sS'visible'
p2315
I00
sS'id'
p2316
I84735856
ssa(dp2317
g39
S"<class '/opt/gpi/lib/core/math/GPI/FFT_NUMPY_GPI.FFTW_GROUP'>"
p2318
sg41
S'Dimension[-9]'
p2319
sg43
(dp2320
S'outport'
p2321
I00
sS'quietval'
p2322
Nsg47
(dp2323
g2234
I1
sg2235
I1
sg291
I00
ssS'collapsed'
p2324
I00
sS'inport'
p2325
I00
sS'visible'
p2326
I00
sS'id'
p2327
I84737832
ssa(dp2328
g39
S"<class 'gpi.widgets.PushButton'>"
p2329
sg41
g291
sg43
(dp2330
S'outport'
p2331
I00
sS'quietval'
p2332
Nsg47
I01
sS'collapsed'
p2333
I00
sS'inport'
p2334
I00
sS'visible'
p2335
I01
sS'toggle'
p2336
I01
sS'button_title'
p2337
g200
sS'id'
p2338
I84739952
ssa(dp2339
g39
S"<class 'gpi.widgets.PushButton'>"
p2340
sg41
S'direction'
p2341
sg43
(dp2342
S'outport'
p2343
I00
sS'quietval'
p2344
Nsg47
I00
sS'collapsed'
p2345
I00
sS'inport'
p2346
I00
sS'visible'
p2347
I01
sS'toggle'
p2348
I01
sS'button_title'
p2349
VFORWARD
p2350
sS'id'
p2351
I84740712
ssasg214
g215
ssg216
S'0.32582783699'
p2352
sg41
S'FFT_NUMPY'
p2353
sg219
(lp2354
F-164.93748720095772
aF-154.54467797023443
asg221
(lp2355
(dp2356
g224
g225
sg226
I0
sg227
(lp2357
(dp2358
g230
(dp2359
g232
g225
sg233
I84741472
sg234
I0
sg235
I78624168
ssg236
(dp2360
g232
g244
sg233
I90075672
sg234
I0
sg235
I90067632
ssasg239
Nsg240
I65540
sg241
I100
sg242
I84741472
sa(dp2361
g224
g244
sg226
I0
sg227
(lp2362
(dp2363
g230
(dp2364
g232
g225
sg233
I93111264
sg234
I0
sg235
I93076224
ssg236
(dp2365
g232
g244
sg233
I84741624
sg234
I0
sg235
I78624168
ssasg239
Nsg240
I65541
sg241
Nsg242
I84741624
sasg253
S'0.124562185487'
p2366
sg255
S'core.math.FFT_NUMPY'
p2367
sg242
I78624168
sg257
S'0.228327035904'
p2368
sa(dp2369
g34
(dp2370
g36
(lp2371
(dp2372
g39
S"<class 'gpi.widgets.ExclusivePushButtons'>"
p2373
sg41
S'Complex Display'
p2374
sg43
(dp2375
S'outport'
p2376
I00
sS'quietval'
p2377
Nsg47
I4
sS'collapsed'
p2378
I00
sS'inport'
p2379
I00
sS'visible'
p2380
I01
sS'id'
p2381
I96192520
ssa(dp2382
g39
S"<class 'gpi.widgets.ExclusivePushButtons'>"
p2383
sg41
S'Color Map'
p2384
sg43
(dp2385
S'outport'
p2386
I00
sS'quietval'
p2387
Nsg47
I0
sS'collapsed'
p2388
I01
sS'inport'
p2389
I00
sS'visible'
p2390
I00
sS'id'
p2391
I96193584
ssa(dp2392
g39
S"<class 'gpi.widgets.SpinBox'>"
p2393
sg41
S'Edge Pixels'
p2394
sg43
(dp2395
S'outport'
p2396
I00
sS'quietval'
p2397
Nsg47
I0
sS'min'
p2398
I0
sS'max'
p2399
I2147483647
sS'collapsed'
p2400
I00
sS'wrapping'
p2401
I00
sS'immediate'
p2402
I00
sS'label'
p2403
g200
sS'singlestep'
p2404
I1
sS'visible'
p2405
I01
sS'inport'
p2406
I00
sS'id'
p2407
I96194944
ssa(dp2408
g39
S"<class 'gpi.widgets.SpinBox'>"
p2409
sg41
S'Black Pixels'
p2410
sg43
(dp2411
S'outport'
p2412
I00
sS'quietval'
p2413
Nsg47
I0
sS'min'
p2414
I0
sS'max'
p2415
I2147483647
sS'collapsed'
p2416
I00
sS'wrapping'
p2417
I00
sS'immediate'
p2418
I00
sS'label'
p2419
g200
sS'singlestep'
p2420
I1
sS'visible'
p2421
I01
sS'inport'
p2422
I00
sS'id'
p2423
I96195856
ssa(dp2424
g39
S"<class 'gpi.widgets.DisplayBox'>"
p2425
sg41
S'Viewport:'
p2426
sg43
(dp2427
S'outport'
p2428
I00
sS'scale'
p2429
F1.0
sS'quietval'
p2430
Nsg47
NsS'collapsed'
p2431
I01
sS'interp'
p2432
I00
sS'inport'
p2433
I00
sS'visible'
p2434
I01
sS'noscroll'
p2435
I01
sS'points'
p2436
NsS'line'
p2437
NsS'id'
p2438
I96196768
ssa(dp2439
g39
S"<class '/opt/gpi/lib/core/display/GPI/ImageDisplay_GPI.WindowLevel'>"
p2440
sg41
S'L W F C:'
p2441
sg43
(dp2442
S'outport'
p2443
I00
sS'quietval'
p2444
Nsg47
(dp2445
g1620
I100
sg65
I0
sg62
I100
sg1621
I50
ssS'min'
p2446
I0
sS'max'
p2447
I100
sS'collapsed'
p2448
I01
sS'inport'
p2449
I00
sS'visible'
p2450
I01
sS'id'
p2451
I96199344
ssa(dp2452
g39
S"<class 'gpi.widgets.ExclusivePushButtons'>"
p2453
sg41
S'Scalar Display'
p2454
sg43
(dp2455
S'outport'
p2456
I00
sS'quietval'
p2457
Nsg47
I0
sS'collapsed'
p2458
I00
sS'inport'
p2459
I00
sS'visible'
p2460
I00
sS'id'
p2461
I96204200
ssa(dp2462
g39
S"<class 'gpi.widgets.DoubleSpinBox'>"
p2463
sg41
g1640
sg43
(dp2464
S'outport'
p2465
I00
sS'quietval'
p2466
Nsg47
F1.0
sS'min'
p2467
F0.1
sS'max'
p2468
F10.0
sS'collapsed'
p2469
I00
sS'wrapping'
p2470
I00
sS'immediate'
p2471
I00
sS'label'
p2472
g200
sS'singlestep'
p2473
F0.05
sS'visible'
p2474
I01
sS'inport'
p2475
I00
sS'decimals'
p2476
I3
sS'id'
p2477
I96204960
ssa(dp2478
g39
S"<class 'gpi.widgets.ExclusivePushButtons'>"
p2479
sg41
S'Zero Ref'
p2480
sg43
(dp2481
S'outport'
p2482
I00
sS'quietval'
p2483
Nsg47
I0
sS'collapsed'
p2484
I00
sS'inport'
p2485
I00
sS'visible'
p2486
I00
sS'id'
p2487
I96205872
ssa(dp2488
g39
S"<class 'gpi.widgets.PushButton'>"
p2489
sg41
S'Fix Range'
p2490
sg43
(dp2491
S'outport'
p2492
I00
sS'quietval'
p2493
Nsg47
I00
sS'collapsed'
p2494
I00
sS'inport'
p2495
I00
sS'visible'
p2496
I01
sS'toggle'
p2497
I01
sS'button_title'
p2498
VAuto-Range On
p2499
sS'id'
p2500
I96206928
ssa(dp2501
g39
S"<class 'gpi.widgets.DoubleSpinBox'>"
p2502
sg41
S'Range Min'
p2503
sg43
(dp2504
S'outport'
p2505
I00
sS'quietval'
p2506
Nsg47
F0.0
sS'min'
p2507
F-1.7976931348623157e+308
sS'max'
p2508
F1.7976931348623157e+308
sS'collapsed'
p2509
I00
sS'wrapping'
p2510
I00
sS'immediate'
p2511
I00
sS'label'
p2512
g200
sS'singlestep'
p2513
F1.0
sS'visible'
p2514
I00
sS'inport'
p2515
I00
sS'decimals'
p2516
I2
sS'id'
p2517
I96207688
ssa(dp2518
g39
S"<class 'gpi.widgets.DoubleSpinBox'>"
p2519
sg41
S'Range Max'
p2520
sg43
(dp2521
S'outport'
p2522
I00
sS'quietval'
p2523
Nsg47
F1.0
sS'min'
p2524
F-1.7976931348623157e+308
sS'max'
p2525
F1.7976931348623157e+308
sS'collapsed'
p2526
I00
sS'wrapping'
p2527
I00
sS'immediate'
p2528
I00
sS'label'
p2529
g200
sS'singlestep'
p2530
F1.0
sS'visible'
p2531
I01
sS'inport'
p2532
I00
sS'decimals'
p2533
I2
sS'id'
p2534
I96208600
ssasg214
g215
ssg216
S'0.0112052440643'
p2535
sg41
g1713
sg219
(lp2536
F94.06251279904228
aF225.45532202976557
asg221
(lp2537
(dp2538
g224
g225
sg226
I0
sg227
(lp2539
(dp2540
g230
(dp2541
g232
g225
sg233
I96209512
sg234
I0
sg235
I96153080
ssg236
(dp2542
g232
g244
sg233
I87208168
sg234
I0
sg235
I87173888
ssasg239
Nsg240
I65540
sg241
I100
sg242
I96209512
sa(dp2543
g224
g244
sg226
I0
sg227
(lp2544
sg239
Nsg240
I65541
sg241
Nsg242
I96209664
sasg253
S'0.00167622562152'
p2545
sg255
g1724
sg242
I96153080
sg257
S'0.0105681419373'
p2546
sa(dp2547
g34
(dp2548
g36
(lp2549
(dp2550
g39
S"<class 'gpi.widgets.ExclusiveRadioButtons'>"
p2551
sg41
g264
sg43
(dp2552
S'outport'
p2553
I00
sS'quietval'
p2554
Nsg47
I2
sS'collapsed'
p2555
I00
sS'inport'
p2556
I00
sS'visible'
p2557
I01
sS'id'
p2558
I87024152
ssa(dp2559
g39
S"<class 'gpi.widgets.ExclusiveRadioButtons'>"
p2560
sg41
S'Combine Operation'
p2561
sg43
(dp2562
S'outport'
p2563
I00
sS'quietval'
p2564
Nsg47
I0
sS'collapsed'
p2565
I00
sS'inport'
p2566
I00
sS'visible'
p2567
I00
sS'id'
p2568
I87025064
ssa(dp2569
g39
S"<class 'gpi.widgets.ExclusivePushButtons'>"
p2570
sg41
S'Phase'
p2571
sg43
(dp2572
S'outport'
p2573
I00
sS'quietval'
p2574
Nsg47
I0
sS'collapsed'
p2575
I00
sS'inport'
p2576
I00
sS'visible'
p2577
I01
sS'id'
p2578
I87025672
ssa(dp2579
g39
S"<class 'gpi.widgets.ExclusivePushButtons'>"
p2580
sg41
S'OutType'
p2581
sg43
(dp2582
S'outport'
p2583
I00
sS'quietval'
p2584
Nsg47
I0
sS'collapsed'
p2585
I00
sS'inport'
p2586
I00
sS'visible'
p2587
I01
sS'id'
p2588
I87026280
ssasg214
g215
ssg216
S'0.118350097111'
p2589
sg41
S'ToComplex'
p2590
sg219
(lp2591
F-170.4190338549413
aF140.76639403737542
asg221
(lp2592
(dp2593
g224
g306
sg226
I0
sg227
(lp2594
(dp2595
g230
(dp2596
g232
g306
sg233
I87023696
sg234
I0
sg235
I84747840
ssg236
(dp2597
g232
g244
sg233
I99111296
sg234
I0
sg235
I90084624
ssasg239
Nsg240
I65540
sg241
I200
sg242
I87023696
sa(dp2598
g224
g312
sg226
I1
sg227
(lp2599
sg239
Nsg240
I65540
sg241
I200
sg242
I87023848
sa(dp2600
g224
g244
sg226
I0
sg227
(lp2601
(dp2602
g230
(dp2603
g232
g306
sg233
I96059176
sg234
I0
sg235
I96025344
ssg236
(dp2604
g232
g244
sg233
I87024000
sg234
I0
sg235
I84747840
ssasg239
Nsg240
I65541
sg241
Nsg242
I87024000
sasg253
S'0.0105427926648'
p2605
sg255
S'core.shapers.ToComplex'
p2606
sg242
I84747840
sg257
S'0.12538599968'
p2607
sa(dp2608
g34
(dp2609
g36
(lp2610
(dp2611
g39
S"<class 'gpi.widgets.ExclusiveRadioButtons'>"
p2612
sg41
g264
sg43
(dp2613
S'outport'
p2614
I00
sS'quietval'
p2615
Nsg47
I2
sS'collapsed'
p2616
I00
sS'inport'
p2617
I00
sS'visible'
p2618
I01
sS'id'
p2619
I87258688
ssa(dp2620
g39
S"<class 'gpi.widgets.ExclusiveRadioButtons'>"
p2621
sg41
S'Combine Operation'
p2622
sg43
(dp2623
S'outport'
p2624
I00
sS'quietval'
p2625
Nsg47
I0
sS'collapsed'
p2626
I00
sS'inport'
p2627
I00
sS'visible'
p2628
I00
sS'id'
p2629
I87259600
ssa(dp2630
g39
S"<class 'gpi.widgets.ExclusivePushButtons'>"
p2631
sg41
g2571
sg43
(dp2632
S'outport'
p2633
I00
sS'quietval'
p2634
Nsg47
I0
sS'collapsed'
p2635
I00
sS'inport'
p2636
I00
sS'visible'
p2637
I01
sS'id'
p2638
I87260208
ssa(dp2639
g39
S"<class 'gpi.widgets.ExclusivePushButtons'>"
p2640
sg41
g2581
sg43
(dp2641
S'outport'
p2642
I00
sS'quietval'
p2643
Nsg47
I0
sS'collapsed'
p2644
I00
sS'inport'
p2645
I00
sS'visible'
p2646
I01
sS'id'
p2647
I87260816
ssasg214
g215
ssg216
S'0.119803547859'
p2648
sg41
g2590
sg219
(lp2649
F154.01400712446556
aF135.16885448351096
asg221
(lp2650
(dp2651
g224
g306
sg226
I0
sg227
(lp2652
(dp2653
g230
(dp2654
g232
g306
sg233
I87258232
sg234
I0
sg235
I87251560
ssg236
(dp2655
g232
g244
sg233
I87249432
sg234
I0
sg235
I93285576
ssasg239
Nsg240
I65540
sg241
I200
sg242
I87258232
sa(dp2656
g224
g312
sg226
I1
sg227
(lp2657
sg239
Nsg240
I65540
sg241
I200
sg242
I87258384
sa(dp2658
g224
g244
sg226
I0
sg227
(lp2659
(dp2660
g230
(dp2661
g232
g306
sg233
I87207720
sg234
I0
sg235
I87173888
ssg236
(dp2662
g232
g244
sg233
I87258536
sg234
I0
sg235
I87251560
ssasg239
Nsg240
I65541
sg241
Nsg242
I87258536
sasg253
S'0.00694836236153'
p2663
sg255
g2606
sg242
I87251560
sg257
S'0.12328004837'
p2664
sa(dp2665
g34
(dp2666
g36
(lp2667
(dp2668
g39
S"<class 'gpi.widgets.ExclusivePushButtons'>"
p2669
sg41
g1731
sg43
(dp2670
S'outport'
p2671
I00
sS'quietval'
p2672
Nsg47
I1
sS'collapsed'
p2673
I00
sS'inport'
p2674
I00
sS'visible'
p2675
I01
sS'id'
p2676
I96251384
ssa(dp2677
g39
S"<class 'gpi.widgets.ExclusiveRadioButtons'>"
p2678
sg41
g1741
sg43
(dp2679
S'outport'
p2680
I00
sS'quietval'
p2681
Nsg47
I5
sS'collapsed'
p2682
I00
sS'inport'
p2683
I00
sS'visible'
p2684
I01
sS'id'
p2685
I96250472
ssa(dp2686
g39
S"<class 'gpi.widgets.PushButton'>"
p2687
sg41
g204
sg43
(dp2688
S'outport'
p2689
I00
sS'quietval'
p2690
Nsg47
I01
sS'collapsed'
p2691
I00
sS'inport'
p2692
I00
sS'visible'
p2693
I01
sS'toggle'
p2694
I01
sS'button_title'
p2695
VON
p2696
sS'id'
p2697
I99115544
ssa(dp2698
g39
S"<class 'gpi.widgets.PushButton'>"
p2699
sg41
S'Equal Dimensions'
p2700
sg43
(dp2701
S'outport'
p2702
I00
sS'quietval'
p2703
Nsg47
I01
sS'collapsed'
p2704
I00
sS'inport'
p2705
I00
sS'visible'
p2706
I01
sS'toggle'
p2707
I01
sS'button_title'
p2708
g200
sS'id'
p2709
I99118584
ssa(dp2710
g39
S"<class '/opt/gpi/lib/core/generators/GPI/Shapes_GPI.SHAPES_GROUP'>"
p2711
sg41
S'Dimension: 1'
p2712
sg43
(dp2713
S'outport'
p2714
I00
sS'quietval'
p2715
Nsg47
(dp2716
g61
I1
sg1780
I256
ssS'collapsed'
p2717
I00
sS'inport'
p2718
I00
sS'visible'
p2719
I01
sS'id'
p2720
I99117824
ssa(dp2721
g39
S"<class '/opt/gpi/lib/core/generators/GPI/Shapes_GPI.SHAPES_GROUP'>"
p2722
sg41
S'Dimension: 2'
p2723
sg43
(dp2724
S'outport'
p2725
I00
sS'quietval'
p2726
Nsg47
(dp2727
g61
I1
sg1780
I256
ssS'collapsed'
p2728
I00
sS'inport'
p2729
I00
sS'visible'
p2730
I00
sS'id'
p2731
I96238184
ssa(dp2732
g39
S"<class '/opt/gpi/lib/core/generators/GPI/Shapes_GPI.SHAPES_GROUP'>"
p2733
sg41
S'Dimension: 3'
p2734
sg43
(dp2735
S'outport'
p2736
I00
sS'quietval'
p2737
Nsg47
(dp2738
g61
I1
sg1780
I1
ssS'collapsed'
p2739
I00
sS'inport'
p2740
I00
sS'visible'
p2741
I00
sS'id'
p2742
I99119336
ssa(dp2743
g39
S"<class 'gpi.widgets.SpinBox'>"
p2744
sg41
S'Veclen:'
p2745
sg43
(dp2746
S'outport'
p2747
I00
sS'quietval'
p2748
Nsg47
I1
sS'min'
p2749
I1
sS'max'
p2750
I2147483647
sS'collapsed'
p2751
I00
sS'wrapping'
p2752
I00
sS'immediate'
p2753
I00
sS'label'
p2754
g200
sS'singlestep'
p2755
I1
sS'visible'
p2756
I01
sS'inport'
p2757
I00
sS'id'
p2758
I99120400
ssa(dp2759
g39
S"<class 'gpi.widgets.DoubleSpinBox'>"
p2760
sg41
S'Pass Value:'
p2761
sg43
(dp2762
S'outport'
p2763
I00
sS'quietval'
p2764
Nsg47
F1.0
sS'min'
p2765
F-1.7976931348623157e+308
sS'max'
p2766
F1.7976931348623157e+308
sS'collapsed'
p2767
I00
sS'wrapping'
p2768
I00
sS'immediate'
p2769
I00
sS'label'
p2770
g200
sS'singlestep'
p2771
F1.0
sS'visible'
p2772
I00
sS'inport'
p2773
I00
sS'decimals'
p2774
I5
sS'id'
p2775
I90085384
ssa(dp2776
g39
S"<class 'gpi.widgets.DoubleSpinBox'>"
p2777
sg41
S'Stop Value:'
p2778
sg43
(dp2779
S'outport'
p2780
I00
sS'quietval'
p2781
Nsg47
F0.0
sS'min'
p2782
F-1.7976931348623157e+308
sS'max'
p2783
F1.7976931348623157e+308
sS'collapsed'
p2784
I00
sS'wrapping'
p2785
I00
sS'immediate'
p2786
I00
sS'label'
p2787
g200
sS'singlestep'
p2788
F1.0
sS'visible'
p2789
I00
sS'inport'
p2790
I00
sS'decimals'
p2791
I5
sS'id'
p2792
I100935992
ssa(dp2793
g39
S"<class 'gpi.widgets.Slider'>"
p2794
sg41
S'Window:'
p2795
sg43
(dp2796
S'outport'
p2797
I00
sS'quietval'
p2798
Nsg47
I1
sS'min'
p2799
I0
sS'max'
p2800
I100
sS'collapsed'
p2801
I00
sS'inport'
p2802
I00
sS'visible'
p2803
I00
sS'id'
p2804
I100937208
ssa(dp2805
g39
S"<class 'gpi.widgets.DoubleSpinBox'>"
p2806
sg41
S'Poly Const:'
p2807
sg43
(dp2808
S'outport'
p2809
I00
sS'quietval'
p2810
Nsg47
F0.0
sS'min'
p2811
F-1.7976931348623157e+308
sS'max'
p2812
F1.7976931348623157e+308
sS'collapsed'
p2813
I00
sS'wrapping'
p2814
I00
sS'immediate'
p2815
I00
sS'label'
p2816
g200
sS'singlestep'
p2817
F1.0
sS'visible'
p2818
I01
sS'inport'
p2819
I00
sS'decimals'
p2820
I5
sS'id'
p2821
I99095368
ssa(dp2822
g39
S"<class 'gpi.widgets.DoubleSpinBox'>"
p2823
sg41
S'Poly i:'
p2824
sg43
(dp2825
S'outport'
p2826
I00
sS'quietval'
p2827
Nsg47
F0.0
sS'min'
p2828
F-1.7976931348623157e+308
sS'max'
p2829
F1.7976931348623157e+308
sS'collapsed'
p2830
I00
sS'wrapping'
p2831
I00
sS'immediate'
p2832
I00
sS'label'
p2833
g200
sS'singlestep'
p2834
F1.0
sS'visible'
p2835
I01
sS'inport'
p2836
I00
sS'decimals'
p2837
I5
sS'id'
p2838
I99096280
ssa(dp2839
g39
S"<class 'gpi.widgets.DoubleSpinBox'>"
p2840
sg41
S'Poly i^2:'
p2841
sg43
(dp2842
S'outport'
p2843
I00
sS'quietval'
p2844
Nsg47
F0.0
sS'min'
p2845
F-1.7976931348623157e+308
sS'max'
p2846
F1.7976931348623157e+308
sS'collapsed'
p2847
I00
sS'wrapping'
p2848
I00
sS'immediate'
p2849
I00
sS'label'
p2850
g200
sS'singlestep'
p2851
F1.0
sS'visible'
p2852
I01
sS'inport'
p2853
I00
sS'decimals'
p2854
I5
sS'id'
p2855
I99097192
ssa(dp2856
g39
S"<class 'gpi.widgets.DoubleSpinBox'>"
p2857
sg41
g318
sg43
(dp2858
S'outport'
p2859
I00
sS'quietval'
p2860
Nsg47
F-1.96875
sS'min'
p2861
F-1.7976931348623157e+308
sS'max'
p2862
F1.7976931348623157e+308
sS'collapsed'
p2863
I00
sS'wrapping'
p2864
I00
sS'immediate'
p2865
I00
sS'label'
p2866
g200
sS'singlestep'
p2867
F1.0
sS'visible'
p2868
I01
sS'inport'
p2869
I01
sS'decimals'
p2870
I5
sS'id'
p2871
I99098104
ssa(dp2872
g39
S"<class 'gpi.widgets.DoubleSpinBox'>"
p2873
sg41
S'Poly j^2:'
p2874
sg43
(dp2875
S'outport'
p2876
I00
sS'quietval'
p2877
Nsg47
F0.0
sS'min'
p2878
F-1.7976931348623157e+308
sS'max'
p2879
F1.7976931348623157e+308
sS'collapsed'
p2880
I00
sS'wrapping'
p2881
I00
sS'immediate'
p2882
I00
sS'label'
p2883
g200
sS'singlestep'
p2884
F1.0
sS'visible'
p2885
I01
sS'inport'
p2886
I00
sS'decimals'
p2887
I5
sS'id'
p2888
I99090968
ssa(dp2889
g39
S"<class 'gpi.widgets.DoubleSpinBox'>"
p2890
sg41
S'Poly k:'
p2891
sg43
(dp2892
S'outport'
p2893
I00
sS'quietval'
p2894
Nsg47
F0.0
sS'min'
p2895
F-1.7976931348623157e+308
sS'max'
p2896
F1.7976931348623157e+308
sS'collapsed'
p2897
I00
sS'wrapping'
p2898
I00
sS'immediate'
p2899
I00
sS'label'
p2900
g200
sS'singlestep'
p2901
F1.0
sS'visible'
p2902
I00
sS'inport'
p2903
I00
sS'decimals'
p2904
I5
sS'id'
p2905
I99091880
ssa(dp2906
g39
S"<class 'gpi.widgets.DoubleSpinBox'>"
p2907
sg41
S'Poly k^2:'
p2908
sg43
(dp2909
S'outport'
p2910
I00
sS'quietval'
p2911
Nsg47
F0.0
sS'min'
p2912
F-1.7976931348623157e+308
sS'max'
p2913
F1.7976931348623157e+308
sS'collapsed'
p2914
I00
sS'wrapping'
p2915
I00
sS'immediate'
p2916
I00
sS'label'
p2917
g200
sS'singlestep'
p2918
F1.0
sS'visible'
p2919
I00
sS'inport'
p2920
I00
sS'decimals'
p2921
I5
sS'id'
p2922
I99092792
ssa(dp2923
g39
S"<class 'gpi.widgets.DoubleSpinBox'>"
p2924
sg41
S'Noise Std:'
p2925
sg43
(dp2926
S'outport'
p2927
I00
sS'quietval'
p2928
Nsg47
F1.0
sS'min'
p2929
F-1.7976931348623157e+308
sS'max'
p2930
F1.7976931348623157e+308
sS'collapsed'
p2931
I00
sS'wrapping'
p2932
I00
sS'immediate'
p2933
I00
sS'label'
p2934
g200
sS'singlestep'
p2935
F1.0
sS'visible'
p2936
I00
sS'inport'
p2937
I00
sS'decimals'
p2938
I5
sS'id'
p2939
I99093704
ssasg214
g215
ssg216
S'0.125651637713'
p2940
sg41
g2006
sg219
(lp2941
F-170.4190338549413
aF110.76639403737542
asg221
(lp2942
(dp2943
g224
g225
sg226
I0
sg227
(lp2944
sg239
Nsg240
I65540
sg241
I200
sg242
I99111144
sa(dp2945
g224
g318
sg226
I1
sg227
(lp2946
(dp2947
g230
(dp2948
g232
g318
sg233
I99113272
sg234
I1
sg235
I90084624
ssg236
(dp2949
g232
g244
sg233
I90249376
sg234
I0
sg235
I90243152
ssasg239
g318
sg240
I65540
sg241
I200
sg242
I99113272
sa(dp2950
g224
g244
sg226
I0
sg227
(lp2951
(dp2952
g230
(dp2953
g232
g306
sg233
I87023696
sg234
I0
sg235
I84747840
ssg236
(dp2954
g232
g244
sg233
I99111296
sg234
I0
sg235
I90084624
ssasg239
Nsg240
I65541
sg241
Nsg242
I99111296
sasg253
S'0.00781952432017'
p2955
sg255
g2022
sg242
I90084624
sg257
S'0.128549814224'
p2956
sa(dp2957
g34
(dp2958
g36
(lp2959
(dp2960
g39
S"<class 'gpi.widgets.TextBox'>"
p2961
sg41
g965
sg43
(dp2962
S'outport'
p2963
I00
sS'quietval'
p2964
Nsg47
S'Ready'
p2965
sS'collapsed'
p2966
I00
sS'inport'
p2967
I00
sS'visible'
p2968
I01
sS'wordwrap'
p2969
I00
sS'id'
p2970
I78129616
ssa(dp2971
g39
S"<class 'gpi.widgets.TextBox'>"
p2972
sg41
g977
sg43
(dp2973
S'outport'
p2974
I00
sS'quietval'
p2975
Nsg47
S'Max Val Index = 647\n'
p2976
sS'collapsed'
p2977
I00
sS'inport'
p2978
I00
sS'visible'
p2979
I01
sS'wordwrap'
p2980
I00
sS'id'
p2981
I78130072
ssa(dp2982
g39
S"<class 'gpi.widgets.ExclusiveRadioButtons'>"
p2983
sg41
g264
sg43
(dp2984
S'outport'
p2985
I00
sS'quietval'
p2986
Nsg47
I8
sS'collapsed'
p2987
I00
sS'inport'
p2988
I00
sS'visible'
p2989
I01
sS'id'
p2990
I78130528
ssa(dp2991
g39
S"<class 'gpi.widgets.PushButton'>"
p2992
sg41
g204
sg43
(dp2993
S'outport'
p2994
I00
sS'quietval'
p2995
Nsg47
I01
sS'collapsed'
p2996
I00
sS'inport'
p2997
I00
sS'visible'
p2998
I01
sS'toggle'
p2999
I01
sS'button_title'
p3000
g200
sS'id'
p3001
I79767104
ssa(dp3002
g39
S"<class 'gpi.widgets.PushButton'>"
p3003
sg41
S'Collapse All'
p3004
sg43
(dp3005
S'outport'
p3006
I00
sS'quietval'
p3007
Nsg47
I01
sS'collapsed'
p3008
I00
sS'inport'
p3009
I00
sS'visible'
p3010
I01
sS'toggle'
p3011
I01
sS'button_title'
p3012
g200
sS'id'
p3013
I79767864
ssa(dp3014
g39
S"<class 'gpi.widgets.ExclusivePushButtons'>"
p3015
sg41
g1021
sg43
(dp3016
S'outport'
p3017
I00
sS'quietval'
p3018
Nsg47
I0
sS'collapsed'
p3019
I00
sS'inport'
p3020
I00
sS'visible'
p3021
I00
sS'id'
p3022
I79768624
ssa(dp3023
g39
S"<class 'gpi.widgets.PushButton'>"
p3024
sg41
S'Span Entire Dimension'
p3025
sg43
(dp3026
S'outport'
p3027
I00
sS'quietval'
p3028
Nsg47
I01
sS'collapsed'
p3029
I00
sS'inport'
p3030
I00
sS'visible'
p3031
I00
sS'toggle'
p3032
I01
sS'button_title'
p3033
g200
sS'id'
p3034
I79773776
ssa(dp3035
g39
S"<class 'gpi.widgets.Slider'>"
p3036
sg41
S'Dimension Start_Index'
p3037
sg43
(dp3038
S'outport'
p3039
I00
sS'quietval'
p3040
Nsg47
I0
sS'min'
p3041
I0
sS'max'
p3042
I1280
sS'collapsed'
p3043
I00
sS'inport'
p3044
I00
sS'visible'
p3045
I00
sS'id'
p3046
I79774536
ssa(dp3047
g39
S"<class 'gpi.widgets.Slider'>"
p3048
sg41
S'Dimension Stop_Index'
p3049
sg43
(dp3050
S'outport'
p3051
I00
sS'quietval'
p3052
Nsg47
I0
sS'min'
p3053
I0
sS'max'
p3054
I1280
sS'collapsed'
p3055
I00
sS'inport'
p3056
I00
sS'visible'
p3057
I00
sS'id'
p3058
I79775752
ssasg214
g215
ssg216
S'0.109448957443'
p3059
sg41
g1066
sg219
(lp3060
F-164.93748720095772
aF-64.54467797023445
asg221
(lp3061
(dp3062
g224
g225
sg226
I0
sg227
(lp3063
(dp3064
g230
(dp3065
g232
g225
sg233
I79776968
sg234
I0
sg235
I78057256
ssg236
(dp3066
g232
g1075
sg233
I90224496
sg234
I0
sg235
I90188240
ssasg239
Nsg240
I65540
sg241
I100
sg242
I79776968
sa(dp3067
g224
g1075
sg226
I0
sg227
(lp3068
sg239
Nsg240
I65541
sg241
Nsg242
I79777120
sa(dp3069
g224
g370
sg226
I1
sg227
(lp3070
(dp3071
g230
(dp3072
g232
g306
sg233
I96092240
sg234
I0
sg235
I96061600
ssg236
(dp3073
g232
g370
sg233
I79777272
sg234
I1
sg235
I78057256
ssasg239
Nsg240
I65541
sg241
Nsg242
I79777272
sasg253
S'0.00535572983332'
p3074
sg255
g1083
sg242
I78057256
sg257
S'0.111618041992'
p3075
sa(dp3076
g34
(dp3077
g36
(lp3078
(dp3079
g39
S"<class 'gpi.widgets.ExclusivePushButtons'>"
p3080
sg41
S'Complex Display'
p3081
sg43
(dp3082
S'outport'
p3083
I00
sS'quietval'
p3084
Nsg47
I4
sS'collapsed'
p3085
I00
sS'inport'
p3086
I00
sS'visible'
p3087
I01
sS'id'
p3088
I96129864
ssa(dp3089
g39
S"<class 'gpi.widgets.ExclusivePushButtons'>"
p3090
sg41
S'Color Map'
p3091
sg43
(dp3092
S'outport'
p3093
I00
sS'quietval'
p3094
Nsg47
I0
sS'collapsed'
p3095
I01
sS'inport'
p3096
I00
sS'visible'
p3097
I00
sS'id'
p3098
I96130928
ssa(dp3099
g39
S"<class 'gpi.widgets.SpinBox'>"
p3100
sg41
S'Edge Pixels'
p3101
sg43
(dp3102
S'outport'
p3103
I00
sS'quietval'
p3104
Nsg47
I0
sS'min'
p3105
I0
sS'max'
p3106
I2147483647
sS'collapsed'
p3107
I00
sS'wrapping'
p3108
I00
sS'immediate'
p3109
I00
sS'label'
p3110
g200
sS'singlestep'
p3111
I1
sS'visible'
p3112
I01
sS'inport'
p3113
I00
sS'id'
p3114
I96132144
ssa(dp3115
g39
S"<class 'gpi.widgets.SpinBox'>"
p3116
sg41
S'Black Pixels'
p3117
sg43
(dp3118
S'outport'
p3119
I00
sS'quietval'
p3120
Nsg47
I0
sS'min'
p3121
I0
sS'max'
p3122
I2147483647
sS'collapsed'
p3123
I00
sS'wrapping'
p3124
I00
sS'immediate'
p3125
I00
sS'label'
p3126
g200
sS'singlestep'
p3127
I1
sS'visible'
p3128
I01
sS'inport'
p3129
I00
sS'id'
p3130
I96133200
ssa(dp3131
g39
S"<class 'gpi.widgets.DisplayBox'>"
p3132
sg41
S'Viewport:'
p3133
sg43
(dp3134
S'outport'
p3135
I00
sS'scale'
p3136
F1.0
sS'quietval'
p3137
Nsg47
NsS'collapsed'
p3138
I01
sS'interp'
p3139
I00
sS'inport'
p3140
I00
sS'visible'
p3141
I01
sS'noscroll'
p3142
I01
sS'points'
p3143
NsS'line'
p3144
NsS'id'
p3145
I96134112
ssa(dp3146
g39
S"<class '/opt/gpi/lib/core/display/GPI/ImageDisplay_GPI.WindowLevel'>"
p3147
sg41
S'L W F C:'
p3148
sg43
(dp3149
S'outport'
p3150
I00
sS'quietval'
p3151
Nsg47
(dp3152
g1620
I100
sg65
I0
sg62
I100
sg1621
I50
ssS'min'
p3153
I0
sS'max'
p3154
I100
sS'collapsed'
p3155
I01
sS'inport'
p3156
I00
sS'visible'
p3157
I01
sS'id'
p3158
I96136544
ssa(dp3159
g39
S"<class 'gpi.widgets.ExclusivePushButtons'>"
p3160
sg41
S'Scalar Display'
p3161
sg43
(dp3162
S'outport'
p3163
I00
sS'quietval'
p3164
Nsg47
I0
sS'collapsed'
p3165
I00
sS'inport'
p3166
I00
sS'visible'
p3167
I00
sS'id'
p3168
I96141544
ssa(dp3169
g39
S"<class 'gpi.widgets.DoubleSpinBox'>"
p3170
sg41
g1640
sg43
(dp3171
S'outport'
p3172
I00
sS'quietval'
p3173
Nsg47
F1.0
sS'min'
p3174
F0.1
sS'max'
p3175
F10.0
sS'collapsed'
p3176
I00
sS'wrapping'
p3177
I00
sS'immediate'
p3178
I00
sS'label'
p3179
g200
sS'singlestep'
p3180
F0.05
sS'visible'
p3181
I01
sS'inport'
p3182
I00
sS'decimals'
p3183
I3
sS'id'
p3184
I96142304
ssa(dp3185
g39
S"<class 'gpi.widgets.ExclusivePushButtons'>"
p3186
sg41
S'Zero Ref'
p3187
sg43
(dp3188
S'outport'
p3189
I00
sS'quietval'
p3190
Nsg47
I0
sS'collapsed'
p3191
I00
sS'inport'
p3192
I00
sS'visible'
p3193
I00
sS'id'
p3194
I96143216
ssa(dp3195
g39
S"<class 'gpi.widgets.PushButton'>"
p3196
sg41
S'Fix Range'
p3197
sg43
(dp3198
S'outport'
p3199
I00
sS'quietval'
p3200
Nsg47
I00
sS'collapsed'
p3201
I00
sS'inport'
p3202
I00
sS'visible'
p3203
I01
sS'toggle'
p3204
I01
sS'button_title'
p3205
VAuto-Range On
p3206
sS'id'
p3207
I96144128
ssa(dp3208
g39
S"<class 'gpi.widgets.DoubleSpinBox'>"
p3209
sg41
S'Range Min'
p3210
sg43
(dp3211
S'outport'
p3212
I00
sS'quietval'
p3213
Nsg47
F0.0
sS'min'
p3214
F-1.7976931348623157e+308
sS'max'
p3215
F1.7976931348623157e+308
sS'collapsed'
p3216
I00
sS'wrapping'
p3217
I00
sS'immediate'
p3218
I00
sS'label'
p3219
g200
sS'singlestep'
p3220
F1.0
sS'visible'
p3221
I00
sS'inport'
p3222
I00
sS'decimals'
p3223
I2
sS'id'
p3224
I96144888
ssa(dp3225
g39
S"<class 'gpi.widgets.DoubleSpinBox'>"
p3226
sg41
S'Range Max'
p3227
sg43
(dp3228
S'outport'
p3229
I00
sS'quietval'
p3230
Nsg47
F1.0
sS'min'
p3231
F-1.7976931348623157e+308
sS'max'
p3232
F1.7976931348623157e+308
sS'collapsed'
p3233
I00
sS'wrapping'
p3234
I00
sS'immediate'
p3235
I00
sS'label'
p3236
g200
sS'singlestep'
p3237
F1.0
sS'visible'
p3238
I01
sS'inport'
p3239
I00
sS'decimals'
p3240
I2
sS'id'
p3241
I96150040
ssasg214
g215
ssg216
S'0.0106631755829'
p3242
sg41
g1713
sg219
(lp3243
F97.06251279904228
aF-232.54467797023443
asg221
(lp3244
(dp3245
g224
g225
sg226
I0
sg227
(lp3246
(dp3247
g230
(dp3248
g232
g225
sg233
I96150952
sg234
I0
sg235
I96094520
ssg236
(dp3249
g232
g244
sg233
I90075672
sg234
I0
sg235
I90067632
ssasg239
Nsg240
I65540
sg241
I100
sg242
I96150952
sa(dp3250
g224
g244
sg226
I0
sg227
(lp3251
sg239
Nsg240
I65541
sg241
Nsg242
I96151104
sasg253
S'0.00068043604203'
p3252
sg255
g1724
sg242
I96094520
sg257
S'0.0111329555511'
p3253
sassS'WALLTIME'
p3254
S'6.29425096512'
p3255
s.