(dp0
S'HEADER'
p1
S'This is a GPI Network File'
p2
sS'GPI_VERSION'
p3
S'0.2'
p4
sS'PLATFORM'
p5
(dp6
S'PYTHON_VERSION'
p7
S'2.7.6'
p8
sS'PYTHON'
p9
S'CPython'
p10
sS'TOTAL_PHYMEM'
p11
L8367030272L
sS'NUM_CPUS'
p12
I4
sS'HOSTNAME'
p13
S'ubuntu'
p14
sg5
S'Linux-3.8.0-29-generic-x86_64-with-debian-wheezy-sid'
p15
sS'TOTAL_PHYMEM_STR'
p16
S'7.79 GB'
p17
sS'OS'
p18
S'Linux'
p19
ssS'DATETIME'
p20
S'Tue Jul 29 14:58:39 2014'
p21
sS'NETWORK_VERSION'
p22
S'2'
p23
sS'layouts'
p24
(lp25
sS'TOTAL_PMEM'
p26
S'6208016'
p27
sS'nodes'
p28
(dp29
S'macroNodes'
p30
(lp31
sg28
(lp32
(dp33
S'widget_settings'
p34
(dp35
S'parms'
p36
(lp37
(dp38
S'type'
p39
S"<class 'gpi.widgets.ExclusivePushButtons'>"
p40
sS'name'
p41
S'Mode'
p42
sS'kwargs'
p43
(dp44
S'outport'
p45
I00
sS'quietval'
p46
NsS'val'
p47
I0
sS'collapsed'
p48
I00
sS'inport'
p49
I00
sS'visible'
p50
I01
sS'id'
p51
I102700152
ssa(dp52
g39
S"<class 'gpi.widgets.ExclusiveRadioButtons'>"
p53
sg41
S'Operation'
p54
sg43
(dp55
S'outport'
p56
I00
sS'quietval'
p57
Nsg47
I2
sS'collapsed'
p58
I00
sS'inport'
p59
I00
sS'visible'
p60
I01
sS'id'
p61
I102702128
ssa(dp62
g39
S"<class 'gpi.widgets.DoubleSpinBox'>"
p63
sg41
S'Scalar'
p64
sg43
(dp65
S'outport'
p66
I00
sS'quietval'
p67
Nsg47
F8.0
sS'min'
p68
F-1.7976931348623157e+308
sS'max'
p69
F1.7976931348623157e+308
sS'collapsed'
p70
I00
sS'wrapping'
p71
I00
sS'immediate'
p72
I00
sS'label'
p73
V
p74
sS'singlestep'
p75
F1.0
sS'visible'
p76
I01
sS'inport'
p77
I00
sS'decimals'
p78
I5
sS'id'
p79
I94149376
ssa(dp80
g39
S"<class 'gpi.widgets.PushButton'>"
p81
sg41
S'compute'
p82
sg43
(dp83
S'outport'
p84
I00
sS'quietval'
p85
Nsg47
I01
sS'collapsed'
p86
I00
sS'inport'
p87
I00
sS'visible'
p88
I01
sS'toggle'
p89
I01
sS'button_title'
p90
g74
sS'id'
p91
I115027752
ssasS'label'
p92
S''
p93
ssS'avgwalltime'
p94
S'0.100228667259'
p95
sg41
S'Math'
p96
sS'pos'
p97
(lp98
F10.970283232637371
aF63.79445872054279
asS'ports'
p99
(lp100
(dp101
S'porttitle'
p102
S'inLeft'
p103
sS'portnum'
p104
I0
sS'connections'
p105
(lp106
(dp107
S'dest'
p108
(dp109
S'portName'
p110
g103
sS'portID'
p111
I113218680
sS'portNum'
p112
I0
sS'nodeID'
p113
I109812632
ssS'src'
p114
(dp115
g110
S'out'
p116
sg111
I115024864
sg112
I0
sg113
I114977536
ssasS'widgetTitle'
p117
NsS'porttype'
p118
I65540
sS'obligation'
p119
I200
sS'id'
p120
I113218680
sa(dp121
g102
S'inRight'
p122
sg104
I1
sg105
(lp123
sg117
Nsg118
I65540
sg119
I200
sg120
I113218832
sa(dp124
g102
g116
sg104
I0
sg105
(lp125
(dp126
g108
(dp127
g110
S'in1'
p128
sg111
I101882928
sg112
I1
sg113
I101877312
ssg114
(dp129
g110
g116
sg111
I113218984
sg112
I0
sg113
I109812632
ssasg117
Nsg118
I65541
sg119
Nsg120
I113218984
sasS'stdwalltime'
p130
S'0.00553759474328'
p131
sS'key'
p132
S'core.math.Math'
p133
sg120
I109812632
sS'walltime'
p134
S'0.0989179611206'
p135
sa(dp136
g34
(dp137
g36
(lp138
(dp139
g39
S"<class 'gpi.widgets.ExclusivePushButtons'>"
p140
sg41
S'R I M P'
p141
sg43
(dp142
S'outport'
p143
I00
sS'quietval'
p144
Nsg47
I0
sS'collapsed'
p145
I00
sS'inport'
p146
I00
sS'visible'
p147
I01
sS'id'
p148
I102639016
ssa(dp149
g39
S"<class 'gpi.widgets.ExclusivePushButtons'>"
p150
sg41
S'Units'
p151
sg43
(dp152
S'outport'
p153
I00
sS'quietval'
p154
Nsg47
I1
sS'collapsed'
p155
I00
sS'inport'
p156
I00
sS'visible'
p157
I00
sS'id'
p158
I84848720
ssa(dp159
g39
S"<class 'gpi.widgets.PushButton'>"
p160
sg41
S'UnWrap'
p161
sg43
(dp162
S'outport'
p163
I00
sS'quietval'
p164
Nsg47
I00
sS'collapsed'
p165
I00
sS'inport'
p166
I00
sS'visible'
p167
I00
sS'toggle'
p168
I01
sS'button_title'
p169
g74
sS'id'
p170
I85008168
ssa(dp171
g39
S"<class 'gpi.widgets.Slider'>"
p172
sg41
S'UnWrap Dimension'
p173
sg43
(dp174
S'outport'
p175
I00
sS'quietval'
p176
Nsg47
I0
sS'min'
p177
I-2
sS'max'
p178
I1
sS'collapsed'
p179
I00
sS'inport'
p180
I00
sS'visible'
p181
I00
sS'id'
p182
I85004672
ssasg92
g93
ssg94
S'0.1053855896'
p183
sg41
S'RIMP'
p184
sg97
(lp185
F-71.7382205123583
aF212.1740111616373
asg99
(lp186
(dp187
g102
S'in'
p188
sg104
I0
sg105
(lp189
(dp190
g108
(dp191
g110
g188
sg111
I85007104
sg112
I0
sg113
I102628400
ssg114
(dp192
g110
g116
sg111
I101708920
sg112
I0
sg113
I97395680
ssasg117
Nsg118
I65540
sg119
I100
sg120
I85007104
sa(dp193
g102
g116
sg104
I0
sg105
(lp194
(dp195
g108
(dp196
g110
g188
sg111
I97340616
sg112
I0
sg113
I88583976
ssg114
(dp197
g110
g116
sg111
I85005432
sg112
I0
sg113
I102628400
ssa(dp198
g108
(dp199
g110
g103
sg111
I140485364172656
sg112
I0
sg113
I102707584
ssg114
(dp200
g110
g116
sg111
I85005432
sg112
I0
sg113
I102628400
ssasg117
Nsg118
I65541
sg119
Nsg120
I85005432
sasg130
S'0.0025900165455'
p201
sg132
S'core.math.RIMP'
p202
sg120
I102628400
sg134
S'0.105208873749'
p203
sa(dp204
g34
(dp205
g36
(lp206
(dp207
g39
S"<class '/opt/gpi/lib/core/display/GPI/Matplotlib_GPI.MatplotDisplay'>"
p208
sg41
S'Plot'
p209
sg43
(dp210
S'outport'
p211
I00
sS'quietval'
p212
Nsg47
(lp213
cnumpy.core.multiarray
_reconstruct
p214
(cnumpy
ndarray
p215
(I0
tp216
S'b'
p217
tp218
Rp219
(I1
(I250
tp220
cnumpy
dtype
p221
(S'f8'
p222
I0
I1
tp223
Rp224
(I3
S'<'
p225
NNNI-1
I-1
I0
tp226
bI00
S"\x00\x00\x00\x00\x00\x00\x00\x00\x00\x00\x00\x00\x00\x00\x00\x00\x00\x00\x00\x00\x00\x00\x00\x00\x00\x00\x00\x00\x00\x00\x00\x00\x00\x00\x00\x00\x00\x00\x00\x00\x00\x00\x00\x00\x00\x00\x00\x00\x00\x00\x00\x00\x00\x00\x00\x00\x00\x00\x00\x00\x00\x00\x00\x00\x00\x00\x00\x00\x00\x00\x00\x00\x00\x00\x00\x00\x00\x00\x00\x00\x00\x00\x00\x00\x00\x00\x00\x00\x00\x00\x00\x00\x00\x00\x00\x00\x00\x00\x00\x00\x00\x00\x00\x00\x00\x00\x00\x00\x00\x00\x00\x00\x00\x00\x00\x00\x00\x00\x00\x00\x00\x00\x00\x00\x00\x00\x00\x00\x00\x00\x00\x00\x00\x00\x00\x00\x00\x00\x00\x00\x00\x00\x00\x00\x00\x00\x00\x00\x00\x00\x00\x00\x00\x00\x00\x00\x00\x00\x00\x00\x00\x00\x00\x00\x00\x00\x00\x00\x00\x00\x00\x00\x00\x00\x00\x00\x00\x00\x00\x00\x00\x00\x00\x00\x00\x00\x00\x00\x00\x00\x00\x00\x00\x00\x00\x00\x00\x00\x00\x00\x00\x00\x00\x00\x00\x00\x00\x00\x00\x00\x00\x00\x00\x00\x00\x00\x00\x00\x00\x00\x00\x00\x00\x00\x00\x00\x00\x00\x00\x00\x00\x00\x00\x00\x00\x00\x00\x00\x00\x00\x00\x00\x00\x00\x00\x00\x00\x00\x00\x00\x00\x00\x00\x00\x00\x00\x00\x00\x00\x00\x00\x00\x00\x00\x00\x00\x00\x00\x00\x00\x00\x00\x00\x00\x00\x00\x00\x00\x00\x00\x00\x00\x00\x00\x00\x00\x00\x00\x00\x00\x00\x00\x00\x00\x00\x00\x00\x00\x00\x00\x00\x00\x00\x00\x00\x00\x00\x00\x00\x00\x00\x00\x00\x00\x00\x00\x00\x00\x00\x00\x00\x00\x00\x00\x00\x00\x00\x00\x00\x00\x00\x00\x00\x00\x00\x00\x00\x00\x00\x00\x00\x00\x00\x00\x00\x00\x00\x00\x00\x00\x00\x00\x00\x00\x00\x00\x00\x00\x00\x00\x00\x00\x00\x00\x00\x00\x00\x00\x00\x00\x00\x00\x00\x00\x00\x00\x00\x00\x00\x00\x00\x00\x00\x00\x00\x00\x00\x00\x00\x00\x00\x00\x00\x00\x00\x00\x00\x00\x00\x00\x00\x00\x00\x00\x00\x00\x00\x00\x00\x00\x00\x00\x00\x00\x00\x00\x00\x00\x00\x00\x00\x00\x00\x00\x00\x00\x00\x00\x00\x00\x00\x00\x00\x00\x00\x00\x00\x00\x00\x00\x00\x00\x00\x00\x00\x00\x00\x00\x00\x00\x00\x00\x00\x00\x00\x00\x00\x00\x00\x00\x00\x00\x00\x00\x00\x00\x00\x00\x00\x00\x00\x00\x00\x00\x00\x00\x00\x00\x00\x00\x00\x00\x00\x00\x00\x00\x00\x00\x00\x00\x00\x00\x00\x00\x00\x00\x00\x00\x00\x00\x00\x00\x00\x00\x00\x00\x00\x00\x00\x00\x00\x00\x00\x00\x00\x00\x00\x00\x00\x00\x00\x00\x00\x00\x00\x00\x00\x00\x00\x00\x00\x00\x00\x00\x00\x00\x00\x00\x00\x00\x00\x00\x00\x00\x00\x00\x00\x00\x00\x00\x00\x00\x00\x00\x00\x00\x00\x00\x00\x00\x00\x00\x00\x00\x00\x00\x00\x00\x00\x00\x00\x00\x00\x00\x00\x00\x00\x00\x00\x00\x00\x00\x00\x00\x00\x00\x00\x00\x00\x00\x00\x00\x00\x00\x00\x00\x00\x00\x00\x00\x00\x00\x00\x00\x00\x00\x00\x00\x00\x00\x00\x00\x00\x00\x00\x00\x00\x00\x00\x00\x00\x00\x00\x00\x00\x00\x00\x00\x00\x00\x00\x00\x00\x00\x00\x00\x00\x00\x00\x00\x00\x00\x00\x00\x00\x00\x00\x00\x00\x00\x00\x00\x00\x00\x00\x00\x00\x00\x00\x00\x00\x00\x00\x00\x00\x00\x00\x00\x00\x00\x00\x00\x00\x00\x00\x00\x00\x00\x00\x00\x00\x00\x00\x00\x00\x00\x00\x00\x00\x00\x00\x00\x00\x00\x00\x00\x00\x00\x00\x00\x00\x00\x00\x00\x00\x00\x00\x00\x00\x00\x00\x00\x00\x00\x00\x00\x00\x00\x00\x00\x00\x00\x00\x00\x00\x00\x00\x00\x00\x00\x00\x00\x00\x00\x00\x00\x00\x00\x00\x00\x00\x00\x00\x00\x00\x00\x00\x00\x00\x00\x00\x00\x00\x00\x00\x00\x00\x00\x00\x00\x00\x00\x00\x00\x00\x00\x00\x00\x00\x00\x00\x00\x00\x00\x00\x00\x00\x00\x00\x00\x00\x00\x00\x00\x00\x00\x00\x00\x00\x00\x00\x00\x00\x00\x00\x00\x00\x00\x00\x00\x00\x00\x00\x00\x00\x00\x00\x00\x00\x02\xbc\x1b@*P?\x80\xbf\xc9\xdf*&p?@\xc0^{J#\x82?\x00\x12\xfe.\xde\x15\x90?\x10\xb0\xba\xcb\x1e\x0f\x99?\xe0(\x85\x10+\xfa\xa1?\xb0S\x1f\x19A]\xa8?(\xfd\xf1\x8b]\xaa\xaf?\xe0Eo\x02\x10\xed\xb3?X-\xa0\x91!r\xb8?TP\x92r\xd2_\xbd?\xd0\x8fZ\xf8\x93X\xc1?\xd6\xbf\xddUa0\xc4?\x86\xfc\x95\x02r4\xc7?BK\x15\xf7\xb9a\xca?`\xa9\xcf\x87\x03\xb5\xcd?W+\xa0Qy\x95\xd0?2?m\x1b\x04`\xd2?t\xab\xab\xdbR8\xd4?X\x0bhd\x88\x1c\xd6?\x1d\xfex\x81\xbb\n\xd8?c!\xbf\xe6\xf8\x00\xda?\n\xa9\x97(E\xfd\xdb?\x8c\xed\x83\xbc\x9e\xfd\xdd?\xfb\xff\xff\xff\xff\xff\xdf?6\t\xbe\xa10\x01\xe1?z+\xb4k]\x01\xe2?No\xa0\x8c\x83\xff\xe2?\xf2\x80C?\xa2\xfa\xe3?R\xfa\xcb\xcd\xbb\xf1\xe4?E**\x92\xd6\xe3\xe5?g`I\xf2\xfd\xcf\xe6?S\xea/WC\xb5\xe7?\xa8\x15\x0c\x1e\xbf\x92\xe8?.\xad:\x82\x91g\xe9?\xde\x80Z\x7f\xe32\xea?\n\x90\x88\xaa\xe7\xf3\xea?\x0c\\\xe9\x01\xdb\xa9\xeb?\xf6\xb5\xad\xb1\x05T\xec?R\xfa\xcb\xcd\xbb\xf1\xec?B\x17\xb2\xff]\x82\xed?+\xe0@'Z\x05\xee?\xc4\nn\xee+z\xee?q\xad\xf7N]\xe0\xee?\x80*\xa2\t\x877\xef?p\x0f\x88\x0eQ\x7f\xef?\xff\x84\x12\xd6r\xb7\xef?\x81l@\xaa\xb3\xdf\xef?\xff!\xf2\xdf\xea\xf7\xef?\x00\x00\x00\x00\x00\x00\xf0?\x00\x00\x00\x00\x00\x00\xf0?\x00\x00\x00\x00\x00\x00\xf0?\x00\x00\x00\x00\x00\x00\xf0?\x00\x00\x00\x00\x00\x00\xf0?\x00\x00\x00\x00\x00\x00\xf0?\x00\x00\x00\x00\x00\x00\xf0?\x00\x00\x00\x00\x00\x00\xf0?\x00\x00\x00\x00\x00\x00\xf0?\x00\x00\x00\x00\x00\x00\xf0?\x00\x00\x00\x00\x00\x00\xf0?\x00\x00\x00\x00\x00\x00\xf0?\x00\x00\x00\x00\x00\x00\xf0?\x00\x00\x00\x00\x00\x00\xf0?\x00\x00\x00\x00\x00\x00\xf0?\x00\x00\x00\x00\x00\x00\xf0?\x00\x00\x00\x00\x00\x00\xf0?\x00\x00\x00\x00\x00\x00\xf0?\x00\x00\x00\x00\x00\x00\xf0?\x00\x00\x00\x00\x00\x00\xf0?\x00\x00\x00\x00\x00\x00\xf0?\x00\x00\x00\x00\x00\x00\xf0?\x00\x00\x00\x00\x00\x00\xf0?\x00\x00\x00\x00\x00\x00\xf0?\x00\x00\x00\x00\x00\x00\xf0?\x00\x00\x00\x00\x00\x00\xf0?\x00\x00\x00\x00\x00\x00\xf0?\x00\x00\x00\x00\x00\x00\xf0?\x00\x00\x00\x00\x00\x00\xf0?\x00\x00\x00\x00\x00\x00\xf0?\x00\x00\x00\x00\x00\x00\xf0?\x00\x00\x00\x00\x00\x00\xf0?\x00\x00\x00\x00\x00\x00\xf0?\x00\x00\x00\x00\x00\x00\xf0?\x00\x00\x00\x00\x00\x00\xf0?\x00\x00\x00\x00\x00\x00\xf0?\x00\x00\x00\x00\x00\x00\xf0?\x00\x00\x00\x00\x00\x00\xf0?\x00\x00\x00\x00\x00\x00\xf0?\x00\x00\x00\x00\x00\x00\xf0?\x00\x00\x00\x00\x00\x00\xf0?\x00\x00\x00\x00\x00\x00\xf0?\x00\x00\x00\x00\x00\x00\xf0?\x00\x00\x00\x00\x00\x00\xf0?\x00\x00\x00\x00\x00\x00\xf0?\x00\x00\x00\x00\x00\x00\xf0?\x00\x00\x00\x00\x00\x00\xf0?\x00\x00\x00\x00\x00\x00\xf0?\x00\x00\x00\x00\x00\x00\xf0?\x00\x00\x00\x00\x00\x00\xf0?\x00\x00\x00\x00\x00\x00\xf0?\x00\x00\x00\x00\x00\x00\xf0?\x00\x00\x00\x00\x00\x00\xf0?\x00\x00\x00\x00\x00\x00\xf0?\x00\x00\x00\x00\x00\x00\xf0?\x00\x00\x00\x00\x00\x00\xf0?\x00\x00\x00\x00\x00\x00\xf0?\x00\x00\x00\x00\x00\x00\xf0?\x00\x00\x00\x00\x00\x00\xf0?\x00\x00\x00\x00\x00\x00\xf0?\x00\x00\x00\x00\x00\x00\xf0?\x00\x00\x00\x00\x00\x00\xf0?\x00\x00\x00\x00\x00\x00\xf0?\x00\x00\x00\x00\x00\x00\xf0?\x00\x00\x00\x00\x00\x00\xf0?\x00\x00\x00\x00\x00\x00\xf0?\x00\x00\x00\x00\x00\x00\xf0?\x00\x00\x00\x00\x00\x00\xf0?\x00\x00\x00\x00\x00\x00\xf0?\x00\x00\x00\x00\x00\x00\xf0?\x00\x00\x00\x00\x00\x00\xf0?\x00\x00\x00\x00\x00\x00\xf0?\x00\x00\x00\x00\x00\x00\xf0?\x00\x00\x00\x00\x00\x00\xf0?\x00\x00\x00\x00\x00\x00\xf0?\x00\x00\x00\x00\x00\x00\xf0?\x00\x00\x00\x00\x00\x00\xf0?\x00\x00\x00\x00\x00\x00\xf0?\x00\x00\x00\x00\x00\x00\xf0?\x00\x00\x00\x00\x00\x00\xf0?\x00\x00\x00\x00\x00\x00\xf0?\x00\x00\x00\x00\x00\x00\xf0?\x00\x00\x00\x00\x00\x00\xf0?\x00\x00\x00\x00\x00\x00\xf0?\x00\x00\x00\x00\x00\x00\xf0?\x00\x00\x00\x00\x00\x00\xf0?\x00\x00\x00\x00\x00\x00\xf0?\x00\x00\x00\x00\x00\x00\xf0?\x00\x00\x00\x00\x00\x00\xf0?\x00\x00\x00\x00\x00\x00\xf0?\x00\x00\x00\x00\x00\x00\xf0?\x00\x00\x00\x00\x00\x00\xf0?\x00\x00\x00\x00\x00\x00\xf0?\x00\x00\x00\x00\x00\x00\xf0?\x00\x00\x00\x00\x00\x00\xf0?\x00\x00\x00\x00\x00\x00\xf0?\x00\x00\x00\x00\x00\x00\xf0?\x00\x00\x00\x00\x00\x00\xf0?\x00\x00\x00\x00\x00\x00\xf0?\x00\x00\x00\x00\x00\x00\xf0?"
p227
tp228
bag214
(g215
(I0
tp229
g217
tp230
Rp231
(I1
(I250
tp232
g221
(S'c8'
p233
I0
I1
tp234
Rp235
(I3
S'<'
p236
NNNI-1
I-1
I0
tp237
bI00
S'\x00\x00\x00\x00\x00\x00\x00\x00\x00\x00\x00\x00\x00\x00\x00\x00\x00\x00\x00\x00\x00\x00\x00\x00\x00\x00\x00\x00\x00\x00\x00\x00\x00\x00\x00\x00\x00\x00\x00\x00\x00\x00\x00\x00\x00\x00\x00\x00\x00\x00\x00\x00\x00\x00\x00\x00\x00\x00\x00\x00\x00\x00\x00\x00\x00\x00\x00\x00\x00\x00\x00\x00\x00\x00\x00\x00\x00\x00\x00\x00\x00\x00\x00\x00\x00\x00\x00\x00\x00\x00\x00\x00\x00\x00\x00\x00\x00\x00\x00\x00\x00\x00\x00\x00\x00\x00\x00\x00\x00\x00\x00\x00\x00\x00\x00\x00\x00\x00\x00\x00\x00\x00\x00\x00\x00\x00\x00\x00\x00\x00\x00\x00\x00\x00\x00\x00\x00\x00\x00\x00\x00\x00\x00\x00\x00\x00\x00\x00\x00\x00\x00\x00\x00\x00\x00\x00\x00\x00\x00\x00\x00\x00\x00\x00\x00\x00\x00\x00\x00\x00\x00\x00\x00\x00\x00\x00\x00\x00\x00\x00\x00\x00\x00\x00\x00\x00\x00\x00\x00\x00\x00\x00\x00\x00\x00\x00\x00\x00\x00\x00\x00\x00\x00\x00\x00\x00\x00\x00\x00\x00\x00\x00\x00\x00\x00\x00\x00\x00\x00\x00\x00\x00\x00\x00\x00\x00\x00\x00\x00\x00\x00\x00\x00\x00\x00\x00\x00\x00\x00\x00\x00\x00\x00\x00\x00\x00\x00\x00\x00\x00\x00\x00\x00\x00\x00\x00\x00\x00\x00\x00\x00\x00\x00\x00\x00\x00\x00\x00\x00\x00\x00\x00\x00\x00\x00\x00\x00\x00\x00\x00\x00\x00\x00\x00\x00\x00\x00\x00\x00\x00\x00\x00\x00\x00\x00\x00\x00\x00\x00\x00\x00\x00\x00\x00\x00\x00\x00\x00\x00\x00\x00\x00\x00\x00\x00\x00\x00\x00\x00\x00\x00\x00\x00\x00\x00\x00\x00\x00\x00\x00\x00\x00\x00\x00\x00\x00\x00\x00\x00\x00\x00\x00\x00\x00\x00\x00\x00\x00\x00\x00\x00\x00\x00\x00\x00\x00\x00\x00\x00\x00\x00\x00\x00\x00\x00\x00\x00\x00\x00\x00\x00\x00\x00\x00\x00\x00\x00\x00\x00\x00\x00\x00\x00\x00\x00\x00\x00\x00\x00\x00\x00\x00\x00\x00\x00\x00\x00\x00\x00\x00\x00\x00\x00\x00\x00\x00\x00\x00\x00\x00\x00\x00\x00\x00\x00\x00\x00\x00\x00\x00\x00\x00\x00\x00\x00\x00\x00\x00\x00\x00\x00\x00\x00\x00\x00\x00\x00\x00\x00\x00\x00\x00\x00\x00\x00\x00\x00\x00\x00\x00\x00\x00\x00\x00\x00\x00\x00\x00\x00\x00\x00\x00\x00\x00\x00\x00\x00\x00\x00\x00\x00\x00\x00\x00\x00\x00\x00\x00\x00\x00\x00\x00\x00\x00\x00\x00\x00\x00\x00\x00\x00\x00\x00\x00\x00\x00\x00\x00\x00\x00\x00\x00\x00\x00\x00\x00\x00\x00\x00\x00\x00\x00\x00\x00\x00\x00\x00\x00\x00\x00\x00\x00\x00\x00\x00\x00\x00\x00\x00\x00\x00\x00\x00\x00\x00\x00\x00\x00\x00\x00\x00\x00\x00\x00\x00\x00\x00\x00\x00\x00\x00\x00\x00\x00\x00\x00\x00\x00\x00\x00\x00\x00\x00\x00\x00\x00\x00\x00\x00\x00\x00\x00\x00\x00\x00\x00\x00\x00\x00\x00\x00\x00\x00\x00\x00\x00\x00\x00\x00\x00\x00\x00\x00\x00\x00\x00\x00\x00\x00\x00\x00\x00\x00\x00\x00\x00\x00\x00\x00\x00\x00\x00\x00\x00\x00\x00\x00\x00\x00\x00\x00\x00\x00\x00\x00\x00\x00\x00\x00\x00\x00\x00\x00\x00\x00\x00\x00\x00\x00\x00\x00\x00\x00\x00\x00\x00\x00\x00\x00\x00\x00\x00\x00\x00\x00\x00\x00\x00\x00\x00\x00\x00\x00\x00\x00\x00\x00\x00\x00\x00\x00\x00\x00\x00\x00\x00\x00\x00\x00\x00\x00\x00\x00\x00\x00\x00\x00\x00\x00\x00\x00\x00\x00\x00\x00\x00\x00\x00\x00\x00\x00\x00\x00\x00\x00\x00\x00\x00\x00\x00\x00\x00\x00\x00\x00\x00\x00\x00\x00\x00\x00\x00\x00\x00\x00\x00\x00\x00\x00\x00\x00\x00\x00\x00\x00\x00\x00\x00\x00\x00\x00\x00\x00\x00\x00\x00\x00\x00\x00\x00\x00\x00\x00\x00\x00\x00\x00\x00\x00\x00\x00\x00\x00\x00\x00\x00\x00\x00\x00\x00\x00\x00\x00\x00\x00\x00\x00\x00\x00\x00\x00\x00\x00\x00\x00\x00\x00\x00\x00\x00\x00\x00\x00\x00\x00\x00\x00\x00\x00\x00\x1cS\x9a\xbb\xbf\xee\x13;5\xe9\xe4<^`><\xb6\xe2y\xbc\x08\xaft\xbb\xf3\xca\x0f\xbba\xff\t\xb9\xa4\xc8\xd2<sM!<\xd6(\xc9\xbc\xb8\xe2\xb9\xba\xaaFa\xb9\x02\xbfK;\xc9\xf1\xf1<\x9bg\xc0;L.\xf8\xbc\x864\x14\xbck\xd62;\xd7\x90\x82:\x00\x0f\r=t\x95$<\xad\xa3\x08\xbd\xfe\x15\x98\xbb\xabl\x11<\xa3\xd7a\xbbLn\x17=\xdd\'\x1d\xbb\xe1.#\xbdE\x87 \xbc\xaa\xef\xb4<\x81\xcbr;\x91\x98>=\xab9\x90;\xac\x99T\xbd\xe5\xb2q\xbc\xeb\xcb\xca<\x91(T\xbc7&<=\xb9\xfb\xe4\xbb3\xdf\x0c\xbd\xc8\xees\xbb\x0e\xa9\t>$\xa8\x9e;\xf3q\xa6=\xf4\xfeF\xbc\xb9\xf7\x18\xbe\t\xdb\x01\xbd\xdd\x12\xd2>\x7f\xf5\x92\xbc\'<|?\x00\x00\x00\x00\xdd\x12\xd2>}\xf5\x92<\xb8\xf7\x18\xbe\x08\xdb\x01=\xf2q\xa6=\xf5\xfeF<\x0e\xa9\t> \xa8\x9e\xbb3\xdf\x0c\xbd\xc8\xees;8&<=\xc4\xfb\xe4;\xee\xcb\xca<\x98(T<\xac\x99T\xbd\xe7\xb2q<\x91\x98>=\xb29\x90\xbb\xa9\xef\xb4<\x82\xcbr\xbb\xe1.#\xbd@\x87 <Ln\x17=\xd9\'\x1d;\xabl\x11<\x95\xd7a;\xae\xa3\x08\xbd\x07\x16\x98;\xff\x0e\r=t\x95$\xbcb\xd62;\xbc\x90\x82\xbaK.\xf8\xbc\x844\x14<\xc7\xf1\xf1<\xa3g\xc0\xbb\xedDa\xb9\r\xbfK\xbb\xd5(\xc9\xbc\xb7\xe2\xb9:\xa8\xc8\xd2<qM!\xbc\xf5\xca\x0f\xbb\xa8\xff\t9\xb7\xe2y\xbc\x16\xaft;9\xe9\xe4<Z`>\xbc\x1cS\x9a\xbb\xbf\xee\x13\xbb\'\xabv\xbc~.3;\xb21\xc5<\x16&\x15\xbc\xbb\x1a\xbe\xbb9\x1f\xe0:\x80\xc0J\xbc\xe1{];\xcc\xd8\xa6<qg\x1f\xbc>U\x0e\xbc\xd7U/;\x02\n/\xbc\x12\xa6\x93;V\xf3\xab<\xbf\x05\x16\xbc\xb0\x0f\xb2\xbb\xbc\xdf\x18;\x02b"\xbc\x98\xd3\x96;\xec-i<,\x1d\xdd\xbb"Q\xef\xbb\xcb*q;\xc2\xe9\xf8\xbb\x06\xe2g;q;D<\xed\xcf\xde\xbb[\x01\xee\xbb\xaf$\x84;\x7f\x80\xb9\xbb\xbab`;\xce\xa2*<\x87\x88\xd1\xbb-\xfb\xd0\xbb\xe9K;;\xac)\x95\xbb9\x1a\xff:oS\xff;*\xf1\xa8\xbb\x93\xb0\xb2\xbb\xaa\x95d;I\x1b\x11\xbbg4+:\x94E\xcd;\xf4d\xc0\xbb\xf2\xdb\xb9\xbbJz7;\xfd\x90\x90\xba\x1fY,:-\xa7\xe0;\x14\x96\x9c\xbb\xed\x1al\xbbx8!;\x88\xcc\x03\xbbX\xca\x07:\xb1Dc;6\xc1k\xbb3\xf3\x02\xbb\x03t\xfb:Z\xe5\x9a:r\x17\x08\xb9\x87\xb24;.B\x02\xbb\xa8\x19\xa0\xbb\x158\x84;*\x9c)\xbb\xc8&\x08;/\xb6\xff:rC\xb3\xbaca\x81\xba%\xc5\xfd:\x97\x94$\xba\x8c\xc0\xb3:\x04b\x9b:e\x8bt\xbaL\x9e)\xb9\xc4\xfb\xd29\x9c?\xbf\xb9\xff\xc7\x81:K\xd5\x02:\x1e\tt9Bl/:K"s\xb9\x8e\x1e\xbf\xb5\x00`59\xed,\xba\xb6\xb0\xae\xae8h\x03\x02:\xd3\x14\xff\xb9\xa0\xc3\x9d\xba\x1fZ\xc6:\x9a\x1c\x93\xba\x1d\x93\xa8:\x9e\xff@:\xfe\x02\x92\xbaKb\xce\xba\xb9?\x06;.\x03\xd6\xba\x1b\xd6\n;\x1e\x81\xd2:\x17J)\xbb\xd5\xdb\x14\xba+e\x1d:\xf4\xb2\x9e\xbaj\xb2\x08;\xaa\x94\xf1:\x8a#\t\xbb\xc3f\xfe\xb8\xf3\xf3V:\x1cm\x06\xb9\x16v\xd09+G/;\xa87\x8d\xbb]\xce\xd3\xb9\x81\x1a\xba:\nX\x8f\xba\x8aeP;r\x00\xbc:k:\xcd\xbas\x84~\xba\x07x\x13;v\xb0\x84\xb9F\xb5W:{\xc72;2\x1c\x92\xbbx\xb6\xe3\xb8\x84K\xe2:^\xdd\xeb\xb9\xf4m\x07;2\xbd\xa7:\r\x1c*\xbb\xec1z\xba\xde\xba\t;\xebx\x929\xb2K\xb1\xb8\xab\xf1\x01;\x01mn\xbbS\xdd\x99\xbaN {;@$.\xba\xb5\x05\xd9:\xc2_6:\xe5\x1a#\xbbGM\xf7\xba\x18\\\xa5;{t\x08\xba\x9aN\xcf:\x9br\xca:\xac1\xa4\xbb\xe5a\x10\xba\x14\x19q:\xed\x0by8\x85&\x8f\xba\x82\xc7\x94:\x9a\xe0\x8c\xbb\x15\xcbA\xba\xc3\xc0=;\xf22\xad\xb8GZ\xa59\x84\xfc#:\xefu>\xbb{U\x80\xbaO\xdc\x85;\xe1\x8a\'8(\x9e[9Q\xf0\x9a:\xd5p\xa5\xbb\xe5\xf1\xfc\xb8\x17=\xb6:0,\xf98\xca\x8c\xd78\xd5\xdd-:E\xcdX\xbb9\r\xbf\xb9\xc6\x06\x17;\xa9\xdf\xba\xb9\x8chd:@\xa4/6\x9a\xeb.\xbbu/\xd5\xb9\xcc\xa6\x02;\xdf\xa3\x9d\xb8\xaby\xa2:\x12Su9\x91\x81\x07\xbb\x89(\xa7\xb9\xa3\x06\xc1:\xb0\xd2\x07\xba\xb0\xfb\xb1:\xc2m\xae\xb9\xeb\xc4\x9b\xba\xe1\xce\x9d\xb9\xc9(\x03;C\x9a\x8e\xb9s\x91\xda:T\xdb\xd2\xb9\x99\xb8+\xbb'
p238
tp239
basS'collapsed'
p240
I00
sS'inport'
p241
I00
sS'visible'
p242
I01
sS'id'
p243
I101880192
ssasg92
S'Relative Filter Position'
p244
ssg94
S'0.0925227022171'
p245
sg41
S'Matplotlib'
p246
sg97
(lp247
F10.970283232637371
aF93.79445872054279
asg99
(lp248
(dp249
g102
S'in0'
p250
sg104
I0
sg105
(lp251
(dp252
g108
(dp253
g110
g250
sg111
I101882776
sg112
I0
sg113
I101877312
ssg114
(dp254
g110
g116
sg111
I101831496
sg112
I0
sg113
I101786440
ssasg117
Nsg118
I65540
sg119
I200
sg120
I101882776
sa(dp255
g102
g128
sg104
I1
sg105
(lp256
(dp257
g108
(dp258
g110
g128
sg111
I101882928
sg112
I1
sg113
I101877312
ssg114
(dp259
g110
g116
sg111
I113218984
sg112
I0
sg113
I109812632
ssasg117
Nsg118
I65540
sg119
I200
sg120
I101882928
sa(dp260
g102
S'in2'
p261
sg104
I2
sg105
(lp262
sg117
Nsg118
I65540
sg119
I200
sg120
I101883080
sa(dp263
g102
S'in3'
p264
sg104
I3
sg105
(lp265
sg117
Nsg118
I65540
sg119
I200
sg120
I101883232
sa(dp266
g102
S'in4'
p267
sg104
I4
sg105
(lp268
sg117
Nsg118
I65540
sg119
I200
sg120
I101883384
sa(dp269
g102
S'in5'
p270
sg104
I5
sg105
(lp271
sg117
Nsg118
I65540
sg119
I200
sg120
I101883536
sa(dp272
g102
S'in6'
p273
sg104
I6
sg105
(lp274
sg117
Nsg118
I65540
sg119
I200
sg120
I101883688
sa(dp275
g102
S'in7'
p276
sg104
I7
sg105
(lp277
sg117
Nsg118
I65540
sg119
I200
sg120
I103727184
sasg130
S'0.00213654996785'
p278
sg132
S'core.display.Matplotlib'
p279
sg120
I101877312
sg134
S'0.0974040031433'
p280
sa(dp281
g34
(dp282
g36
(lp283
(dp284
g39
S"<class 'gpi.widgets.ExclusiveRadioButtons'>"
p285
sg41
g54
sg43
(dp286
S'outport'
p287
I00
sS'quietval'
p288
Nsg47
I0
sS'collapsed'
p289
I00
sS'inport'
p290
I00
sS'visible'
p291
I01
sS'id'
p292
I97360336
ssa(dp293
g39
S"<class 'gpi.widgets.ExclusiveRadioButtons'>"
p294
sg41
S'Combine Operation'
p295
sg43
(dp296
S'outport'
p297
I00
sS'quietval'
p298
Nsg47
I0
sS'collapsed'
p299
I00
sS'inport'
p300
I00
sS'visible'
p301
I00
sS'id'
p302
I97361248
ssa(dp303
g39
S"<class 'gpi.widgets.ExclusivePushButtons'>"
p304
sg41
S'Phase'
p305
sg43
(dp306
S'outport'
p307
I00
sS'quietval'
p308
Nsg47
I0
sS'collapsed'
p309
I00
sS'inport'
p310
I00
sS'visible'
p311
I01
sS'id'
p312
I97366096
ssa(dp313
g39
S"<class 'gpi.widgets.ExclusivePushButtons'>"
p314
sg41
S'OutType'
p315
sg43
(dp316
S'outport'
p317
I00
sS'quietval'
p318
Nsg47
I0
sS'collapsed'
p319
I00
sS'inport'
p320
I00
sS'visible'
p321
I01
sS'id'
p322
I97366704
ssasg92
g93
ssg94
S'0.0940026193857'
p323
sg41
S'ToComplex'
p324
sg97
(lp325
F-69.85911912927514
aF-258.86600709146177
asg99
(lp326
(dp327
g102
g103
sg104
I0
sg105
(lp328
(dp329
g108
(dp330
g110
g103
sg111
I97359880
sg112
I0
sg113
I97357456
ssg114
(dp331
g110
g116
sg111
I97264456
sg112
I0
sg113
I97210752
ssasg117
Nsg118
I65540
sg119
I200
sg120
I97359880
sa(dp332
g102
g122
sg104
I1
sg105
(lp333
sg117
Nsg118
I65540
sg119
I200
sg120
I97360032
sa(dp334
g102
g116
sg104
I0
sg105
(lp335
(dp336
g108
(dp337
g110
S'indata1'
p338
sg111
I97318160
sg112
I0
sg113
I97313608
ssg114
(dp339
g110
g116
sg111
I97360184
sg112
I0
sg113
I97357456
ssasg117
Nsg118
I65541
sg119
Nsg120
I97360184
sasg130
S'0.0102515432189'
p340
sg132
S'core.shapers.ToComplex'
p341
sg120
I97357456
sg134
S'0.106244087219'
p342
sa(dp343
g34
(dp344
g36
(lp345
(dp346
g39
S"<class 'gpi.widgets.ExclusivePushButtons'>"
p347
sg41
g42
sg43
(dp348
S'outport'
p349
I00
sS'quietval'
p350
Nsg47
I0
sS'collapsed'
p351
I00
sS'inport'
p352
I00
sS'visible'
p353
I01
sS'id'
p354
I109761048
ssa(dp355
g39
S"<class 'gpi.widgets.ExclusiveRadioButtons'>"
p356
sg41
g54
sg43
(dp357
S'outport'
p358
I00
sS'quietval'
p359
Nsg47
I2
sS'collapsed'
p360
I00
sS'inport'
p361
I00
sS'visible'
p362
I01
sS'id'
p363
I109761808
ssa(dp364
g39
S"<class 'gpi.widgets.DoubleSpinBox'>"
p365
sg41
g64
sg43
(dp366
S'outport'
p367
I00
sS'quietval'
p368
Nsg47
F1.0
sS'min'
p369
F-1.7976931348623157e+308
sS'max'
p370
F1.7976931348623157e+308
sS'collapsed'
p371
I00
sS'wrapping'
p372
I00
sS'immediate'
p373
I00
sS'label'
p374
g74
sS'singlestep'
p375
F1.0
sS'visible'
p376
I00
sS'inport'
p377
I00
sS'decimals'
p378
I5
sS'id'
p379
I109856168
ssa(dp380
g39
S"<class 'gpi.widgets.PushButton'>"
p381
sg41
g82
sg43
(dp382
S'outport'
p383
I00
sS'quietval'
p384
Nsg47
I01
sS'collapsed'
p385
I00
sS'inport'
p386
I00
sS'visible'
p387
I01
sS'toggle'
p388
I01
sS'button_title'
p389
g74
sS'id'
p390
I109857080
ssasg92
g93
ssg94
S'0.114692766666'
p391
sg41
g96
sg97
(lp392
F-71.0602430442032
aF66.04776384476295
asg99
(lp393
(dp394
g102
g103
sg104
I0
sg105
(lp395
(dp396
g108
(dp397
g110
g103
sg111
I109857840
sg112
I0
sg113
I103819424
ssg114
(dp398
g110
S'outdata'
p399
sg111
I97318464
sg112
I0
sg113
I97313608
ssasg117
Nsg118
I65540
sg119
I200
sg120
I109857840
sa(dp400
g102
g122
sg104
I1
sg105
(lp401
(dp402
g108
(dp403
g110
g122
sg111
I109857992
sg112
I1
sg113
I103819424
ssg114
(dp404
g110
g116
sg111
I101831496
sg112
I0
sg113
I101786440
ssasg117
Nsg118
I65540
sg119
I200
sg120
I109857992
sa(dp405
g102
g116
sg104
I0
sg105
(lp406
(dp407
g108
(dp408
g110
g188
sg111
I101708768
sg112
I0
sg113
I97395680
ssg114
(dp409
g110
g116
sg111
I109858144
sg112
I0
sg113
I103819424
ssasg117
Nsg118
I65541
sg119
Nsg120
I109858144
sasg130
S'0.0062324095884'
p410
sg132
g133
sg120
I103819424
sg134
S'0.127884149551'
p411
sa(dp412
g34
(dp413
g36
(lp414
(dp415
g39
S"<class 'gpi.widgets.ExclusivePushButtons'>"
p416
sg41
S'Complex Display'
p417
sg43
(dp418
S'outport'
p419
I00
sS'quietval'
p420
Nsg47
I4
sS'collapsed'
p421
I00
sS'inport'
p422
I00
sS'visible'
p423
I01
sS'id'
p424
I113157848
ssa(dp425
g39
S"<class 'gpi.widgets.ExclusivePushButtons'>"
p426
sg41
S'Color Map'
p427
sg43
(dp428
S'outport'
p429
I00
sS'quietval'
p430
Nsg47
I0
sS'collapsed'
p431
I01
sS'inport'
p432
I00
sS'visible'
p433
I00
sS'id'
p434
I113158912
ssa(dp435
g39
S"<class 'gpi.widgets.SpinBox'>"
p436
sg41
S'Edge Pixels'
p437
sg43
(dp438
S'outport'
p439
I00
sS'quietval'
p440
Nsg47
I0
sS'min'
p441
I0
sS'max'
p442
I2147483647
sS'collapsed'
p443
I00
sS'wrapping'
p444
I00
sS'immediate'
p445
I00
sS'label'
p446
g74
sS'singlestep'
p447
I1
sS'visible'
p448
I01
sS'inport'
p449
I00
sS'id'
p450
I113115976
ssa(dp451
g39
S"<class 'gpi.widgets.SpinBox'>"
p452
sg41
S'Black Pixels'
p453
sg43
(dp454
S'outport'
p455
I00
sS'quietval'
p456
Nsg47
I0
sS'min'
p457
I0
sS'max'
p458
I2147483647
sS'collapsed'
p459
I00
sS'wrapping'
p460
I00
sS'immediate'
p461
I00
sS'label'
p462
g74
sS'singlestep'
p463
I1
sS'visible'
p464
I01
sS'inport'
p465
I00
sS'id'
p466
I113117040
ssa(dp467
g39
S"<class 'gpi.widgets.DisplayBox'>"
p468
sg41
S'Viewport:'
p469
sg43
(dp470
S'outport'
p471
I00
sS'scale'
p472
F2.0
sS'quietval'
p473
Nsg47
NsS'collapsed'
p474
I00
sS'interp'
p475
I00
sS'inport'
p476
I00
sS'visible'
p477
I01
sS'noscroll'
p478
I01
sS'points'
p479
NsS'line'
p480
NsS'id'
p481
I113117648
ssa(dp482
g39
S"<class '/opt/gpi/lib/core/display/GPI/ImageDisplay_GPI.WindowLevel'>"
p483
sg41
S'L W F C:'
p484
sg43
(dp485
S'outport'
p486
I00
sS'quietval'
p487
Nsg47
(dp488
S'window'
p489
I3
sS'floor'
p490
I0
sS'ceiling'
p491
I2
sS'level'
p492
I1
ssS'min'
p493
I0
sS'max'
p494
I100
sS'collapsed'
p495
I01
sS'inport'
p496
I00
sS'visible'
p497
I01
sS'id'
p498
I113296808
ssa(dp499
g39
S"<class 'gpi.widgets.ExclusivePushButtons'>"
p500
sg41
S'Scalar Display'
p501
sg43
(dp502
S'outport'
p503
I00
sS'quietval'
p504
Nsg47
I0
sS'collapsed'
p505
I00
sS'inport'
p506
I00
sS'visible'
p507
I00
sS'id'
p508
I113211552
ssa(dp509
g39
S"<class 'gpi.widgets.DoubleSpinBox'>"
p510
sg41
S'Gamma'
p511
sg43
(dp512
S'outport'
p513
I00
sS'quietval'
p514
Nsg47
F0.5
sS'min'
p515
F0.1
sS'max'
p516
F10.0
sS'collapsed'
p517
I01
sS'wrapping'
p518
I00
sS'immediate'
p519
I00
sS'label'
p520
g74
sS'singlestep'
p521
F0.05
sS'visible'
p522
I01
sS'inport'
p523
I00
sS'decimals'
p524
I3
sS'id'
p525
I113212312
ssa(dp526
g39
S"<class 'gpi.widgets.ExclusivePushButtons'>"
p527
sg41
S'Zero Ref'
p528
sg43
(dp529
S'outport'
p530
I00
sS'quietval'
p531
Nsg47
I0
sS'collapsed'
p532
I00
sS'inport'
p533
I00
sS'visible'
p534
I00
sS'id'
p535
I113213224
ssa(dp536
g39
S"<class 'gpi.widgets.PushButton'>"
p537
sg41
S'Fix Range'
p538
sg43
(dp539
S'outport'
p540
I00
sS'quietval'
p541
Nsg47
I00
sS'collapsed'
p542
I00
sS'inport'
p543
I00
sS'visible'
p544
I01
sS'toggle'
p545
I01
sS'button_title'
p546
VAuto-Range On
p547
sS'id'
p548
I113185456
ssa(dp549
g39
S"<class 'gpi.widgets.DoubleSpinBox'>"
p550
sg41
S'Range Min'
p551
sg43
(dp552
S'outport'
p553
I00
sS'quietval'
p554
Nsg47
F0.0
sS'min'
p555
F-1.7976931348623157e+308
sS'max'
p556
F1.7976931348623157e+308
sS'collapsed'
p557
I00
sS'wrapping'
p558
I00
sS'immediate'
p559
I00
sS'label'
p560
g74
sS'singlestep'
p561
F1.0
sS'visible'
p562
I00
sS'inport'
p563
I00
sS'decimals'
p564
I2
sS'id'
p565
I113186216
ssa(dp566
g39
S"<class 'gpi.widgets.DoubleSpinBox'>"
p567
sg41
S'Range Max'
p568
sg43
(dp569
S'outport'
p570
I00
sS'quietval'
p571
Nsg47
F0.06
sS'min'
p572
F-1.7976931348623157e+308
sS'max'
p573
F1.7976931348623157e+308
sS'collapsed'
p574
I00
sS'wrapping'
p575
I00
sS'immediate'
p576
I00
sS'label'
p577
g74
sS'singlestep'
p578
F1.0
sS'visible'
p579
I01
sS'inport'
p580
I00
sS'decimals'
p581
I2
sS'id'
p582
I113185000
ssasg92
S'Full k-Space'
p583
ssg94
S'0.00797768514984'
p584
sg41
S'ImageDisplay'
p585
sg97
(lp586
F94.12154409324597
aF233.31862273335744
asg99
(lp587
(dp588
g102
g188
sg104
I0
sg105
(lp589
(dp590
g108
(dp591
g110
g188
sg111
I113187432
sg112
I0
sg113
I88711856
ssg114
(dp592
g110
g116
sg111
I97161904
sg112
I0
sg113
I97196952
ssasg117
Nsg118
I65540
sg119
I100
sg120
I113187432
sa(dp593
g102
g116
sg104
I0
sg105
(lp594
sg117
Nsg118
I65541
sg119
Nsg120
I113186976
sasg130
S'0.00585497011873'
p595
sg132
S'core.display.ImageDisplay'
p596
sg120
I88711856
sg134
S'0.0161609649658'
p597
sa(dp598
g34
(dp599
g36
(lp600
(dp601
g39
S"<class 'gpi.widgets.ExclusivePushButtons'>"
p602
sg41
S'Complex Display'
p603
sg43
(dp604
S'outport'
p605
I00
sS'quietval'
p606
Nsg47
I4
sS'collapsed'
p607
I00
sS'inport'
p608
I00
sS'visible'
p609
I00
sS'id'
p610
I102632496
ssa(dp611
g39
S"<class 'gpi.widgets.ExclusivePushButtons'>"
p612
sg41
S'Color Map'
p613
sg43
(dp614
S'outport'
p615
I00
sS'quietval'
p616
Nsg47
I0
sS'collapsed'
p617
I01
sS'inport'
p618
I00
sS'visible'
p619
I01
sS'id'
p620
I102484128
ssa(dp621
g39
S"<class 'gpi.widgets.SpinBox'>"
p622
sg41
S'Edge Pixels'
p623
sg43
(dp624
S'outport'
p625
I00
sS'quietval'
p626
Nsg47
I0
sS'min'
p627
I0
sS'max'
p628
I2147483647
sS'collapsed'
p629
I00
sS'wrapping'
p630
I00
sS'immediate'
p631
I00
sS'label'
p632
g74
sS'singlestep'
p633
I1
sS'visible'
p634
I00
sS'inport'
p635
I00
sS'id'
p636
I102482152
ssa(dp637
g39
S"<class 'gpi.widgets.SpinBox'>"
p638
sg41
S'Black Pixels'
p639
sg43
(dp640
S'outport'
p641
I00
sS'quietval'
p642
Nsg47
I0
sS'min'
p643
I0
sS'max'
p644
I2147483647
sS'collapsed'
p645
I00
sS'wrapping'
p646
I00
sS'immediate'
p647
I00
sS'label'
p648
g74
sS'singlestep'
p649
I1
sS'visible'
p650
I00
sS'inport'
p651
I00
sS'id'
p652
I102651000
ssa(dp653
g39
S"<class 'gpi.widgets.DisplayBox'>"
p654
sg41
S'Viewport:'
p655
sg43
(dp656
S'outport'
p657
I00
sS'scale'
p658
F1.0
sS'quietval'
p659
Nsg47
NsS'collapsed'
p660
I01
sS'interp'
p661
I00
sS'inport'
p662
I00
sS'visible'
p663
I01
sS'noscroll'
p664
I01
sS'points'
p665
NsS'line'
p666
NsS'id'
p667
I102652064
ssa(dp668
g39
S"<class '/opt/gpi/lib/core/display/GPI/ImageDisplay_GPI.WindowLevel'>"
p669
sg41
S'L W F C:'
p670
sg43
(dp671
S'outport'
p672
I00
sS'quietval'
p673
Nsg47
(dp674
g489
I100
sg490
I0
sg491
I100
sg492
I50
ssS'min'
p675
I0
sS'max'
p676
I100
sS'collapsed'
p677
I01
sS'inport'
p678
I00
sS'visible'
p679
I01
sS'id'
p680
I102508704
ssa(dp681
g39
S"<class 'gpi.widgets.ExclusivePushButtons'>"
p682
sg41
S'Scalar Display'
p683
sg43
(dp684
S'outport'
p685
I00
sS'quietval'
p686
Nsg47
I0
sS'collapsed'
p687
I00
sS'inport'
p688
I00
sS'visible'
p689
I01
sS'id'
p690
I115066128
ssa(dp691
g39
S"<class 'gpi.widgets.DoubleSpinBox'>"
p692
sg41
g511
sg43
(dp693
S'outport'
p694
I00
sS'quietval'
p695
Nsg47
F1.0
sS'min'
p696
F0.1
sS'max'
p697
F10.0
sS'collapsed'
p698
I00
sS'wrapping'
p699
I00
sS'immediate'
p700
I00
sS'label'
p701
g74
sS'singlestep'
p702
F0.05
sS'visible'
p703
I01
sS'inport'
p704
I00
sS'decimals'
p705
I3
sS'id'
p706
I115067800
ssa(dp707
g39
S"<class 'gpi.widgets.ExclusivePushButtons'>"
p708
sg41
S'Zero Ref'
p709
sg43
(dp710
S'outport'
p711
I00
sS'quietval'
p712
Nsg47
I0
sS'collapsed'
p713
I00
sS'inport'
p714
I00
sS'visible'
p715
I01
sS'id'
p716
I115068560
ssa(dp717
g39
S"<class 'gpi.widgets.PushButton'>"
p718
sg41
S'Fix Range'
p719
sg43
(dp720
S'outport'
p721
I00
sS'quietval'
p722
Nsg47
I00
sS'collapsed'
p723
I00
sS'inport'
p724
I00
sS'visible'
p725
I01
sS'toggle'
p726
I01
sS'button_title'
p727
VAuto-Range On
p728
sS'id'
p729
I113141616
ssa(dp730
g39
S"<class 'gpi.widgets.DoubleSpinBox'>"
p731
sg41
S'Range Min'
p732
sg43
(dp733
S'outport'
p734
I00
sS'quietval'
p735
Nsg47
F0.0
sS'min'
p736
F-1.7976931348623157e+308
sS'max'
p737
F1.7976931348623157e+308
sS'collapsed'
p738
I00
sS'wrapping'
p739
I00
sS'immediate'
p740
I00
sS'label'
p741
g74
sS'singlestep'
p742
F1.0
sS'visible'
p743
I01
sS'inport'
p744
I00
sS'decimals'
p745
I2
sS'id'
p746
I113142680
ssa(dp747
g39
S"<class 'gpi.widgets.DoubleSpinBox'>"
p748
sg41
S'Range Max'
p749
sg43
(dp750
S'outport'
p751
I00
sS'quietval'
p752
Nsg47
F1.0
sS'min'
p753
F-1.7976931348623157e+308
sS'max'
p754
F1.7976931348623157e+308
sS'collapsed'
p755
I00
sS'wrapping'
p756
I00
sS'immediate'
p757
I00
sS'label'
p758
g74
sS'singlestep'
p759
F1.0
sS'visible'
p760
I01
sS'inport'
p761
I00
sS'decimals'
p762
I2
sS'id'
p763
I113142376
ssasg92
S'Filter'
p764
ssg94
S'0.00237798690796'
p765
sg41
g585
sg97
(lp766
F112.70886973815757
aF-64.94692849671449
asg99
(lp767
(dp768
g102
g188
sg104
I0
sg105
(lp769
(dp770
g108
(dp771
g110
g188
sg111
I103695784
sg112
I0
sg113
I113184552
ssg114
(dp772
g110
g116
sg111
I103614776
sg112
I0
sg113
I83223520
ssasg117
Nsg118
I65540
sg119
I100
sg120
I103695784
sa(dp773
g102
g116
sg104
I0
sg105
(lp774
sg117
Nsg118
I65541
sg119
Nsg120
I103694720
sasg130
S'0.0'
p775
sg132
g596
sg120
I113184552
sg134
S'0.00237798690796'
p776
sa(dp777
g34
(dp778
g36
(lp779
(dp780
g39
S"<class 'gpi.widgets.ExclusiveRadioButtons'>"
p781
sg41
g54
sg43
(dp782
S'outport'
p783
I00
sS'quietval'
p784
Nsg47
I0
sS'collapsed'
p785
I00
sS'inport'
p786
I00
sS'visible'
p787
I01
sS'id'
p788
I140485364173112
ssa(dp789
g39
S"<class 'gpi.widgets.ExclusiveRadioButtons'>"
p790
sg41
S'Combine Operation'
p791
sg43
(dp792
S'outport'
p793
I00
sS'quietval'
p794
Nsg47
I0
sS'collapsed'
p795
I00
sS'inport'
p796
I00
sS'visible'
p797
I00
sS'id'
p798
I140485364174024
ssa(dp799
g39
S"<class 'gpi.widgets.ExclusivePushButtons'>"
p800
sg41
g305
sg43
(dp801
S'outport'
p802
I00
sS'quietval'
p803
Nsg47
I0
sS'collapsed'
p804
I00
sS'inport'
p805
I00
sS'visible'
p806
I01
sS'id'
p807
I140485364174632
ssa(dp808
g39
S"<class 'gpi.widgets.ExclusivePushButtons'>"
p809
sg41
g315
sg43
(dp810
S'outport'
p811
I00
sS'quietval'
p812
Nsg47
I0
sS'collapsed'
p813
I00
sS'inport'
p814
I00
sS'visible'
p815
I01
sS'id'
p816
I85025304
ssasg92
g93
ssg94
S'0.111060500145'
p817
sg41
g324
sg97
(lp818
F94.12154409324597
aF173.31862273335744
asg99
(lp819
(dp820
g102
g103
sg104
I0
sg105
(lp821
(dp822
g108
(dp823
g110
g103
sg111
I140485364172656
sg112
I0
sg113
I102707584
ssg114
(dp824
g110
g116
sg111
I85005432
sg112
I0
sg113
I102628400
ssasg117
Nsg118
I65540
sg119
I200
sg120
I140485364172656
sa(dp825
g102
g122
sg104
I1
sg105
(lp826
sg117
Nsg118
I65540
sg119
I200
sg120
I140485364172808
sa(dp827
g102
g116
sg104
I0
sg105
(lp828
(dp829
g108
(dp830
g110
g188
sg111
I97162816
sg112
I0
sg113
I97196952
ssg114
(dp831
g110
g116
sg111
I140485364172960
sg112
I0
sg113
I102707584
ssasg117
Nsg118
I65541
sg119
Nsg120
I140485364172960
sasg130
S'0.00464467779158'
p832
sg132
g341
sg120
I102707584
sg134
S'0.103615045547'
p833
sa(dp834
g34
(dp835
g36
(lp836
(dp837
g39
S"<class 'gpi.widgets.TextBox'>"
p838
sg41
S'I/O Info:'
p839
sg43
(dp840
S'outport'
p841
I00
sS'quietval'
p842
Nsg47
S'input: (250, 250)\noutput: (250,)'
p843
sS'collapsed'
p844
I00
sS'inport'
p845
I00
sS'visible'
p846
I01
sS'wordwrap'
p847
I00
sS'id'
p848
I114947648
ssa(dp849
g39
S"<class '/opt/gpi/lib/core/shapers/GPI/Reduce_GPI.ReduceSliders'>"
p850
sg41
S'Dimension[-1]'
p851
sg43
(dp852
S'outport'
p853
I00
sS'quietval'
p854
Nsg47
(dp855
S'width'
p856
I250
sg491
I250
sS'selection'
p857
I3
sS'center'
p858
I126
sg490
I1
ssS'min'
p859
I1
sS'max'
p860
I250
sS'collapsed'
p861
I00
sS'inport'
p862
I00
sS'visible'
p863
I01
sS'id'
p864
I114948104
ssa(dp865
g39
S"<class '/opt/gpi/lib/core/shapers/GPI/Reduce_GPI.ReduceSliders'>"
p866
sg41
S'Dimension[-2]'
p867
sg43
(dp868
S'outport'
p869
I00
sS'quietval'
p870
Nsg47
(dp871
g856
I1
sg491
I126
sg857
I2
sg858
I126
sg490
I126
ssS'min'
p872
I1
sS'max'
p873
I250
sS'collapsed'
p874
I00
sS'inport'
p875
I00
sS'visible'
p876
I01
sS'id'
p877
I114953112
ssa(dp878
g39
S"<class '/opt/gpi/lib/core/shapers/GPI/Reduce_GPI.ReduceSliders'>"
p879
sg41
S'Dimension[-3]'
p880
sg43
(dp881
S'outport'
p882
I00
sS'quietval'
p883
Nsg47
(dp884
g856
I1
sg491
I1
sg857
I3
sg858
I1
sg490
I1
ssS'min'
p885
I1
sS'max'
p886
I100
sS'collapsed'
p887
I00
sS'inport'
p888
I00
sS'visible'
p889
I00
sS'id'
p890
I114966312
ssa(dp891
g39
S"<class '/opt/gpi/lib/core/shapers/GPI/Reduce_GPI.ReduceSliders'>"
p892
sg41
S'Dimension[-4]'
p893
sg43
(dp894
S'outport'
p895
I00
sS'quietval'
p896
Nsg47
(dp897
g856
I1
sg491
I1
sg857
I3
sg858
I1
sg490
I1
ssS'min'
p898
I1
sS'max'
p899
I100
sS'collapsed'
p900
I00
sS'inport'
p901
I00
sS'visible'
p902
I00
sS'id'
p903
I114987848
ssa(dp904
g39
S"<class '/opt/gpi/lib/core/shapers/GPI/Reduce_GPI.ReduceSliders'>"
p905
sg41
S'Dimension[-5]'
p906
sg43
(dp907
S'outport'
p908
I00
sS'quietval'
p909
Nsg47
(dp910
g856
I1
sg491
I1
sg857
I3
sg858
I1
sg490
I1
ssS'min'
p911
I1
sS'max'
p912
I100
sS'collapsed'
p913
I00
sS'inport'
p914
I00
sS'visible'
p915
I00
sS'id'
p916
I114992856
ssa(dp917
g39
S"<class '/opt/gpi/lib/core/shapers/GPI/Reduce_GPI.ReduceSliders'>"
p918
sg41
S'Dimension[-6]'
p919
sg43
(dp920
S'outport'
p921
I00
sS'quietval'
p922
Nsg47
(dp923
g856
I1
sg491
I1
sg857
I3
sg858
I1
sg490
I1
ssS'min'
p924
I1
sS'max'
p925
I100
sS'collapsed'
p926
I00
sS'inport'
p927
I00
sS'visible'
p928
I00
sS'id'
p929
I114997864
ssa(dp930
g39
S"<class '/opt/gpi/lib/core/shapers/GPI/Reduce_GPI.ReduceSliders'>"
p931
sg41
S'Dimension[-7]'
p932
sg43
(dp933
S'outport'
p934
I00
sS'quietval'
p935
Nsg47
(dp936
g856
I1
sg491
I1
sg857
I3
sg858
I1
sg490
I1
ssS'min'
p937
I1
sS'max'
p938
I100
sS'collapsed'
p939
I00
sS'inport'
p940
I00
sS'visible'
p941
I00
sS'id'
p942
I115002872
ssa(dp943
g39
S"<class '/opt/gpi/lib/core/shapers/GPI/Reduce_GPI.ReduceSliders'>"
p944
sg41
S'Dimension[-8]'
p945
sg43
(dp946
S'outport'
p947
I00
sS'quietval'
p948
Nsg47
(dp949
g856
I1
sg491
I1
sg857
I3
sg858
I1
sg490
I1
ssS'min'
p950
I1
sS'max'
p951
I100
sS'collapsed'
p952
I00
sS'inport'
p953
I00
sS'visible'
p954
I00
sS'id'
p955
I115008024
ssa(dp956
g39
S"<class '/opt/gpi/lib/core/shapers/GPI/Reduce_GPI.ReduceSliders'>"
p957
sg41
S'Dimension[-9]'
p958
sg43
(dp959
S'outport'
p960
I00
sS'quietval'
p961
Nsg47
(dp962
g856
I1
sg491
I1
sg857
I3
sg858
I1
sg490
I1
ssS'min'
p963
I1
sS'max'
p964
I100
sS'collapsed'
p965
I00
sS'inport'
p966
I00
sS'visible'
p967
I00
sS'id'
p968
I115013032
ssa(dp969
g39
S"<class '/opt/gpi/lib/core/shapers/GPI/Reduce_GPI.ReduceSliders'>"
p970
sg41
S'Dimension[-10]'
p971
sg43
(dp972
S'outport'
p973
I00
sS'quietval'
p974
Nsg47
(dp975
g856
I1
sg491
I1
sg857
I3
sg858
I1
sg490
I1
ssS'min'
p976
I1
sS'max'
p977
I100
sS'collapsed'
p978
I00
sS'inport'
p979
I00
sS'visible'
p980
I00
sS'id'
p981
I115018040
ssa(dp982
g39
S"<class 'gpi.widgets.PushButton'>"
p983
sg41
S'Mask'
p984
sg43
(dp985
S'outport'
p986
I00
sS'quietval'
p987
Nsg47
I00
sS'collapsed'
p988
I00
sS'inport'
p989
I00
sS'visible'
p990
I01
sS'toggle'
p991
I01
sS'button_title'
p992
g74
sS'id'
p993
I115023048
ssa(dp994
g39
S"<class 'gpi.widgets.PushButton'>"
p995
sg41
S'Compute'
p996
sg43
(dp997
S'outport'
p998
I00
sS'quietval'
p999
Nsg47
I01
sS'collapsed'
p1000
I00
sS'inport'
p1001
I00
sS'visible'
p1002
I01
sS'toggle'
p1003
I01
sS'button_title'
p1004
g74
sS'id'
p1005
I115023952
ssasg92
g93
ssg94
S'0.105843508785'
p1006
sg41
S'Reduce'
p1007
sg97
(lp1008
F10.970283232637371
aF33.79445872054279
asg99
(lp1009
(dp1010
g102
g188
sg104
I0
sg105
(lp1011
(dp1012
g108
(dp1013
g110
g188
sg111
I115024712
sg112
I0
sg113
I114977536
ssg114
(dp1014
g110
g399
sg111
I97318464
sg112
I0
sg113
I97313608
ssasg117
Nsg118
I65540
sg119
I100
sg120
I115024712
sa(dp1015
g102
g116
sg104
I0
sg105
(lp1016
(dp1017
g108
(dp1018
g110
g103
sg111
I113218680
sg112
I0
sg113
I109812632
ssg114
(dp1019
g110
g116
sg111
I115024864
sg112
I0
sg113
I114977536
ssasg117
Nsg118
I65541
sg119
Nsg120
I115024864
sa(dp1020
g102
S'mask'
p1021
sg104
I1
sg105
(lp1022
sg117
Nsg118
I65541
sg119
Nsg120
I115025016
sasg130
S'0.006096913361'
p1023
sg132
S'core.shapers.Reduce'
p1024
sg120
I114977536
sg134
S'0.11212682724'
p1025
sa(dp1026
g34
(dp1027
g36
(lp1028
(dp1029
g39
S"<class 'gpi.widgets.ExclusivePushButtons'>"
p1030
sg41
S'Dimensions'
p1031
sg43
(dp1032
S'outport'
p1033
I00
sS'quietval'
p1034
Nsg47
I0
sS'collapsed'
p1035
I00
sS'inport'
p1036
I00
sS'visible'
p1037
I01
sS'id'
p1038
I88681520
ssa(dp1039
g39
S"<class 'gpi.widgets.ExclusiveRadioButtons'>"
p1040
sg41
S'Function'
p1041
sg43
(dp1042
S'outport'
p1043
I00
sS'quietval'
p1044
Nsg47
I2
sS'collapsed'
p1045
I00
sS'inport'
p1046
I00
sS'visible'
p1047
I01
sS'id'
p1048
I88682280
ssa(dp1049
g39
S"<class 'gpi.widgets.PushButton'>"
p1050
sg41
g996
sg43
(dp1051
S'outport'
p1052
I00
sS'quietval'
p1053
Nsg47
I01
sS'collapsed'
p1054
I00
sS'inport'
p1055
I00
sS'visible'
p1056
I01
sS'toggle'
p1057
I01
sS'button_title'
p1058
VON
p1059
sS'id'
p1060
I88716256
ssa(dp1061
g39
S"<class 'gpi.widgets.PushButton'>"
p1062
sg41
S'Equal Dimensions'
p1063
sg43
(dp1064
S'outport'
p1065
I00
sS'quietval'
p1066
Nsg47
I00
sS'collapsed'
p1067
I00
sS'inport'
p1068
I00
sS'visible'
p1069
I01
sS'toggle'
p1070
I01
sS'button_title'
p1071
g74
sS'id'
p1072
I88717016
ssa(dp1073
g39
S"<class '/opt/gpi/lib/core/generators/GPI/Shapes_GPI.SHAPES_GROUP'>"
p1074
sg41
S'Dimension: 1'
p1075
sg43
(dp1076
S'outport'
p1077
I00
sS'quietval'
p1078
Nsg47
(dp1079
g856
I250
sS'size'
p1080
I250
ssS'collapsed'
p1081
I00
sS'inport'
p1082
I00
sS'visible'
p1083
I01
sS'id'
p1084
I88717776
ssa(dp1085
g39
S"<class '/opt/gpi/lib/core/generators/GPI/Shapes_GPI.SHAPES_GROUP'>"
p1086
sg41
S'Dimension: 2'
p1087
sg43
(dp1088
S'outport'
p1089
I00
sS'quietval'
p1090
Nsg47
(dp1091
g856
I1
sg1080
I1
ssS'collapsed'
p1092
I00
sS'inport'
p1093
I00
sS'visible'
p1094
I00
sS'id'
p1095
I88593072
ssa(dp1096
g39
S"<class '/opt/gpi/lib/core/generators/GPI/Shapes_GPI.SHAPES_GROUP'>"
p1097
sg41
S'Dimension: 3'
p1098
sg43
(dp1099
S'outport'
p1100
I00
sS'quietval'
p1101
Nsg47
(dp1102
g856
I1
sg1080
I1
ssS'collapsed'
p1103
I00
sS'inport'
p1104
I00
sS'visible'
p1105
I00
sS'id'
p1106
I88595200
ssa(dp1107
g39
S"<class 'gpi.widgets.SpinBox'>"
p1108
sg41
S'Veclen:'
p1109
sg43
(dp1110
S'outport'
p1111
I00
sS'quietval'
p1112
Nsg47
I1
sS'min'
p1113
I1
sS'max'
p1114
I2147483647
sS'collapsed'
p1115
I00
sS'wrapping'
p1116
I00
sS'immediate'
p1117
I00
sS'label'
p1118
g74
sS'singlestep'
p1119
I1
sS'visible'
p1120
I01
sS'inport'
p1121
I00
sS'id'
p1122
I101733344
ssa(dp1123
g39
S"<class 'gpi.widgets.DoubleSpinBox'>"
p1124
sg41
S'Pass Value:'
p1125
sg43
(dp1126
S'outport'
p1127
I00
sS'quietval'
p1128
Nsg47
F1.0
sS'min'
p1129
F-1.7976931348623157e+308
sS'max'
p1130
F1.7976931348623157e+308
sS'collapsed'
p1131
I00
sS'wrapping'
p1132
I00
sS'immediate'
p1133
I00
sS'label'
p1134
g74
sS'singlestep'
p1135
F1.0
sS'visible'
p1136
I01
sS'inport'
p1137
I00
sS'decimals'
p1138
I5
sS'id'
p1139
I101734256
ssa(dp1140
g39
S"<class 'gpi.widgets.DoubleSpinBox'>"
p1141
sg41
S'Stop Value:'
p1142
sg43
(dp1143
S'outport'
p1144
I00
sS'quietval'
p1145
Nsg47
F0.0
sS'min'
p1146
F-1.7976931348623157e+308
sS'max'
p1147
F1.7976931348623157e+308
sS'collapsed'
p1148
I00
sS'wrapping'
p1149
I00
sS'immediate'
p1150
I00
sS'label'
p1151
g74
sS'singlestep'
p1152
F1.0
sS'visible'
p1153
I01
sS'inport'
p1154
I00
sS'decimals'
p1155
I5
sS'id'
p1156
I101735168
ssa(dp1157
g39
S"<class 'gpi.widgets.Slider'>"
p1158
sg41
S'Window:'
p1159
sg43
(dp1160
S'outport'
p1161
I00
sS'quietval'
p1162
Nsg47
I40
sS'min'
p1163
I0
sS'max'
p1164
I100
sS'collapsed'
p1165
I00
sS'inport'
p1166
I00
sS'visible'
p1167
I01
sS'id'
p1168
I101736080
ssa(dp1169
g39
S"<class 'gpi.widgets.DoubleSpinBox'>"
p1170
sg41
S'Poly Const:'
p1171
sg43
(dp1172
S'outport'
p1173
I00
sS'quietval'
p1174
Nsg47
F0.0
sS'min'
p1175
F-1.7976931348623157e+308
sS'max'
p1176
F1.7976931348623157e+308
sS'collapsed'
p1177
I00
sS'wrapping'
p1178
I00
sS'immediate'
p1179
I00
sS'label'
p1180
g74
sS'singlestep'
p1181
F1.0
sS'visible'
p1182
I00
sS'inport'
p1183
I00
sS'decimals'
p1184
I5
sS'id'
p1185
I101741536
ssa(dp1186
g39
S"<class 'gpi.widgets.DoubleSpinBox'>"
p1187
sg41
S'Poly i:'
p1188
sg43
(dp1189
S'outport'
p1190
I00
sS'quietval'
p1191
Nsg47
F0.0
sS'min'
p1192
F-1.7976931348623157e+308
sS'max'
p1193
F1.7976931348623157e+308
sS'collapsed'
p1194
I00
sS'wrapping'
p1195
I00
sS'immediate'
p1196
I00
sS'label'
p1197
g74
sS'singlestep'
p1198
F1.0
sS'visible'
p1199
I00
sS'inport'
p1200
I00
sS'decimals'
p1201
I5
sS'id'
p1202
I101742448
ssa(dp1203
g39
S"<class 'gpi.widgets.DoubleSpinBox'>"
p1204
sg41
S'Poly i^2:'
p1205
sg43
(dp1206
S'outport'
p1207
I00
sS'quietval'
p1208
Nsg47
F0.0
sS'min'
p1209
F-1.7976931348623157e+308
sS'max'
p1210
F1.7976931348623157e+308
sS'collapsed'
p1211
I00
sS'wrapping'
p1212
I00
sS'immediate'
p1213
I00
sS'label'
p1214
g74
sS'singlestep'
p1215
F1.0
sS'visible'
p1216
I00
sS'inport'
p1217
I00
sS'decimals'
p1218
I5
sS'id'
p1219
I101743360
ssa(dp1220
g39
S"<class 'gpi.widgets.DoubleSpinBox'>"
p1221
sg41
S'Poly j:'
p1222
sg43
(dp1223
S'outport'
p1224
I00
sS'quietval'
p1225
Nsg47
F0.0
sS'min'
p1226
F-1.7976931348623157e+308
sS'max'
p1227
F1.7976931348623157e+308
sS'collapsed'
p1228
I00
sS'wrapping'
p1229
I00
sS'immediate'
p1230
I00
sS'label'
p1231
g74
sS'singlestep'
p1232
F1.0
sS'visible'
p1233
I00
sS'inport'
p1234
I00
sS'decimals'
p1235
I5
sS'id'
p1236
I101744272
ssa(dp1237
g39
S"<class 'gpi.widgets.DoubleSpinBox'>"
p1238
sg41
S'Poly j^2:'
p1239
sg43
(dp1240
S'outport'
p1241
I00
sS'quietval'
p1242
Nsg47
F0.0
sS'min'
p1243
F-1.7976931348623157e+308
sS'max'
p1244
F1.7976931348623157e+308
sS'collapsed'
p1245
I00
sS'wrapping'
p1246
I00
sS'immediate'
p1247
I00
sS'label'
p1248
g74
sS'singlestep'
p1249
F1.0
sS'visible'
p1250
I00
sS'inport'
p1251
I00
sS'decimals'
p1252
I5
sS'id'
p1253
I101745328
ssa(dp1254
g39
S"<class 'gpi.widgets.DoubleSpinBox'>"
p1255
sg41
S'Poly k:'
p1256
sg43
(dp1257
S'outport'
p1258
I00
sS'quietval'
p1259
Nsg47
F0.0
sS'min'
p1260
F-1.7976931348623157e+308
sS'max'
p1261
F1.7976931348623157e+308
sS'collapsed'
p1262
I00
sS'wrapping'
p1263
I00
sS'immediate'
p1264
I00
sS'label'
p1265
g74
sS'singlestep'
p1266
F1.0
sS'visible'
p1267
I00
sS'inport'
p1268
I00
sS'decimals'
p1269
I5
sS'id'
p1270
I101746240
ssa(dp1271
g39
S"<class 'gpi.widgets.DoubleSpinBox'>"
p1272
sg41
S'Poly k^2:'
p1273
sg43
(dp1274
S'outport'
p1275
I00
sS'quietval'
p1276
Nsg47
F0.0
sS'min'
p1277
F-1.7976931348623157e+308
sS'max'
p1278
F1.7976931348623157e+308
sS'collapsed'
p1279
I00
sS'wrapping'
p1280
I00
sS'immediate'
p1281
I00
sS'label'
p1282
g74
sS'singlestep'
p1283
F1.0
sS'visible'
p1284
I00
sS'inport'
p1285
I00
sS'decimals'
p1286
I5
sS'id'
p1287
I101747152
ssa(dp1288
g39
S"<class 'gpi.widgets.DoubleSpinBox'>"
p1289
sg41
S'Noise Std:'
p1290
sg43
(dp1291
S'outport'
p1292
I00
sS'quietval'
p1293
Nsg47
F1.0
sS'min'
p1294
F-1.7976931348623157e+308
sS'max'
p1295
F1.7976931348623157e+308
sS'collapsed'
p1296
I00
sS'wrapping'
p1297
I00
sS'immediate'
p1298
I00
sS'label'
p1299
g74
sS'singlestep'
p1300
F1.0
sS'visible'
p1301
I00
sS'inport'
p1302
I00
sS'decimals'
p1303
I5
sS'id'
p1304
I101748064
ssasg92
g93
ssg94
S'0.101332089901'
p1305
sg41
S'Shapes'
p1306
sg97
(lp1307
F-0.4627034903387255
aF-99.94692849671449
asg99
(lp1308
(dp1309
g102
g188
sg104
I0
sg105
(lp1310
sg117
Nsg118
I65540
sg119
I200
sg120
I101753216
sa(dp1311
g102
g116
sg104
I0
sg105
(lp1312
(dp1313
g108
(dp1314
g110
g188
sg111
I101831344
sg112
I0
sg113
I101786440
ssg114
(dp1315
g110
g116
sg111
I101753368
sg112
I0
sg113
I88678784
ssasg117
Nsg118
I65541
sg119
Nsg120
I101753368
sasg130
S'0.0072923203663'
p1316
sg132
S'core.generators.Shapes'
p1317
sg120
I88678784
sg134
S'0.111593961716'
p1318
sa(dp1319
g34
(dp1320
g36
(lp1321
(dp1322
g39
S"<class 'gpi.widgets.ExclusivePushButtons'>"
p1323
sg41
S'Complex Display'
p1324
sg43
(dp1325
S'outport'
p1326
I00
sS'quietval'
p1327
Nsg47
I0
sS'collapsed'
p1328
I00
sS'inport'
p1329
I00
sS'visible'
p1330
I00
sS'id'
p1331
I88615528
ssa(dp1332
g39
S"<class 'gpi.widgets.ExclusivePushButtons'>"
p1333
sg41
S'Color Map'
p1334
sg43
(dp1335
S'outport'
p1336
I00
sS'quietval'
p1337
Nsg47
I0
sS'collapsed'
p1338
I00
sS'inport'
p1339
I00
sS'visible'
p1340
I01
sS'id'
p1341
I88616592
ssa(dp1342
g39
S"<class 'gpi.widgets.SpinBox'>"
p1343
sg41
S'Edge Pixels'
p1344
sg43
(dp1345
S'outport'
p1346
I00
sS'quietval'
p1347
Nsg47
I0
sS'min'
p1348
I0
sS'max'
p1349
I2147483647
sS'collapsed'
p1350
I00
sS'wrapping'
p1351
I00
sS'immediate'
p1352
I00
sS'label'
p1353
g74
sS'singlestep'
p1354
I1
sS'visible'
p1355
I00
sS'inport'
p1356
I00
sS'id'
p1357
I88544224
ssa(dp1358
g39
S"<class 'gpi.widgets.SpinBox'>"
p1359
sg41
S'Black Pixels'
p1360
sg43
(dp1361
S'outport'
p1362
I00
sS'quietval'
p1363
Nsg47
I0
sS'min'
p1364
I0
sS'max'
p1365
I2147483647
sS'collapsed'
p1366
I00
sS'wrapping'
p1367
I00
sS'immediate'
p1368
I00
sS'label'
p1369
g74
sS'singlestep'
p1370
I1
sS'visible'
p1371
I00
sS'inport'
p1372
I00
sS'id'
p1373
I88545136
ssa(dp1374
g39
S"<class 'gpi.widgets.DisplayBox'>"
p1375
sg41
S'Viewport:'
p1376
sg43
(dp1377
S'outport'
p1378
I00
sS'scale'
p1379
F1.8000000000000007
sS'quietval'
p1380
Nsg47
NsS'collapsed'
p1381
I00
sS'interp'
p1382
I00
sS'inport'
p1383
I00
sS'visible'
p1384
I01
sS'noscroll'
p1385
I01
sS'points'
p1386
NsS'line'
p1387
NsS'id'
p1388
I88546048
ssa(dp1389
g39
S"<class '/opt/gpi/lib/core/display/GPI/ImageDisplay_GPI.WindowLevel'>"
p1390
sg41
S'L W F C:'
p1391
sg43
(dp1392
S'outport'
p1393
I00
sS'quietval'
p1394
Nsg47
(dp1395
g489
I100
sg490
I0
sg491
I100
sg492
I50
ssS'min'
p1396
I0
sS'max'
p1397
I100
sS'collapsed'
p1398
I01
sS'inport'
p1399
I00
sS'visible'
p1400
I01
sS'id'
p1401
I88487184
ssa(dp1402
g39
S"<class 'gpi.widgets.ExclusivePushButtons'>"
p1403
sg41
S'Scalar Display'
p1404
sg43
(dp1405
S'outport'
p1406
I00
sS'quietval'
p1407
Nsg47
I0
sS'collapsed'
p1408
I00
sS'inport'
p1409
I00
sS'visible'
p1410
I01
sS'id'
p1411
I88496136
ssa(dp1412
g39
S"<class 'gpi.widgets.DoubleSpinBox'>"
p1413
sg41
g511
sg43
(dp1414
S'outport'
p1415
I00
sS'quietval'
p1416
Nsg47
F1.0
sS'min'
p1417
F0.1
sS'max'
p1418
F10.0
sS'collapsed'
p1419
I00
sS'wrapping'
p1420
I00
sS'immediate'
p1421
I00
sS'label'
p1422
g74
sS'singlestep'
p1423
F0.05
sS'visible'
p1424
I01
sS'inport'
p1425
I00
sS'decimals'
p1426
I3
sS'id'
p1427
I88496896
ssa(dp1428
g39
S"<class 'gpi.widgets.ExclusivePushButtons'>"
p1429
sg41
S'Zero Ref'
p1430
sg43
(dp1431
S'outport'
p1432
I00
sS'quietval'
p1433
Nsg47
I0
sS'collapsed'
p1434
I00
sS'inport'
p1435
I00
sS'visible'
p1436
I01
sS'id'
p1437
I88497808
ssa(dp1438
g39
S"<class 'gpi.widgets.PushButton'>"
p1439
sg41
S'Fix Range'
p1440
sg43
(dp1441
S'outport'
p1442
I00
sS'quietval'
p1443
Nsg47
I00
sS'collapsed'
p1444
I00
sS'inport'
p1445
I00
sS'visible'
p1446
I01
sS'toggle'
p1447
I01
sS'button_title'
p1448
VAuto-Range On
p1449
sS'id'
p1450
I97338032
ssa(dp1451
g39
S"<class 'gpi.widgets.DoubleSpinBox'>"
p1452
sg41
S'Range Min'
p1453
sg43
(dp1454
S'outport'
p1455
I00
sS'quietval'
p1456
Nsg47
F-0.0
sS'min'
p1457
F-1.7976931348623157e+308
sS'max'
p1458
F1.7976931348623157e+308
sS'collapsed'
p1459
I00
sS'wrapping'
p1460
I00
sS'immediate'
p1461
I00
sS'label'
p1462
g74
sS'singlestep'
p1463
F1.0
sS'visible'
p1464
I01
sS'inport'
p1465
I00
sS'decimals'
p1466
I2
sS'id'
p1467
I97338792
ssa(dp1468
g39
S"<class 'gpi.widgets.DoubleSpinBox'>"
p1469
sg41
S'Range Max'
p1470
sg43
(dp1471
S'outport'
p1472
I00
sS'quietval'
p1473
Nsg47
F0.5
sS'min'
p1474
F-1.7976931348623157e+308
sS'max'
p1475
F1.7976931348623157e+308
sS'collapsed'
p1476
I00
sS'wrapping'
p1477
I00
sS'immediate'
p1478
I00
sS'label'
p1479
g74
sS'singlestep'
p1480
F1.0
sS'visible'
p1481
I01
sS'inport'
p1482
I00
sS'decimals'
p1483
I2
sS'id'
p1484
I97339704
ssasg92
g93
ssg94
S'0.00955579042435'
p1485
sg41
g585
sg97
(lp1486
F-71.7382205123583
aF242.1740111616373
asg99
(lp1487
(dp1488
g102
g188
sg104
I0
sg105
(lp1489
(dp1490
g108
(dp1491
g110
g188
sg111
I97340616
sg112
I0
sg113
I88583976
ssg114
(dp1492
g110
g116
sg111
I85005432
sg112
I0
sg113
I102628400
ssasg117
Nsg118
I65540
sg119
I100
sg120
I97340616
sa(dp1493
g102
g116
sg104
I0
sg105
(lp1494
sg117
Nsg118
I65541
sg119
Nsg120
I97340768
sasg130
S'0.00468507690947'
p1495
sg132
g596
sg120
I88583976
sg134
S'0.00302600860596'
p1496
sa(dp1497
g34
(dp1498
g36
(lp1499
(dp1500
g39
S"<class '/opt/gpi/lib/core/math/GPI/FFTW_GPI.FFTW_GROUP'>"
p1501
sg41
S'Dimension[-1]'
p1502
sg43
(dp1503
S'outport'
p1504
I00
sS'quietval'
p1505
Nsg47
(dp1506
S'length'
p1507
I250
sS'in_len'
p1508
I250
sg82
I01
ssS'collapsed'
p1509
I00
sS'inport'
p1510
I00
sS'visible'
p1511
I01
sS'id'
p1512
I84877096
ssa(dp1513
g39
S"<class '/opt/gpi/lib/core/math/GPI/FFTW_GPI.FFTW_GROUP'>"
p1514
sg41
S'Dimension[-2]'
p1515
sg43
(dp1516
S'outport'
p1517
I00
sS'quietval'
p1518
Nsg47
(dp1519
g1507
I250
sg1508
I250
sg82
I01
ssS'collapsed'
p1520
I00
sS'inport'
p1521
I00
sS'visible'
p1522
I01
sS'id'
p1523
I88610824
ssa(dp1524
g39
S"<class '/opt/gpi/lib/core/math/GPI/FFTW_GPI.FFTW_GROUP'>"
p1525
sg41
S'Dimension[-3]'
p1526
sg43
(dp1527
S'outport'
p1528
I00
sS'quietval'
p1529
Nsg47
(dp1530
g1507
I1
sg1508
I1
sg82
I00
ssS'collapsed'
p1531
I00
sS'inport'
p1532
I00
sS'visible'
p1533
I00
sS'id'
p1534
I88548928
ssa(dp1535
g39
S"<class '/opt/gpi/lib/core/math/GPI/FFTW_GPI.FFTW_GROUP'>"
p1536
sg41
S'Dimension[-4]'
p1537
sg43
(dp1538
S'outport'
p1539
I00
sS'quietval'
p1540
Nsg47
(dp1541
g1507
I1
sg1508
I1
sg82
I00
ssS'collapsed'
p1542
I00
sS'inport'
p1543
I00
sS'visible'
p1544
I00
sS'id'
p1545
I88551056
ssa(dp1546
g39
S"<class '/opt/gpi/lib/core/math/GPI/FFTW_GPI.FFTW_GROUP'>"
p1547
sg41
S'Dimension[-5]'
p1548
sg43
(dp1549
S'outport'
p1550
I00
sS'quietval'
p1551
Nsg47
(dp1552
g1507
I1
sg1508
I1
sg82
I00
ssS'collapsed'
p1553
I00
sS'inport'
p1554
I00
sS'visible'
p1555
I00
sS'id'
p1556
I84825360
ssa(dp1557
g39
S"<class '/opt/gpi/lib/core/math/GPI/FFTW_GPI.FFTW_GROUP'>"
p1558
sg41
S'Dimension[-6]'
p1559
sg43
(dp1560
S'outport'
p1561
I00
sS'quietval'
p1562
Nsg47
(dp1563
g1507
I1
sg1508
I1
sg82
I00
ssS'collapsed'
p1564
I00
sS'inport'
p1565
I00
sS'visible'
p1566
I00
sS'id'
p1567
I94154832
ssa(dp1568
g39
S"<class 'gpi.widgets.PushButton'>"
p1569
sg41
S'inverse'
p1570
sg43
(dp1571
S'outport'
p1572
I00
sS'quietval'
p1573
Nsg47
I01
sS'collapsed'
p1574
I00
sS'inport'
p1575
I00
sS'visible'
p1576
I01
sS'toggle'
p1577
I01
sS'button_title'
p1578
g74
sS'id'
p1579
I94163480
ssa(dp1580
g39
S"<class 'gpi.widgets.PushButton'>"
p1581
sg41
g82
sg43
(dp1582
S'outport'
p1583
I00
sS'quietval'
p1584
Nsg47
I01
sS'collapsed'
p1585
I00
sS'inport'
p1586
I00
sS'visible'
p1587
I01
sS'toggle'
p1588
I01
sS'button_title'
p1589
g74
sS'id'
p1590
I97163424
ssasg92
g93
ssg94
S'0.13043923378'
p1591
sg41
S'FFTW'
p1592
sg97
(lp1593
F94.12154409324597
aF203.31862273335744
asg99
(lp1594
(dp1595
g102
g188
sg104
I0
sg105
(lp1596
(dp1597
g108
(dp1598
g110
g188
sg111
I97162816
sg112
I0
sg113
I97196952
ssg114
(dp1599
g110
g116
sg111
I140485364172960
sg112
I0
sg113
I102707584
ssasg117
Nsg118
I65540
sg119
I100
sg120
I97162816
sa(dp1600
g102
g116
sg104
I0
sg105
(lp1601
(dp1602
g108
(dp1603
g110
g188
sg111
I113187432
sg112
I0
sg113
I88711856
ssg114
(dp1604
g110
g116
sg111
I97161904
sg112
I0
sg113
I97196952
ssasg117
Nsg118
I65541
sg119
Nsg120
I97161904
sasg130
S'0.0076866676039'
p1605
sg132
S'core.math.FFTW'
p1606
sg120
I97196952
sg134
S'0.125675916672'
p1607
sa(dp1608
g34
(dp1609
g36
(lp1610
(dp1611
g39
S"<class 'gpi.widgets.Slider'>"
p1612
sg41
S'Combine Dimension'
p1613
sg43
(dp1614
S'outport'
p1615
I00
sS'quietval'
p1616
Nsg47
I1
sS'min'
p1617
I0
sS'max'
p1618
I2
sS'collapsed'
p1619
I00
sS'inport'
p1620
I00
sS'visible'
p1621
I01
sS'id'
p1622
I97316944
ssasg92
g93
ssg94
S'0.103030845523'
p1623
sg41
S'Combine'
p1624
sg97
(lp1625
F-69.85911912927514
aF-198.86600709146177
asg99
(lp1626
(dp1627
g102
g338
sg104
I0
sg105
(lp1628
(dp1629
g108
(dp1630
g110
g338
sg111
I97318160
sg112
I0
sg113
I97313608
ssg114
(dp1631
g110
g116
sg111
I97360184
sg112
I0
sg113
I97357456
ssasg117
Nsg118
I65540
sg119
I100
sg120
I97318160
sa(dp1632
g102
S'indata2'
p1633
sg104
I1
sg105
(lp1634
(dp1635
g108
(dp1636
g110
g1633
sg111
I97318312
sg112
I1
sg113
I97313608
ssg114
(dp1637
g110
g116
sg111
I113405736
sg112
I0
sg113
I113327760
ssasg117
Nsg118
I65540
sg119
I100
sg120
I97318312
sa(dp1638
g102
g399
sg104
I0
sg105
(lp1639
(dp1640
g108
(dp1641
g110
g188
sg111
I115024712
sg112
I0
sg113
I114977536
ssg114
(dp1642
g110
g399
sg111
I97318464
sg112
I0
sg113
I97313608
ssa(dp1643
g108
(dp1644
g110
g103
sg111
I109857840
sg112
I0
sg113
I103819424
ssg114
(dp1645
g110
g399
sg111
I97318464
sg112
I0
sg113
I97313608
ssa(dp1646
g108
(dp1647
g110
g188
sg111
I88669384
sg112
I0
sg113
I84847968
ssg114
(dp1648
g110
g399
sg111
I97318464
sg112
I0
sg113
I97313608
ssasg117
Nsg118
I65541
sg119
Nsg120
I97318464
sasg130
S'0.00900716590948'
p1649
sg132
S'core.shapers.Combine'
p1650
sg120
I97313608
sg134
S'0.118219137192'
p1651
sa(dp1652
g34
(dp1653
g36
(lp1654
(dp1655
g39
S"<class 'gpi.widgets.TextBox'>"
p1656
sg41
S'Info:'
p1657
sg43
(dp1658
S'outport'
p1659
I00
sS'quietval'
p1660
Nsg47
S'Input Dimensions: (250,)\nInput Size: 250\nOutput Dimensions: (250, 250)\nOutput Size: 62500\n'
p1661
sS'collapsed'
p1662
I00
sS'inport'
p1663
I00
sS'visible'
p1664
I01
sS'wordwrap'
p1665
I00
sS'id'
p1666
I103731888
ssa(dp1667
g39
S"<class 'gpi.widgets.ExclusiveRadioButtons'>"
p1668
sg41
g54
sg43
(dp1669
S'outport'
p1670
I00
sS'quietval'
p1671
Nsg47
I3
sS'collapsed'
p1672
I00
sS'inport'
p1673
I00
sS'visible'
p1674
I01
sS'id'
p1675
I103732344
ssa(dp1676
g39
S"<class 'gpi.widgets.SpinBox'>"
p1677
sg41
S'# Dimensions'
p1678
sg43
(dp1679
S'outport'
p1680
I00
sS'quietval'
p1681
Nsg47
I2
sS'min'
p1682
I-2147483648
sS'max'
p1683
I2147483647
sS'collapsed'
p1684
I00
sS'wrapping'
p1685
I00
sS'immediate'
p1686
I00
sS'label'
p1687
g74
sS'singlestep'
p1688
I1
sS'visible'
p1689
I00
sS'inport'
p1690
I00
sS'id'
p1691
I103734016
ssa(dp1692
g39
S"<class 'gpi.widgets.SpinBox'>"
p1693
sg41
S'# Columns'
p1694
sg43
(dp1695
S'outport'
p1696
I00
sS'quietval'
p1697
Nsg47
I1
sS'min'
p1698
I-2147483648
sS'max'
p1699
I2147483647
sS'collapsed'
p1700
I00
sS'wrapping'
p1701
I00
sS'immediate'
p1702
I00
sS'label'
p1703
g74
sS'singlestep'
p1704
I1
sS'visible'
p1705
I00
sS'inport'
p1706
I00
sS'id'
p1707
I103734928
ssa(dp1708
g39
S"<class 'gpi.widgets.SpinBox'>"
p1709
sg41
S'# Rows'
p1710
sg43
(dp1711
S'outport'
p1712
I00
sS'quietval'
p1713
Nsg47
I1
sS'min'
p1714
I-2147483648
sS'max'
p1715
I2147483647
sS'collapsed'
p1716
I00
sS'wrapping'
p1717
I00
sS'immediate'
p1718
I00
sS'label'
p1719
g74
sS'singlestep'
p1720
I1
sS'visible'
p1721
I00
sS'inport'
p1722
I00
sS'id'
p1723
I103678640
ssa(dp1724
g39
S"<class 'gpi.widgets.SpinBox'>"
p1725
sg41
S'Dimension[-1]'
p1726
sg43
(dp1727
S'outport'
p1728
I00
sS'quietval'
p1729
Nsg47
I250
sS'min'
p1730
I1
sS'max'
p1731
I2147483647
sS'collapsed'
p1732
I00
sS'wrapping'
p1733
I00
sS'immediate'
p1734
I00
sS'label'
p1735
g74
sS'singlestep'
p1736
I1
sS'visible'
p1737
I00
sS'inport'
p1738
I00
sS'id'
p1739
I103679552
ssa(dp1740
g39
S"<class 'gpi.widgets.SpinBox'>"
p1741
sg41
S'Dimension[-2]'
p1742
sg43
(dp1743
S'outport'
p1744
I00
sS'quietval'
p1745
Nsg47
I250
sS'min'
p1746
I1
sS'max'
p1747
I2147483647
sS'collapsed'
p1748
I00
sS'wrapping'
p1749
I00
sS'immediate'
p1750
I00
sS'label'
p1751
g74
sS'singlestep'
p1752
I1
sS'visible'
p1753
I01
sS'inport'
p1754
I00
sS'id'
p1755
I103680464
ssa(dp1756
g39
S"<class 'gpi.widgets.SpinBox'>"
p1757
sg41
S'Dimension[-3]'
p1758
sg43
(dp1759
S'outport'
p1760
I00
sS'quietval'
p1761
Nsg47
I0
sS'min'
p1762
I-2147483648
sS'max'
p1763
I2147483647
sS'collapsed'
p1764
I00
sS'wrapping'
p1765
I00
sS'immediate'
p1766
I00
sS'label'
p1767
g74
sS'singlestep'
p1768
I1
sS'visible'
p1769
I00
sS'inport'
p1770
I00
sS'id'
p1771
I103681376
ssa(dp1772
g39
S"<class 'gpi.widgets.SpinBox'>"
p1773
sg41
S'Dimension[-4]'
p1774
sg43
(dp1775
S'outport'
p1776
I00
sS'quietval'
p1777
Nsg47
I0
sS'min'
p1778
I-2147483648
sS'max'
p1779
I2147483647
sS'collapsed'
p1780
I00
sS'wrapping'
p1781
I00
sS'immediate'
p1782
I00
sS'label'
p1783
g74
sS'singlestep'
p1784
I1
sS'visible'
p1785
I00
sS'inport'
p1786
I00
sS'id'
p1787
I103629184
ssa(dp1788
g39
S"<class 'gpi.widgets.SpinBox'>"
p1789
sg41
S'Dimension[-5]'
p1790
sg43
(dp1791
S'outport'
p1792
I00
sS'quietval'
p1793
Nsg47
I0
sS'min'
p1794
I-2147483648
sS'max'
p1795
I2147483647
sS'collapsed'
p1796
I00
sS'wrapping'
p1797
I00
sS'immediate'
p1798
I00
sS'label'
p1799
g74
sS'singlestep'
p1800
I1
sS'visible'
p1801
I00
sS'inport'
p1802
I00
sS'id'
p1803
I103630096
ssa(dp1804
g39
S"<class 'gpi.widgets.SpinBox'>"
p1805
sg41
S'Dimension[-6]'
p1806
sg43
(dp1807
S'outport'
p1808
I00
sS'quietval'
p1809
Nsg47
I0
sS'min'
p1810
I-2147483648
sS'max'
p1811
I2147483647
sS'collapsed'
p1812
I00
sS'wrapping'
p1813
I00
sS'immediate'
p1814
I00
sS'label'
p1815
g74
sS'singlestep'
p1816
I1
sS'visible'
p1817
I00
sS'inport'
p1818
I00
sS'id'
p1819
I103631008
ssa(dp1820
g39
S"<class 'gpi.widgets.SpinBox'>"
p1821
sg41
S'Dimension[-7]'
p1822
sg43
(dp1823
S'outport'
p1824
I00
sS'quietval'
p1825
Nsg47
I0
sS'min'
p1826
I-2147483648
sS'max'
p1827
I2147483647
sS'collapsed'
p1828
I00
sS'wrapping'
p1829
I00
sS'immediate'
p1830
I00
sS'label'
p1831
g74
sS'singlestep'
p1832
I1
sS'visible'
p1833
I00
sS'inport'
p1834
I00
sS'id'
p1835
I103631920
ssa(dp1836
g39
S"<class 'gpi.widgets.SpinBox'>"
p1837
sg41
S'Dimension[-8]'
p1838
sg43
(dp1839
S'outport'
p1840
I00
sS'quietval'
p1841
Nsg47
I0
sS'min'
p1842
I-2147483648
sS'max'
p1843
I2147483647
sS'collapsed'
p1844
I00
sS'wrapping'
p1845
I00
sS'immediate'
p1846
I00
sS'label'
p1847
g74
sS'singlestep'
p1848
I1
sS'visible'
p1849
I00
sS'inport'
p1850
I00
sS'id'
p1851
I103657552
ssa(dp1852
g39
S"<class 'gpi.widgets.SpinBox'>"
p1853
sg41
S'Dimension[-9]'
p1854
sg43
(dp1855
S'outport'
p1856
I00
sS'quietval'
p1857
Nsg47
I0
sS'min'
p1858
I-2147483648
sS'max'
p1859
I2147483647
sS'collapsed'
p1860
I00
sS'wrapping'
p1861
I00
sS'immediate'
p1862
I00
sS'label'
p1863
g74
sS'singlestep'
p1864
I1
sS'visible'
p1865
I00
sS'inport'
p1866
I00
sS'id'
p1867
I103658464
ssa(dp1868
g39
S"<class 'gpi.widgets.SpinBox'>"
p1869
sg41
S'Dimension[-10]'
p1870
sg43
(dp1871
S'outport'
p1872
I00
sS'quietval'
p1873
Nsg47
I0
sS'min'
p1874
I-2147483648
sS'max'
p1875
I2147483647
sS'collapsed'
p1876
I00
sS'wrapping'
p1877
I00
sS'immediate'
p1878
I00
sS'label'
p1879
g74
sS'singlestep'
p1880
I1
sS'visible'
p1881
I00
sS'inport'
p1882
I00
sS'id'
p1883
I103659376
ssa(dp1884
g39
S"<class 'gpi.widgets.SpinBox'>"
p1885
sg41
S'Dimension[-11]'
p1886
sg43
(dp1887
S'outport'
p1888
I00
sS'quietval'
p1889
Nsg47
I0
sS'min'
p1890
I-2147483648
sS'max'
p1891
I2147483647
sS'collapsed'
p1892
I00
sS'wrapping'
p1893
I00
sS'immediate'
p1894
I00
sS'label'
p1895
g74
sS'singlestep'
p1896
I1
sS'visible'
p1897
I00
sS'inport'
p1898
I00
sS'id'
p1899
I103660288
ssa(dp1900
g39
S"<class 'gpi.widgets.SpinBox'>"
p1901
sg41
S'Dimension[-12]'
p1902
sg43
(dp1903
S'outport'
p1904
I00
sS'quietval'
p1905
Nsg47
I0
sS'min'
p1906
I-2147483648
sS'max'
p1907
I2147483647
sS'collapsed'
p1908
I00
sS'wrapping'
p1909
I00
sS'immediate'
p1910
I00
sS'label'
p1911
g74
sS'singlestep'
p1912
I1
sS'visible'
p1913
I00
sS'inport'
p1914
I00
sS'id'
p1915
I103661200
ssa(dp1916
g39
S"<class 'gpi.widgets.SpinBox'>"
p1917
sg41
S'Dimension[-13]'
p1918
sg43
(dp1919
S'outport'
p1920
I00
sS'quietval'
p1921
Nsg47
I0
sS'min'
p1922
I-2147483648
sS'max'
p1923
I2147483647
sS'collapsed'
p1924
I00
sS'wrapping'
p1925
I00
sS'immediate'
p1926
I00
sS'label'
p1927
g74
sS'singlestep'
p1928
I1
sS'visible'
p1929
I00
sS'inport'
p1930
I00
sS'id'
p1931
I103645872
ssa(dp1932
g39
S"<class 'gpi.widgets.NonExclusivePushButtons'>"
p1933
sg41
S'Selection'
p1934
sg43
(dp1935
S'outport'
p1936
I00
sS'quietval'
p1937
Nsg47
(lp1938
I0
asS'collapsed'
p1939
I00
sS'inport'
p1940
I00
sS'visible'
p1941
I01
sS'id'
p1942
I103646784
ssa(dp1943
g39
S"<class 'gpi.widgets.ExclusivePushButtons'>"
p1944
sg41
S'Tile Dimension'
p1945
sg43
(dp1946
S'outport'
p1947
I00
sS'quietval'
p1948
Nsg47
I0
sS'collapsed'
p1949
I00
sS'inport'
p1950
I00
sS'visible'
p1951
I00
sS'id'
p1952
I103649064
ssa(dp1953
g39
S"<class 'gpi.widgets.PushButton'>"
p1954
sg41
g996
sg43
(dp1955
S'outport'
p1956
I00
sS'quietval'
p1957
Nsg47
I01
sS'collapsed'
p1958
I00
sS'inport'
p1959
I00
sS'visible'
p1960
I01
sS'toggle'
p1961
I01
sS'button_title'
p1962
g74
sS'id'
p1963
I103613104
ssa(dp1964
g39
S"<class 'gpi.widgets.PushButton'>"
p1965
sg41
S'Reset'
p1966
sg43
(dp1967
S'outport'
p1968
I00
sS'quietval'
p1969
Nsg47
I00
sS'collapsed'
p1970
I00
sS'inport'
p1971
I00
sS'visible'
p1972
I01
sS'toggle'
p1973
I01
sS'button_title'
p1974
g74
sS'id'
p1975
I103613864
ssasg92
g93
ssg94
S'0.113912432194'
p1976
sg41
S'Dimensions'
p1977
sg97
(lp1978
F112.70886973815757
aF-94.94692849671449
asg99
(lp1979
(dp1980
g102
g188
sg104
I0
sg105
(lp1981
(dp1982
g108
(dp1983
g110
g188
sg111
I103614624
sg112
I0
sg113
I83223520
ssg114
(dp1984
g110
g116
sg111
I101831496
sg112
I0
sg113
I101786440
ssasg117
Nsg118
I65540
sg119
I100
sg120
I103614624
sa(dp1985
g102
g116
sg104
I0
sg105
(lp1986
(dp1987
g108
(dp1988
g110
g188
sg111
I103695784
sg112
I0
sg113
I113184552
ssg114
(dp1989
g110
g116
sg111
I103614776
sg112
I0
sg113
I83223520
ssasg117
Nsg118
I65541
sg119
Nsg120
I103614776
sasg130
S'0.00595349501648'
p1990
sg132
S'core.shapers.Dimensions'
p1991
sg120
I83223520
sg134
S'0.124728918076'
p1992
sa(dp1993
g34
(dp1994
g36
(lp1995
(dp1996
g39
S"<class 'gpi.widgets.ExclusivePushButtons'>"
p1997
sg41
S'Complex Display'
p1998
sg43
(dp1999
S'outport'
p2000
I00
sS'quietval'
p2001
Nsg47
I4
sS'collapsed'
p2002
I00
sS'inport'
p2003
I00
sS'visible'
p2004
I01
sS'id'
p2005
I84855400
ssa(dp2006
g39
S"<class 'gpi.widgets.ExclusivePushButtons'>"
p2007
sg41
S'Color Map'
p2008
sg43
(dp2009
S'outport'
p2010
I00
sS'quietval'
p2011
Nsg47
I0
sS'collapsed'
p2012
I01
sS'inport'
p2013
I00
sS'visible'
p2014
I00
sS'id'
p2015
I84856464
ssa(dp2016
g39
S"<class 'gpi.widgets.SpinBox'>"
p2017
sg41
S'Edge Pixels'
p2018
sg43
(dp2019
S'outport'
p2020
I00
sS'quietval'
p2021
Nsg47
I0
sS'min'
p2022
I0
sS'max'
p2023
I2147483647
sS'collapsed'
p2024
I00
sS'wrapping'
p2025
I00
sS'immediate'
p2026
I00
sS'label'
p2027
g74
sS'singlestep'
p2028
I1
sS'visible'
p2029
I01
sS'inport'
p2030
I00
sS'id'
p2031
I88699872
ssa(dp2032
g39
S"<class 'gpi.widgets.SpinBox'>"
p2033
sg41
S'Black Pixels'
p2034
sg43
(dp2035
S'outport'
p2036
I00
sS'quietval'
p2037
Nsg47
I0
sS'min'
p2038
I0
sS'max'
p2039
I2147483647
sS'collapsed'
p2040
I00
sS'wrapping'
p2041
I00
sS'immediate'
p2042
I00
sS'label'
p2043
g74
sS'singlestep'
p2044
I1
sS'visible'
p2045
I01
sS'inport'
p2046
I00
sS'id'
p2047
I88700784
ssa(dp2048
g39
S"<class 'gpi.widgets.DisplayBox'>"
p2049
sg41
S'Viewport:'
p2050
sg43
(dp2051
S'outport'
p2052
I00
sS'scale'
p2053
F2.000000000000001
sS'quietval'
p2054
Nsg47
NsS'collapsed'
p2055
I00
sS'interp'
p2056
I00
sS'inport'
p2057
I00
sS'visible'
p2058
I01
sS'noscroll'
p2059
I01
sS'points'
p2060
NsS'line'
p2061
NsS'id'
p2062
I88701696
ssa(dp2063
g39
S"<class '/opt/gpi/lib/core/display/GPI/ImageDisplay_GPI.WindowLevel'>"
p2064
sg41
S'L W F C:'
p2065
sg43
(dp2066
S'outport'
p2067
I00
sS'quietval'
p2068
Nsg47
(dp2069
g489
I2
sg490
I0
sg491
I1
sg492
I0
ssS'min'
p2070
I0
sS'max'
p2071
I100
sS'collapsed'
p2072
I01
sS'inport'
p2073
I00
sS'visible'
p2074
I01
sS'id'
p2075
I88597776
ssa(dp2076
g39
S"<class 'gpi.widgets.ExclusivePushButtons'>"
p2077
sg41
S'Scalar Display'
p2078
sg43
(dp2079
S'outport'
p2080
I00
sS'quietval'
p2081
Nsg47
I0
sS'collapsed'
p2082
I00
sS'inport'
p2083
I00
sS'visible'
p2084
I00
sS'id'
p2085
I88664072
ssa(dp2086
g39
S"<class 'gpi.widgets.DoubleSpinBox'>"
p2087
sg41
g511
sg43
(dp2088
S'outport'
p2089
I00
sS'quietval'
p2090
Nsg47
F0.5
sS'min'
p2091
F0.1
sS'max'
p2092
F10.0
sS'collapsed'
p2093
I01
sS'wrapping'
p2094
I00
sS'immediate'
p2095
I00
sS'label'
p2096
g74
sS'singlestep'
p2097
F0.05
sS'visible'
p2098
I01
sS'inport'
p2099
I00
sS'decimals'
p2100
I3
sS'id'
p2101
I88664832
ssa(dp2102
g39
S"<class 'gpi.widgets.ExclusivePushButtons'>"
p2103
sg41
S'Zero Ref'
p2104
sg43
(dp2105
S'outport'
p2106
I00
sS'quietval'
p2107
Nsg47
I0
sS'collapsed'
p2108
I00
sS'inport'
p2109
I00
sS'visible'
p2110
I00
sS'id'
p2111
I88665744
ssa(dp2112
g39
S"<class 'gpi.widgets.PushButton'>"
p2113
sg41
S'Fix Range'
p2114
sg43
(dp2115
S'outport'
p2116
I00
sS'quietval'
p2117
Nsg47
I00
sS'collapsed'
p2118
I00
sS'inport'
p2119
I00
sS'visible'
p2120
I01
sS'toggle'
p2121
I01
sS'button_title'
p2122
VAuto-Range On
p2123
sS'id'
p2124
I88666800
ssa(dp2125
g39
S"<class 'gpi.widgets.DoubleSpinBox'>"
p2126
sg41
S'Range Min'
p2127
sg43
(dp2128
S'outport'
p2129
I00
sS'quietval'
p2130
Nsg47
F0.0
sS'min'
p2131
F-1.7976931348623157e+308
sS'max'
p2132
F1.7976931348623157e+308
sS'collapsed'
p2133
I00
sS'wrapping'
p2134
I00
sS'immediate'
p2135
I00
sS'label'
p2136
g74
sS'singlestep'
p2137
F1.0
sS'visible'
p2138
I00
sS'inport'
p2139
I00
sS'decimals'
p2140
I2
sS'id'
p2141
I88667560
ssa(dp2142
g39
S"<class 'gpi.widgets.DoubleSpinBox'>"
p2143
sg41
S'Range Max'
p2144
sg43
(dp2145
S'outport'
p2146
I00
sS'quietval'
p2147
Nsg47
F0.12
sS'min'
p2148
F-1.7976931348623157e+308
sS'max'
p2149
F1.7976931348623157e+308
sS'collapsed'
p2150
I00
sS'wrapping'
p2151
I00
sS'immediate'
p2152
I00
sS'label'
p2153
g74
sS'singlestep'
p2154
F1.0
sS'visible'
p2155
I01
sS'inport'
p2156
I00
sS'decimals'
p2157
I2
sS'id'
p2158
I88668472
ssasg92
S'Zeropad'
p2159
ssg94
S'0.010793132782'
p2160
sg41
g585
sg97
(lp2161
F25.943566625090995
aF-198.65729933867112
asg99
(lp2162
(dp2163
g102
g188
sg104
I0
sg105
(lp2164
(dp2165
g108
(dp2166
g110
g188
sg111
I88669384
sg112
I0
sg113
I84847968
ssg114
(dp2167
g110
g399
sg111
I97318464
sg112
I0
sg113
I97313608
ssasg117
Nsg118
I65540
sg119
I100
sg120
I88669384
sa(dp2168
g102
g116
sg104
I0
sg105
(lp2169
sg117
Nsg118
I65541
sg119
Nsg120
I88669536
sasg130
S'0.00194300023588'
p2170
sg132
g596
sg120
I84847968
sg134
S'0.013041973114'
p2171
sa(dp2172
g34
(dp2173
g36
(lp2174
(dp2175
g39
S"<class 'gpi.widgets.TextBox'>"
p2176
sg41
S'I/O Info:'
p2177
sg43
(dp2178
S'outport'
p2179
I00
sS'quietval'
p2180
Nsg47
S'created: 29/07/2014\naccessed: 29/07/2014\nmodified: 29/07/2014\nUID: 1001\nGID: 1001\nfile size (bytes): 300080\ndimensions: [250, 150]\ntype: complex64\n'
p2181
sS'collapsed'
p2182
I00
sS'inport'
p2183
I00
sS'visible'
p2184
I01
sS'wordwrap'
p2185
I00
sS'id'
p2186
I113403912
ssa(dp2187
g39
S"<class 'gpi.widgets.OpenFileBrowser'>"
p2188
sg41
S'File Browser'
p2189
sg43
(dp2190
S'outport'
p2191
I00
sS'quietval'
p2192
Nsg47
S'/opt/gpi/doc/Examples/partialEcho.npy'
p2193
sS'collapsed'
p2194
I00
sS'inport'
p2195
I00
sS'visible'
p2196
I01
sS'id'
p2197
I113404368
ssa(dp2198
g39
S"<class 'gpi.widgets.PushButton'>"
p2199
sg41
S'Squeeze'
p2200
sg43
(dp2201
S'outport'
p2202
I00
sS'quietval'
p2203
Nsg47
I00
sS'collapsed'
p2204
I00
sS'inport'
p2205
I00
sS'visible'
p2206
I01
sS'toggle'
p2207
I01
sS'button_title'
p2208
g74
sS'id'
p2209
I113404976
ssasg92
g93
ssg94
S'0.0983588695526'
p2210
sg41
S'ReadNPY'
p2211
sg97
(lp2212
F-69.85911912927514
aF-228.86600709146177
asg99
(lp2213
(dp2214
g102
g116
sg104
I0
sg105
(lp2215
(dp2216
g108
(dp2217
g110
g1633
sg111
I97318312
sg112
I1
sg113
I97313608
ssg114
(dp2218
g110
g116
sg111
I113405736
sg112
I0
sg113
I113327760
ssasg117
Nsg118
I65541
sg119
Nsg120
I113405736
sasg130
S'0.0'
p2219
sg132
S'core.fileIO.ReadNPY'
p2220
sg120
I113327760
sg134
S'0.0983588695526'
p2221
sa(dp2222
g34
(dp2223
g36
(lp2224
(dp2225
g39
S"<class 'gpi.widgets.ExclusivePushButtons'>"
p2226
sg41
g1031
sg43
(dp2227
S'outport'
p2228
I00
sS'quietval'
p2229
Nsg47
I1
sS'collapsed'
p2230
I00
sS'inport'
p2231
I00
sS'visible'
p2232
I01
sS'id'
p2233
I97213488
ssa(dp2234
g39
S"<class 'gpi.widgets.ExclusiveRadioButtons'>"
p2235
sg41
g1041
sg43
(dp2236
S'outport'
p2237
I00
sS'quietval'
p2238
Nsg47
I0
sS'collapsed'
p2239
I00
sS'inport'
p2240
I00
sS'visible'
p2241
I01
sS'id'
p2242
I97214248
ssa(dp2243
g39
S"<class 'gpi.widgets.PushButton'>"
p2244
sg41
g996
sg43
(dp2245
S'outport'
p2246
I00
sS'quietval'
p2247
Nsg47
I01
sS'collapsed'
p2248
I00
sS'inport'
p2249
I00
sS'visible'
p2250
I01
sS'toggle'
p2251
I01
sS'button_title'
p2252
VON
p2253
sS'id'
p2254
I97228200
ssa(dp2255
g39
S"<class 'gpi.widgets.PushButton'>"
p2256
sg41
S'Equal Dimensions'
p2257
sg43
(dp2258
S'outport'
p2259
I00
sS'quietval'
p2260
Nsg47
I00
sS'collapsed'
p2261
I00
sS'inport'
p2262
I00
sS'visible'
p2263
I01
sS'toggle'
p2264
I01
sS'button_title'
p2265
g74
sS'id'
p2266
I97228960
ssa(dp2267
g39
S"<class '/opt/gpi/lib/core/generators/GPI/Shapes_GPI.SHAPES_GROUP'>"
p2268
sg41
S'Dimension: 1'
p2269
sg43
(dp2270
S'outport'
p2271
I00
sS'quietval'
p2272
Nsg47
(dp2273
g856
I1
sg1080
I250
ssS'collapsed'
p2274
I00
sS'inport'
p2275
I00
sS'visible'
p2276
I01
sS'id'
p2277
I97229720
ssa(dp2278
g39
S"<class '/opt/gpi/lib/core/generators/GPI/Shapes_GPI.SHAPES_GROUP'>"
p2279
sg41
S'Dimension: 2'
p2280
sg43
(dp2281
S'outport'
p2282
I00
sS'quietval'
p2283
Nsg47
(dp2284
g856
I1
sg1080
I100
ssS'collapsed'
p2285
I00
sS'inport'
p2286
I00
sS'visible'
p2287
I01
sS'id'
p2288
I97223800
ssa(dp2289
g39
S"<class '/opt/gpi/lib/core/generators/GPI/Shapes_GPI.SHAPES_GROUP'>"
p2290
sg41
S'Dimension: 3'
p2291
sg43
(dp2292
S'outport'
p2293
I00
sS'quietval'
p2294
Nsg47
(dp2295
g856
I1
sg1080
I1
ssS'collapsed'
p2296
I00
sS'inport'
p2297
I00
sS'visible'
p2298
I00
sS'id'
p2299
I97225928
ssa(dp2300
g39
S"<class 'gpi.widgets.SpinBox'>"
p2301
sg41
S'Veclen:'
p2302
sg43
(dp2303
S'outport'
p2304
I00
sS'quietval'
p2305
Nsg47
I1
sS'min'
p2306
I1
sS'max'
p2307
I2147483647
sS'collapsed'
p2308
I00
sS'wrapping'
p2309
I00
sS'immediate'
p2310
I00
sS'label'
p2311
g74
sS'singlestep'
p2312
I1
sS'visible'
p2313
I01
sS'inport'
p2314
I00
sS'id'
p2315
I97269160
ssa(dp2316
g39
S"<class 'gpi.widgets.DoubleSpinBox'>"
p2317
sg41
S'Pass Value:'
p2318
sg43
(dp2319
S'outport'
p2320
I00
sS'quietval'
p2321
Nsg47
F0.0
sS'min'
p2322
F-1.7976931348623157e+308
sS'max'
p2323
F1.7976931348623157e+308
sS'collapsed'
p2324
I00
sS'wrapping'
p2325
I00
sS'immediate'
p2326
I00
sS'label'
p2327
g74
sS'singlestep'
p2328
F1.0
sS'visible'
p2329
I01
sS'inport'
p2330
I00
sS'decimals'
p2331
I5
sS'id'
p2332
I97270072
ssa(dp2333
g39
S"<class 'gpi.widgets.DoubleSpinBox'>"
p2334
sg41
S'Stop Value:'
p2335
sg43
(dp2336
S'outport'
p2337
I00
sS'quietval'
p2338
Nsg47
F0.0
sS'min'
p2339
F-1.7976931348623157e+308
sS'max'
p2340
F1.7976931348623157e+308
sS'collapsed'
p2341
I00
sS'wrapping'
p2342
I00
sS'immediate'
p2343
I00
sS'label'
p2344
g74
sS'singlestep'
p2345
F1.0
sS'visible'
p2346
I01
sS'inport'
p2347
I00
sS'decimals'
p2348
I5
sS'id'
p2349
I97270984
ssa(dp2350
g39
S"<class 'gpi.widgets.Slider'>"
p2351
sg41
S'Window:'
p2352
sg43
(dp2353
S'outport'
p2354
I00
sS'quietval'
p2355
Nsg47
I1
sS'min'
p2356
I0
sS'max'
p2357
I100
sS'collapsed'
p2358
I00
sS'inport'
p2359
I00
sS'visible'
p2360
I01
sS'id'
p2361
I97259752
ssa(dp2362
g39
S"<class 'gpi.widgets.DoubleSpinBox'>"
p2363
sg41
S'Poly Const:'
p2364
sg43
(dp2365
S'outport'
p2366
I00
sS'quietval'
p2367
Nsg47
F0.0
sS'min'
p2368
F-1.7976931348623157e+308
sS'max'
p2369
F1.7976931348623157e+308
sS'collapsed'
p2370
I00
sS'wrapping'
p2371
I00
sS'immediate'
p2372
I00
sS'label'
p2373
g74
sS'singlestep'
p2374
F1.0
sS'visible'
p2375
I00
sS'inport'
p2376
I00
sS'decimals'
p2377
I5
sS'id'
p2378
I84873904
ssa(dp2379
g39
S"<class 'gpi.widgets.DoubleSpinBox'>"
p2380
sg41
S'Poly i:'
p2381
sg43
(dp2382
S'outport'
p2383
I00
sS'quietval'
p2384
Nsg47
F0.0
sS'min'
p2385
F-1.7976931348623157e+308
sS'max'
p2386
F1.7976931348623157e+308
sS'collapsed'
p2387
I00
sS'wrapping'
p2388
I00
sS'immediate'
p2389
I00
sS'label'
p2390
g74
sS'singlestep'
p2391
F1.0
sS'visible'
p2392
I00
sS'inport'
p2393
I00
sS'decimals'
p2394
I5
sS'id'
p2395
I97261728
ssa(dp2396
g39
S"<class 'gpi.widgets.DoubleSpinBox'>"
p2397
sg41
S'Poly i^2:'
p2398
sg43
(dp2399
S'outport'
p2400
I00
sS'quietval'
p2401
Nsg47
F0.0
sS'min'
p2402
F-1.7976931348623157e+308
sS'max'
p2403
F1.7976931348623157e+308
sS'collapsed'
p2404
I00
sS'wrapping'
p2405
I00
sS'immediate'
p2406
I00
sS'label'
p2407
g74
sS'singlestep'
p2408
F1.0
sS'visible'
p2409
I00
sS'inport'
p2410
I00
sS'decimals'
p2411
I5
sS'id'
p2412
I97262640
ssa(dp2413
g39
S"<class 'gpi.widgets.DoubleSpinBox'>"
p2414
sg41
S'Poly j:'
p2415
sg43
(dp2416
S'outport'
p2417
I00
sS'quietval'
p2418
Nsg47
F0.0
sS'min'
p2419
F-1.7976931348623157e+308
sS'max'
p2420
F1.7976931348623157e+308
sS'collapsed'
p2421
I00
sS'wrapping'
p2422
I00
sS'immediate'
p2423
I00
sS'label'
p2424
g74
sS'singlestep'
p2425
F1.0
sS'visible'
p2426
I00
sS'inport'
p2427
I00
sS'decimals'
p2428
I5
sS'id'
p2429
I84865104
ssa(dp2430
g39
S"<class 'gpi.widgets.DoubleSpinBox'>"
p2431
sg41
S'Poly j^2:'
p2432
sg43
(dp2433
S'outport'
p2434
I00
sS'quietval'
p2435
Nsg47
F0.0
sS'min'
p2436
F-1.7976931348623157e+308
sS'max'
p2437
F1.7976931348623157e+308
sS'collapsed'
p2438
I00
sS'wrapping'
p2439
I00
sS'immediate'
p2440
I00
sS'label'
p2441
g74
sS'singlestep'
p2442
F1.0
sS'visible'
p2443
I00
sS'inport'
p2444
I00
sS'decimals'
p2445
I5
sS'id'
p2446
I84866016
ssa(dp2447
g39
S"<class 'gpi.widgets.DoubleSpinBox'>"
p2448
sg41
S'Poly k:'
p2449
sg43
(dp2450
S'outport'
p2451
I00
sS'quietval'
p2452
Nsg47
F0.0
sS'min'
p2453
F-1.7976931348623157e+308
sS'max'
p2454
F1.7976931348623157e+308
sS'collapsed'
p2455
I00
sS'wrapping'
p2456
I00
sS'immediate'
p2457
I00
sS'label'
p2458
g74
sS'singlestep'
p2459
F1.0
sS'visible'
p2460
I00
sS'inport'
p2461
I00
sS'decimals'
p2462
I5
sS'id'
p2463
I84866928
ssa(dp2464
g39
S"<class 'gpi.widgets.DoubleSpinBox'>"
p2465
sg41
S'Poly k^2:'
p2466
sg43
(dp2467
S'outport'
p2468
I00
sS'quietval'
p2469
Nsg47
F0.0
sS'min'
p2470
F-1.7976931348623157e+308
sS'max'
p2471
F1.7976931348623157e+308
sS'collapsed'
p2472
I00
sS'wrapping'
p2473
I00
sS'immediate'
p2474
I00
sS'label'
p2475
g74
sS'singlestep'
p2476
F1.0
sS'visible'
p2477
I00
sS'inport'
p2478
I00
sS'decimals'
p2479
I5
sS'id'
p2480
I84867840
ssa(dp2481
g39
S"<class 'gpi.widgets.DoubleSpinBox'>"
p2482
sg41
S'Noise Std:'
p2483
sg43
(dp2484
S'outport'
p2485
I00
sS'quietval'
p2486
Nsg47
F1.0
sS'min'
p2487
F-1.7976931348623157e+308
sS'max'
p2488
F1.7976931348623157e+308
sS'collapsed'
p2489
I00
sS'wrapping'
p2490
I00
sS'immediate'
p2491
I00
sS'label'
p2492
g74
sS'singlestep'
p2493
F1.0
sS'visible'
p2494
I00
sS'inport'
p2495
I00
sS'decimals'
p2496
I5
sS'id'
p2497
I84868752
ssasg92
g93
ssg94
S'0.0985630750656'
p2498
sg41
g1306
sg97
(lp2499
F-69.85911912927514
aF-288.86600709146177
asg99
(lp2500
(dp2501
g102
g188
sg104
I0
sg105
(lp2502
sg117
Nsg118
I65540
sg119
I200
sg120
I97264304
sa(dp2503
g102
g116
sg104
I0
sg105
(lp2504
(dp2505
g108
(dp2506
g110
g103
sg111
I97359880
sg112
I0
sg113
I97357456
ssg114
(dp2507
g110
g116
sg111
I97264456
sg112
I0
sg113
I97210752
ssasg117
Nsg118
I65541
sg119
Nsg120
I97264456
sasg130
S'0.0116924468293'
p2508
sg132
g1317
sg120
I97210752
sg134
S'0.112854003906'
p2509
sa(dp2510
g34
(dp2511
g36
(lp2512
(dp2513
g39
S"<class 'gpi.widgets.TextBox'>"
p2514
sg41
S'Info:'
p2515
sg43
(dp2516
S'outport'
p2517
I00
sS'quietval'
p2518
Nsg47
S'Input Dimensions: (250,)\nInput Size: 250\nOutput Dimensions: (250,)\nOutput Size: 250\n'
p2519
sS'collapsed'
p2520
I00
sS'inport'
p2521
I00
sS'visible'
p2522
I01
sS'wordwrap'
p2523
I00
sS'id'
p2524
I101788720
ssa(dp2525
g39
S"<class 'gpi.widgets.ExclusiveRadioButtons'>"
p2526
sg41
g54
sg43
(dp2527
S'outport'
p2528
I00
sS'quietval'
p2529
Nsg47
I6
sS'collapsed'
p2530
I00
sS'inport'
p2531
I00
sS'visible'
p2532
I01
sS'id'
p2533
I101789176
ssa(dp2534
g39
S"<class 'gpi.widgets.SpinBox'>"
p2535
sg41
S'# Dimensions'
p2536
sg43
(dp2537
S'outport'
p2538
I00
sS'quietval'
p2539
Nsg47
I1
sS'min'
p2540
I-2147483648
sS'max'
p2541
I2147483647
sS'collapsed'
p2542
I00
sS'wrapping'
p2543
I00
sS'immediate'
p2544
I00
sS'label'
p2545
g74
sS'singlestep'
p2546
I1
sS'visible'
p2547
I00
sS'inport'
p2548
I00
sS'id'
p2549
I101799184
ssa(dp2550
g39
S"<class 'gpi.widgets.SpinBox'>"
p2551
sg41
S'# Columns'
p2552
sg43
(dp2553
S'outport'
p2554
I00
sS'quietval'
p2555
Nsg47
I1
sS'min'
p2556
I-2147483648
sS'max'
p2557
I2147483647
sS'collapsed'
p2558
I00
sS'wrapping'
p2559
I00
sS'immediate'
p2560
I00
sS'label'
p2561
g74
sS'singlestep'
p2562
I1
sS'visible'
p2563
I00
sS'inport'
p2564
I00
sS'id'
p2565
I101800096
ssa(dp2566
g39
S"<class 'gpi.widgets.SpinBox'>"
p2567
sg41
S'# Rows'
p2568
sg43
(dp2569
S'outport'
p2570
I00
sS'quietval'
p2571
Nsg47
I1
sS'min'
p2572
I-2147483648
sS'max'
p2573
I2147483647
sS'collapsed'
p2574
I00
sS'wrapping'
p2575
I00
sS'immediate'
p2576
I00
sS'label'
p2577
g74
sS'singlestep'
p2578
I1
sS'visible'
p2579
I00
sS'inport'
p2580
I00
sS'id'
p2581
I101801008
ssa(dp2582
g39
S"<class 'gpi.widgets.SpinBox'>"
p2583
sg41
S'Dimension[-1]'
p2584
sg43
(dp2585
S'outport'
p2586
I00
sS'quietval'
p2587
Nsg47
I100
sS'min'
p2588
I-2147483648
sS'max'
p2589
I2147483647
sS'collapsed'
p2590
I00
sS'wrapping'
p2591
I00
sS'immediate'
p2592
I00
sS'label'
p2593
g74
sS'singlestep'
p2594
I1
sS'visible'
p2595
I01
sS'inport'
p2596
I00
sS'id'
p2597
I101802064
ssa(dp2598
g39
S"<class 'gpi.widgets.SpinBox'>"
p2599
sg41
S'Dimension[-2]'
p2600
sg43
(dp2601
S'outport'
p2602
I00
sS'quietval'
p2603
Nsg47
I0
sS'min'
p2604
I-2147483648
sS'max'
p2605
I2147483647
sS'collapsed'
p2606
I00
sS'wrapping'
p2607
I00
sS'immediate'
p2608
I00
sS'label'
p2609
g74
sS'singlestep'
p2610
I1
sS'visible'
p2611
I00
sS'inport'
p2612
I00
sS'id'
p2613
I101802976
ssa(dp2614
g39
S"<class 'gpi.widgets.SpinBox'>"
p2615
sg41
S'Dimension[-3]'
p2616
sg43
(dp2617
S'outport'
p2618
I00
sS'quietval'
p2619
Nsg47
I0
sS'min'
p2620
I-2147483648
sS'max'
p2621
I2147483647
sS'collapsed'
p2622
I00
sS'wrapping'
p2623
I00
sS'immediate'
p2624
I00
sS'label'
p2625
g74
sS'singlestep'
p2626
I1
sS'visible'
p2627
I00
sS'inport'
p2628
I00
sS'id'
p2629
I101803888
ssa(dp2630
g39
S"<class 'gpi.widgets.SpinBox'>"
p2631
sg41
S'Dimension[-4]'
p2632
sg43
(dp2633
S'outport'
p2634
I00
sS'quietval'
p2635
Nsg47
I0
sS'min'
p2636
I-2147483648
sS'max'
p2637
I2147483647
sS'collapsed'
p2638
I00
sS'wrapping'
p2639
I00
sS'immediate'
p2640
I00
sS'label'
p2641
g74
sS'singlestep'
p2642
I1
sS'visible'
p2643
I00
sS'inport'
p2644
I00
sS'id'
p2645
I101804800
ssa(dp2646
g39
S"<class 'gpi.widgets.SpinBox'>"
p2647
sg41
S'Dimension[-5]'
p2648
sg43
(dp2649
S'outport'
p2650
I00
sS'quietval'
p2651
Nsg47
I0
sS'min'
p2652
I-2147483648
sS'max'
p2653
I2147483647
sS'collapsed'
p2654
I00
sS'wrapping'
p2655
I00
sS'immediate'
p2656
I00
sS'label'
p2657
g74
sS'singlestep'
p2658
I1
sS'visible'
p2659
I00
sS'inport'
p2660
I00
sS'id'
p2661
I101805712
ssa(dp2662
g39
S"<class 'gpi.widgets.SpinBox'>"
p2663
sg41
S'Dimension[-6]'
p2664
sg43
(dp2665
S'outport'
p2666
I00
sS'quietval'
p2667
Nsg47
I0
sS'min'
p2668
I-2147483648
sS'max'
p2669
I2147483647
sS'collapsed'
p2670
I00
sS'wrapping'
p2671
I00
sS'immediate'
p2672
I00
sS'label'
p2673
g74
sS'singlestep'
p2674
I1
sS'visible'
p2675
I00
sS'inport'
p2676
I00
sS'id'
p2677
I101806768
ssa(dp2678
g39
S"<class 'gpi.widgets.SpinBox'>"
p2679
sg41
S'Dimension[-7]'
p2680
sg43
(dp2681
S'outport'
p2682
I00
sS'quietval'
p2683
Nsg47
I0
sS'min'
p2684
I-2147483648
sS'max'
p2685
I2147483647
sS'collapsed'
p2686
I00
sS'wrapping'
p2687
I00
sS'immediate'
p2688
I00
sS'label'
p2689
g74
sS'singlestep'
p2690
I1
sS'visible'
p2691
I00
sS'inport'
p2692
I00
sS'id'
p2693
I101807680
ssa(dp2694
g39
S"<class 'gpi.widgets.SpinBox'>"
p2695
sg41
S'Dimension[-8]'
p2696
sg43
(dp2697
S'outport'
p2698
I00
sS'quietval'
p2699
Nsg47
I0
sS'min'
p2700
I-2147483648
sS'max'
p2701
I2147483647
sS'collapsed'
p2702
I00
sS'wrapping'
p2703
I00
sS'immediate'
p2704
I00
sS'label'
p2705
g74
sS'singlestep'
p2706
I1
sS'visible'
p2707
I00
sS'inport'
p2708
I00
sS'id'
p2709
I101808592
ssa(dp2710
g39
S"<class 'gpi.widgets.SpinBox'>"
p2711
sg41
S'Dimension[-9]'
p2712
sg43
(dp2713
S'outport'
p2714
I00
sS'quietval'
p2715
Nsg47
I0
sS'min'
p2716
I-2147483648
sS'max'
p2717
I2147483647
sS'collapsed'
p2718
I00
sS'wrapping'
p2719
I00
sS'immediate'
p2720
I00
sS'label'
p2721
g74
sS'singlestep'
p2722
I1
sS'visible'
p2723
I00
sS'inport'
p2724
I00
sS'id'
p2725
I101809504
ssa(dp2726
g39
S"<class 'gpi.widgets.SpinBox'>"
p2727
sg41
S'Dimension[-10]'
p2728
sg43
(dp2729
S'outport'
p2730
I00
sS'quietval'
p2731
Nsg47
I0
sS'min'
p2732
I-2147483648
sS'max'
p2733
I2147483647
sS'collapsed'
p2734
I00
sS'wrapping'
p2735
I00
sS'immediate'
p2736
I00
sS'label'
p2737
g74
sS'singlestep'
p2738
I1
sS'visible'
p2739
I00
sS'inport'
p2740
I00
sS'id'
p2741
I101814656
ssa(dp2742
g39
S"<class 'gpi.widgets.SpinBox'>"
p2743
sg41
S'Dimension[-11]'
p2744
sg43
(dp2745
S'outport'
p2746
I00
sS'quietval'
p2747
Nsg47
I0
sS'min'
p2748
I-2147483648
sS'max'
p2749
I2147483647
sS'collapsed'
p2750
I00
sS'wrapping'
p2751
I00
sS'immediate'
p2752
I00
sS'label'
p2753
g74
sS'singlestep'
p2754
I1
sS'visible'
p2755
I00
sS'inport'
p2756
I00
sS'id'
p2757
I101815568
ssa(dp2758
g39
S"<class 'gpi.widgets.SpinBox'>"
p2759
sg41
S'Dimension[-12]'
p2760
sg43
(dp2761
S'outport'
p2762
I00
sS'quietval'
p2763
Nsg47
I0
sS'min'
p2764
I-2147483648
sS'max'
p2765
I2147483647
sS'collapsed'
p2766
I00
sS'wrapping'
p2767
I00
sS'immediate'
p2768
I00
sS'label'
p2769
g74
sS'singlestep'
p2770
I1
sS'visible'
p2771
I00
sS'inport'
p2772
I00
sS'id'
p2773
I101816480
ssa(dp2774
g39
S"<class 'gpi.widgets.SpinBox'>"
p2775
sg41
S'Dimension[-13]'
p2776
sg43
(dp2777
S'outport'
p2778
I00
sS'quietval'
p2779
Nsg47
I0
sS'min'
p2780
I-2147483648
sS'max'
p2781
I2147483647
sS'collapsed'
p2782
I00
sS'wrapping'
p2783
I00
sS'immediate'
p2784
I00
sS'label'
p2785
g74
sS'singlestep'
p2786
I1
sS'visible'
p2787
I00
sS'inport'
p2788
I00
sS'id'
p2789
I101817392
ssa(dp2790
g39
S"<class 'gpi.widgets.NonExclusivePushButtons'>"
p2791
sg41
g1934
sg43
(dp2792
S'outport'
p2793
I00
sS'quietval'
p2794
Nsg47
(lp2795
sS'collapsed'
p2796
I00
sS'inport'
p2797
I00
sS'visible'
p2798
I00
sS'id'
p2799
I101822544
ssa(dp2800
g39
S"<class 'gpi.widgets.ExclusivePushButtons'>"
p2801
sg41
S'Tile Dimension'
p2802
sg43
(dp2803
S'outport'
p2804
I00
sS'quietval'
p2805
Nsg47
I0
sS'collapsed'
p2806
I00
sS'inport'
p2807
I00
sS'visible'
p2808
I00
sS'id'
p2809
I101824824
ssa(dp2810
g39
S"<class 'gpi.widgets.PushButton'>"
p2811
sg41
g996
sg43
(dp2812
S'outport'
p2813
I00
sS'quietval'
p2814
Nsg47
I01
sS'collapsed'
p2815
I00
sS'inport'
p2816
I00
sS'visible'
p2817
I01
sS'toggle'
p2818
I01
sS'button_title'
p2819
g74
sS'id'
p2820
I101825584
ssa(dp2821
g39
S"<class 'gpi.widgets.PushButton'>"
p2822
sg41
g1966
sg43
(dp2823
S'outport'
p2824
I00
sS'quietval'
p2825
Nsg47
I00
sS'collapsed'
p2826
I00
sS'inport'
p2827
I00
sS'visible'
p2828
I01
sS'toggle'
p2829
I01
sS'button_title'
p2830
g74
sS'id'
p2831
I101826344
ssasg92
g93
ssg94
S'0.106580429077'
p2832
sg41
g1977
sg97
(lp2833
F-0.4627034903387255
aF-69.94692849671449
asg99
(lp2834
(dp2835
g102
g188
sg104
I0
sg105
(lp2836
(dp2837
g108
(dp2838
g110
g188
sg111
I101831344
sg112
I0
sg113
I101786440
ssg114
(dp2839
g110
g116
sg111
I101753368
sg112
I0
sg113
I88678784
ssasg117
Nsg118
I65540
sg119
I100
sg120
I101831344
sa(dp2840
g102
g116
sg104
I0
sg105
(lp2841
(dp2842
g108
(dp2843
g110
g188
sg111
I103614624
sg112
I0
sg113
I83223520
ssg114
(dp2844
g110
g116
sg111
I101831496
sg112
I0
sg113
I101786440
ssa(dp2845
g108
(dp2846
g110
g250
sg111
I101882776
sg112
I0
sg113
I101877312
ssg114
(dp2847
g110
g116
sg111
I101831496
sg112
I0
sg113
I101786440
ssa(dp2848
g108
(dp2849
g110
g122
sg111
I109857992
sg112
I1
sg113
I103819424
ssg114
(dp2850
g110
g116
sg111
I101831496
sg112
I0
sg113
I101786440
ssasg117
Nsg118
I65541
sg119
Nsg120
I101831496
sasg130
S'0.00668025490142'
p2851
sg132
g1991
sg120
I101786440
sg134
S'0.114647865295'
p2852
sa(dp2853
g34
(dp2854
g36
(lp2855
(dp2856
g39
S"<class '/opt/gpi/lib/core/math/GPI/FFTW_GPI.FFTW_GROUP'>"
p2857
sg41
S'Dimension[-1]'
p2858
sg43
(dp2859
S'outport'
p2860
I00
sS'quietval'
p2861
Nsg47
(dp2862
g1507
I250
sg1508
I250
sg82
I01
ssS'collapsed'
p2863
I00
sS'inport'
p2864
I00
sS'visible'
p2865
I01
sS'id'
p2866
I97398112
ssa(dp2867
g39
S"<class '/opt/gpi/lib/core/math/GPI/FFTW_GPI.FFTW_GROUP'>"
p2868
sg41
S'Dimension[-2]'
p2869
sg43
(dp2870
S'outport'
p2871
I00
sS'quietval'
p2872
Nsg47
(dp2873
g1507
I250
sg1508
I250
sg82
I01
ssS'collapsed'
p2874
I00
sS'inport'
p2875
I00
sS'visible'
p2876
I01
sS'id'
p2877
I101688744
ssa(dp2878
g39
S"<class '/opt/gpi/lib/core/math/GPI/FFTW_GPI.FFTW_GROUP'>"
p2879
sg41
S'Dimension[-3]'
p2880
sg43
(dp2881
S'outport'
p2882
I00
sS'quietval'
p2883
Nsg47
(dp2884
g1507
I1
sg1508
I1
sg82
I00
ssS'collapsed'
p2885
I00
sS'inport'
p2886
I00
sS'visible'
p2887
I00
sS'id'
p2888
I101690720
ssa(dp2889
g39
S"<class '/opt/gpi/lib/core/math/GPI/FFTW_GPI.FFTW_GROUP'>"
p2890
sg41
S'Dimension[-4]'
p2891
sg43
(dp2892
S'outport'
p2893
I00
sS'quietval'
p2894
Nsg47
(dp2895
g1507
I1
sg1508
I1
sg82
I00
ssS'collapsed'
p2896
I00
sS'inport'
p2897
I00
sS'visible'
p2898
I00
sS'id'
p2899
I101696936
ssa(dp2900
g39
S"<class '/opt/gpi/lib/core/math/GPI/FFTW_GPI.FFTW_GROUP'>"
p2901
sg41
S'Dimension[-5]'
p2902
sg43
(dp2903
S'outport'
p2904
I00
sS'quietval'
p2905
Nsg47
(dp2906
g1507
I1
sg1508
I1
sg82
I00
ssS'collapsed'
p2907
I00
sS'inport'
p2908
I00
sS'visible'
p2909
I00
sS'id'
p2910
I101698912
ssa(dp2911
g39
S"<class '/opt/gpi/lib/core/math/GPI/FFTW_GPI.FFTW_GROUP'>"
p2912
sg41
S'Dimension[-6]'
p2913
sg43
(dp2914
S'outport'
p2915
I00
sS'quietval'
p2916
Nsg47
(dp2917
g1507
I1
sg1508
I1
sg82
I00
ssS'collapsed'
p2918
I00
sS'inport'
p2919
I00
sS'visible'
p2920
I00
sS'id'
p2921
I101701032
ssa(dp2922
g39
S"<class 'gpi.widgets.PushButton'>"
p2923
sg41
g1570
sg43
(dp2924
S'outport'
p2925
I00
sS'quietval'
p2926
Nsg47
I00
sS'collapsed'
p2927
I00
sS'inport'
p2928
I00
sS'visible'
p2929
I01
sS'toggle'
p2930
I01
sS'button_title'
p2931
g74
sS'id'
p2932
I101703008
ssa(dp2933
g39
S"<class 'gpi.widgets.PushButton'>"
p2934
sg41
g82
sg43
(dp2935
S'outport'
p2936
I00
sS'quietval'
p2937
Nsg47
I01
sS'collapsed'
p2938
I00
sS'inport'
p2939
I00
sS'visible'
p2940
I01
sS'toggle'
p2941
I01
sS'button_title'
p2942
g74
sS'id'
p2943
I101708008
ssasg92
g93
ssg94
S'0.128680076599'
p2944
sg41
g1592
sg97
(lp2945
F-71.7382205123583
aF182.1740111616373
asg99
(lp2946
(dp2947
g102
g188
sg104
I0
sg105
(lp2948
(dp2949
g108
(dp2950
g110
g188
sg111
I101708768
sg112
I0
sg113
I97395680
ssg114
(dp2951
g110
g116
sg111
I109858144
sg112
I0
sg113
I103819424
ssasg117
Nsg118
I65540
sg119
I100
sg120
I101708768
sa(dp2952
g102
g116
sg104
I0
sg105
(lp2953
(dp2954
g108
(dp2955
g110
g188
sg111
I85007104
sg112
I0
sg113
I102628400
ssg114
(dp2956
g110
g116
sg111
I101708920
sg112
I0
sg113
I97395680
ssasg117
Nsg118
I65541
sg119
Nsg120
I101708920
sasg130
S'0.00666485730829'
p2957
sg132
g1606
sg120
I97395680
sg134
S'0.131662845612'
p2958
sassS'WALLTIME'
p2959
S'0.685531139374'
p2960
s.