(dp0
S'HEADER'
p1
S'This is a GPI Network File'
p2
sS'GPI_VERSION'
p3
S'0.2'
p4
sS'PLATFORM'
p5
(dp6
S'OSX'
p7
S'10.8.5'
p8
sS'PYTHON_VERSION'
p9
S'2.7.6'
p10
sS'PYTHON'
p11
S'CPython'
p12
sS'TOTAL_PHYMEM'
p13
L17179869184L
sS'NUM_CPUS'
p14
I8
sS'HOSTNAME'
p15
S'tron.local'
p16
sg5
S'Darwin-12.5.0-x86_64-i386-64bit'
p17
sS'TOTAL_PHYMEM_STR'
p18
S'16.00 GB'
p19
sS'OS'
p20
S'Darwin'
p21
ssS'DATETIME'
p22
S'Tue Apr  1 16:23:58 2014'
p23
sS'NETWORK_VERSION'
p24
S'2'
p25
sS'layouts'
p26
(lp27
sS'TOTAL_PMEM'
p28
S'78324880'
p29
sS'nodes'
p30
(dp31
S'macroNodes'
p32
(lp33
sg30
(lp34
(dp35
S'widget_settings'
p36
(dp37
S'parms'
p38
(lp39
(dp40
S'type'
p41
S"<class 'gpi.widgets.ExclusivePushButtons'>"
p42
sS'name'
p43
S'R I M P'
p44
sS'kwargs'
p45
(dp46
S'outport'
p47
I00
sS'quietval'
p48
NsS'val'
p49
I2
sS'collapsed'
p50
I00
sS'inport'
p51
I00
sS'visible'
p52
I01
sS'id'
p53
I4655238040
ssa(dp54
g41
S"<class 'gpi.widgets.ExclusivePushButtons'>"
p55
sg43
S'Units'
p56
sg45
(dp57
S'outport'
p58
I00
sS'quietval'
p59
Nsg49
I1
sS'collapsed'
p60
I00
sS'inport'
p61
I00
sS'visible'
p62
I00
sS'id'
p63
I4655238952
ssa(dp64
g41
S"<class 'gpi.widgets.PushButton'>"
p65
sg43
S'UnWrap'
p66
sg45
(dp67
S'outport'
p68
I00
sS'quietval'
p69
Nsg49
I00
sS'collapsed'
p70
I00
sS'inport'
p71
I00
sS'visible'
p72
I00
sS'toggle'
p73
I01
sS'button_title'
p74
V
p75
sS'id'
p76
I4655260336
ssa(dp77
g41
S"<class 'gpi.widgets.Slider'>"
p78
sg43
S'UnWrap Dimension'
p79
sg45
(dp80
S'outport'
p81
I00
sS'quietval'
p82
Nsg49
I0
sS'min'
p83
I-2
sS'max'
p84
I1
sS'collapsed'
p85
I00
sS'inport'
p86
I00
sS'visible'
p87
I00
sS'id'
p88
I4655261096
ssasS'label'
p89
S''
p90
ssS'avgwalltime'
p91
S'0.123135566711'
p92
sg43
S'RIMP'
p93
sS'pos'
p94
(lp95
F-49.0
aF-10.0
asS'ports'
p96
(lp97
(dp98
S'porttitle'
p99
S'in'
p100
sS'portnum'
p101
I0
sS'connections'
p102
(lp103
(dp104
S'dest'
p105
(dp106
S'portName'
p107
g100
sS'portID'
p108
I4655262312
sS'portNum'
p109
I0
sS'nodeID'
p110
I4655235608
ssS'src'
p111
(dp112
g107
S'out'
p113
sg108
I4655295688
sg109
I0
sg110
I4655269592
ssasS'widgetTitle'
p114
NsS'porttype'
p115
I65540
sS'obligation'
p116
I100
sS'id'
p117
I4655262312
sa(dp118
g99
g113
sg101
I0
sg102
(lp119
(dp120
g105
(dp121
g107
g100
sg108
I4633342184
sg109
I0
sg110
I4631426320
ssg111
(dp122
g107
g113
sg108
I4655262464
sg109
I0
sg110
I4655235608
ssa(dp123
g105
(dp124
g107
g100
sg108
I4655451032
sg109
I0
sg110
I4655367440
ssg111
(dp125
g107
g113
sg108
I4655262464
sg109
I0
sg110
I4655235608
ssasg114
Nsg115
I65541
sg116
Nsg117
I4655262464
sasS'stdwalltime'
p126
S'0.00356554985044'
p127
sS'key'
p128
S'core.math.RIMP'
p129
sg117
I4655235608
sS'walltime'
p130
S'0.126701116562'
p131
sa(dp132
g36
(dp133
g38
(lp134
(dp135
g41
S"<class 'gpi.widgets.ExclusiveRadioButtons'>"
p136
sg43
S'Operation'
p137
sg45
(dp138
S'outport'
p139
I00
sS'quietval'
p140
Nsg49
I3
sS'collapsed'
p141
I00
sS'inport'
p142
I00
sS'visible'
p143
I01
sS'id'
p144
I4633372224
ssa(dp145
g41
S"<class 'gpi.widgets.ExclusiveRadioButtons'>"
p146
sg43
S'Combine Operation'
p147
sg45
(dp148
S'outport'
p149
I00
sS'quietval'
p150
Nsg49
I0
sS'collapsed'
p151
I00
sS'inport'
p152
I00
sS'visible'
p153
I00
sS'id'
p154
I4633373136
ssa(dp155
g41
S"<class 'gpi.widgets.ExclusivePushButtons'>"
p156
sg43
S'Phase'
p157
sg45
(dp158
S'outport'
p159
I00
sS'quietval'
p160
Nsg49
I0
sS'collapsed'
p161
I00
sS'inport'
p162
I00
sS'visible'
p163
I01
sS'id'
p164
I4633373744
ssa(dp165
g41
S"<class 'gpi.widgets.ExclusivePushButtons'>"
p166
sg43
S'OutType'
p167
sg45
(dp168
S'outport'
p169
I00
sS'quietval'
p170
Nsg49
I0
sS'collapsed'
p171
I00
sS'inport'
p172
I00
sS'visible'
p173
I01
sS'id'
p174
I4633374352
ssasg89
g90
ssg91
S'0.76469540596'
p175
sg43
S'ToComplex'
p176
sg94
(lp177
F-49.0
aF-70.0
asg96
(lp178
(dp179
g99
S'inLeft'
p180
sg101
I0
sg102
(lp181
(dp182
g105
(dp183
g107
g180
sg108
I4633371768
sg109
I0
sg110
I4633344616
ssg111
(dp184
g107
g113
sg108
I4655229392
sg109
I0
sg110
I4655208608
ssasg114
Nsg115
I65540
sg116
I200
sg117
I4633371768
sa(dp185
g99
S'inRight'
p186
sg101
I1
sg102
(lp187
sg114
Nsg115
I65540
sg116
I200
sg117
I4633371920
sa(dp188
g99
g113
sg101
I0
sg102
(lp189
(dp190
g105
(dp191
g107
g100
sg108
I4655295536
sg109
I0
sg110
I4655269592
ssg111
(dp192
g107
g113
sg108
I4633372072
sg109
I0
sg110
I4633344616
ssasg114
Nsg115
I65541
sg116
Nsg117
I4633372072
sasg126
S'0.00213742256186'
p193
sg128
S'core.shapers.ToComplex'
p194
sg117
I4633344616
sg130
S'0.766832828522'
p195
sa(dp196
g36
(dp197
g38
(lp198
(dp199
g41
S"<class 'gpi.widgets.ExclusivePushButtons'>"
p200
sg43
S'Complex Display'
p201
sg45
(dp202
S'outport'
p203
I00
sS'quietval'
p204
Nsg49
I4
sS'collapsed'
p205
I00
sS'inport'
p206
I00
sS'visible'
p207
I00
sS'id'
p208
I4655304336
ssa(dp209
g41
S"<class 'gpi.widgets.SpinBox'>"
p210
sg43
S'Edge Pixels'
p211
sg45
(dp212
S'outport'
p213
I00
sS'quietval'
p214
Nsg49
I0
sS'min'
p215
I0
sS'max'
p216
I2147483647
sS'collapsed'
p217
I00
sS'wrapping'
p218
I00
sS'immediate'
p219
I00
sS'label'
p220
g75
sS'singlestep'
p221
I1
sS'visible'
p222
I00
sS'inport'
p223
I00
sS'id'
p224
I4655342408
ssa(dp225
g41
S"<class 'gpi.widgets.SpinBox'>"
p226
sg43
S'Black Pixels'
p227
sg45
(dp228
S'outport'
p229
I00
sS'quietval'
p230
Nsg49
I0
sS'min'
p231
I0
sS'max'
p232
I2147483647
sS'collapsed'
p233
I00
sS'wrapping'
p234
I00
sS'immediate'
p235
I00
sS'label'
p236
g75
sS'singlestep'
p237
I1
sS'visible'
p238
I00
sS'inport'
p239
I00
sS'id'
p240
I4655343320
ssa(dp241
g41
S"<class 'gpi.widgets.DisplayBox'>"
p242
sg43
S'Viewport:'
p243
sg45
(dp244
S'outport'
p245
I00
sS'scale'
p246
F1.0
sS'quietval'
p247
Nsg49
NsS'collapsed'
p248
I01
sS'interp'
p249
I00
sS'inport'
p250
I00
sS'visible'
p251
I01
sS'noscroll'
p252
I01
sS'points'
p253
NsS'line'
p254
NsS'id'
p255
I4655344232
ssa(dp256
g41
S"<class '/opt/gpi/lib/core/display/GPI/ImageDisplay_GPI.WindowLevel'>"
p257
sg43
S'L W F C:'
p258
sg45
(dp259
S'outport'
p260
I00
sS'quietval'
p261
Nsg49
(dp262
S'window'
p263
I100
sS'floor'
p264
I0
sS'ceiling'
p265
I100
sS'level'
p266
I50
ssS'min'
p267
I0
sS'max'
p268
I100
sS'collapsed'
p269
I01
sS'inport'
p270
I00
sS'visible'
p271
I01
sS'id'
p272
I4655355000
ssa(dp273
g41
S"<class 'gpi.widgets.ExclusivePushButtons'>"
p274
sg43
S'Scalar Display'
p275
sg45
(dp276
S'outport'
p277
I00
sS'quietval'
p278
Nsg49
I0
sS'collapsed'
p279
I00
sS'inport'
p280
I00
sS'visible'
p281
I01
sS'id'
p282
I4655359856
ssa(dp283
g41
S"<class 'gpi.widgets.DoubleSpinBox'>"
p284
sg43
S'Gamma'
p285
sg45
(dp286
S'outport'
p287
I00
sS'quietval'
p288
Nsg49
F1.0
sS'min'
p289
F0.1
sS'max'
p290
F10.0
sS'collapsed'
p291
I00
sS'wrapping'
p292
I00
sS'immediate'
p293
I00
sS'label'
p294
g75
sS'singlestep'
p295
F0.05
sS'visible'
p296
I01
sS'inport'
p297
I00
sS'decimals'
p298
I3
sS'id'
p299
I4655360616
ssa(dp300
g41
S"<class 'gpi.widgets.ExclusivePushButtons'>"
p301
sg43
S'Zero Ref'
p302
sg45
(dp303
S'outport'
p304
I00
sS'quietval'
p305
Nsg49
I0
sS'collapsed'
p306
I00
sS'inport'
p307
I00
sS'visible'
p308
I01
sS'id'
p309
I4655361528
ssa(dp310
g41
S"<class 'gpi.widgets.PushButton'>"
p311
sg43
S'Fix Range'
p312
sg45
(dp313
S'outport'
p314
I00
sS'quietval'
p315
Nsg49
I00
sS'collapsed'
p316
I00
sS'inport'
p317
I00
sS'visible'
p318
I01
sS'toggle'
p319
I01
sS'button_title'
p320
VAuto-Range On
p321
sS'id'
p322
I4655362584
ssa(dp323
g41
S"<class 'gpi.widgets.DoubleSpinBox'>"
p324
sg43
S'Range Min'
p325
sg45
(dp326
S'outport'
p327
I00
sS'quietval'
p328
Nsg49
F0.0
sS'min'
p329
F-1.7976931348623157e+308
sS'max'
p330
F1.7976931348623157e+308
sS'collapsed'
p331
I00
sS'wrapping'
p332
I00
sS'immediate'
p333
I00
sS'label'
p334
g75
sS'singlestep'
p335
F1.0
sS'visible'
p336
I01
sS'inport'
p337
I00
sS'decimals'
p338
I2
sS'id'
p339
I4655363344
ssa(dp340
g41
S"<class 'gpi.widgets.DoubleSpinBox'>"
p341
sg43
S'Range Max'
p342
sg45
(dp343
S'outport'
p344
I00
sS'quietval'
p345
Nsg49
F27727.73
sS'min'
p346
F-1.7976931348623157e+308
sS'max'
p347
F1.7976931348623157e+308
sS'collapsed'
p348
I00
sS'wrapping'
p349
I00
sS'immediate'
p350
I00
sS'label'
p351
g75
sS'singlestep'
p352
F1.0
sS'visible'
p353
I01
sS'inport'
p354
I00
sS'decimals'
p355
I2
sS'id'
p356
I4655364256
ssasg89
g90
ssg91
S'0.00862848758698'
p357
sg43
S'ImageDisplay'
p358
sg94
(lp359
F111.0
aF85.0
asg96
(lp360
(dp361
g99
g100
sg101
I0
sg102
(lp362
(dp363
g105
(dp364
g107
g100
sg108
I4655365168
sg109
I0
sg110
I4655301904
ssg111
(dp365
g107
S'mask'
p366
sg108
I4655549640
sg109
I1
sg110
I4655457552
ssasg114
Nsg115
I65540
sg116
I100
sg117
I4655365168
sa(dp367
g99
g113
sg101
I0
sg102
(lp368
sg114
Nsg115
I65541
sg116
Nsg117
I4655365320
sasg126
S'0.000117421150206'
p369
sg128
S'core.display.ImageDisplay'
p370
sg117
I4655301904
sg130
S'0.00874590873718'
p371
sa(dp372
g36
(dp373
g38
(lp374
(dp375
g41
S"<class 'gpi.widgets.TextBox'>"
p376
sg43
S'I/O Info:'
p377
sg45
(dp378
S'outport'
p379
I00
sS'quietval'
p380
Nsg49
S'created: 01/04/2014\naccessed: 01/04/2014\nmodified: 01/04/2014\nUID: 501\nGID: 80\nfile size (bytes): 36498528\ndimensions: [24, 436, 436, 2]\ntype: float32\n'
p381
sS'collapsed'
p382
I00
sS'inport'
p383
I00
sS'visible'
p384
I01
sS'wordwrap'
p385
I00
sS'id'
p386
I4655227568
ssa(dp387
g41
S"<class 'gpi.widgets.OpenFileBrowser'>"
p388
sg43
S'File Browser'
p389
sg45
(dp390
S'outport'
p391
I00
sS'quietval'
p392
Nsg49
S'/opt/gpi/doc/Examples/t2vol.npy'
p393
sS'collapsed'
p394
I00
sS'inport'
p395
I00
sS'visible'
p396
I01
sS'id'
p397
I4655228024
ssa(dp398
g41
S"<class 'gpi.widgets.PushButton'>"
p399
sg43
S'Squeeze'
p400
sg45
(dp401
S'outport'
p402
I00
sS'quietval'
p403
Nsg49
I00
sS'collapsed'
p404
I00
sS'inport'
p405
I00
sS'visible'
p406
I01
sS'toggle'
p407
I01
sS'button_title'
p408
g75
sS'id'
p409
I4655228632
ssasg89
g90
ssg91
S'0.123584508896'
p410
sg43
S'ReadNPY'
p411
sg94
(lp412
F-49.0
aF-100.0
asg96
(lp413
(dp414
g99
g113
sg101
I0
sg102
(lp415
(dp416
g105
(dp417
g107
g180
sg108
I4633371768
sg109
I0
sg110
I4633344616
ssg111
(dp418
g107
g113
sg108
I4655229392
sg109
I0
sg110
I4655208608
ssasg114
Nsg115
I65541
sg116
Nsg117
I4655229392
sasg126
S'0.000369548797741'
p419
sg128
S'core.fileIO.ReadNPY'
p420
sg117
I4655208608
sg130
S'0.123954057693'
p421
sa(dp422
g36
(dp423
g38
(lp424
(dp425
g41
S"<class 'gpi.widgets.TextBox'>"
p426
sg43
S'I/O Info:'
p427
sg45
(dp428
S'outport'
p429
I00
sS'quietval'
p430
Nsg49
S'input: (436, 436)\noutput: (436,)'
p431
sS'collapsed'
p432
I00
sS'inport'
p433
I00
sS'visible'
p434
I01
sS'wordwrap'
p435
I00
sS'id'
p436
I4655369872
ssa(dp437
g41
S"<class '/opt/gpi/lib/core/shapers/GPI/Reduce_GPI.ReduceSliders'>"
p438
sg43
S'Dimension[-1]'
p439
sg45
(dp440
S'outport'
p441
I00
sS'quietval'
p442
Nsg49
(dp443
S'width'
p444
I436
sg265
I436
sS'selection'
p445
I3
sS'center'
p446
I219
sg264
I1
ssS'min'
p447
I1
sS'max'
p448
I436
sS'collapsed'
p449
I00
sS'inport'
p450
I00
sS'visible'
p451
I01
sS'id'
p452
I4655395048
ssa(dp453
g41
S"<class '/opt/gpi/lib/core/shapers/GPI/Reduce_GPI.ReduceSliders'>"
p454
sg43
S'Dimension[-2]'
p455
sg45
(dp456
S'outport'
p457
I00
sS'quietval'
p458
Nsg49
(dp459
g444
I1
sg265
I197
sg445
I2
sg446
I197
sg264
I197
ssS'min'
p460
I1
sS'max'
p461
I436
sS'collapsed'
p462
I00
sS'inport'
p463
I00
sS'visible'
p464
I01
sS'id'
p465
I4655400056
ssa(dp466
g41
S"<class '/opt/gpi/lib/core/shapers/GPI/Reduce_GPI.ReduceSliders'>"
p467
sg43
S'Dimension[-3]'
p468
sg45
(dp469
S'outport'
p470
I00
sS'quietval'
p471
Nsg49
(dp472
g444
I436
sg265
I436
sg445
I3
sg446
I219
sg264
I1
ssS'min'
p473
I1
sS'max'
p474
I436
sS'collapsed'
p475
I00
sS'inport'
p476
I00
sS'visible'
p477
I00
sS'id'
p478
I4655409160
ssa(dp479
g41
S"<class '/opt/gpi/lib/core/shapers/GPI/Reduce_GPI.ReduceSliders'>"
p480
sg43
S'Dimension[-4]'
p481
sg45
(dp482
S'outport'
p483
I00
sS'quietval'
p484
Nsg49
(dp485
g444
I100
sg265
I100
sg445
I3
sg446
I51
sg264
I1
ssS'min'
p486
I1
sS'max'
p487
I100
sS'collapsed'
p488
I00
sS'inport'
p489
I00
sS'visible'
p490
I00
sS'id'
p491
I4655414168
ssa(dp492
g41
S"<class '/opt/gpi/lib/core/shapers/GPI/Reduce_GPI.ReduceSliders'>"
p493
sg43
S'Dimension[-5]'
p494
sg45
(dp495
S'outport'
p496
I00
sS'quietval'
p497
Nsg49
(dp498
g444
I100
sg265
I100
sg445
I3
sg446
I51
sg264
I1
ssS'min'
p499
I1
sS'max'
p500
I100
sS'collapsed'
p501
I00
sS'inport'
p502
I00
sS'visible'
p503
I00
sS'id'
p504
I4655419176
ssa(dp505
g41
S"<class '/opt/gpi/lib/core/shapers/GPI/Reduce_GPI.ReduceSliders'>"
p506
sg43
S'Dimension[-6]'
p507
sg45
(dp508
S'outport'
p509
I00
sS'quietval'
p510
Nsg49
(dp511
g444
I100
sg265
I100
sg445
I3
sg446
I51
sg264
I1
ssS'min'
p512
I1
sS'max'
p513
I100
sS'collapsed'
p514
I00
sS'inport'
p515
I00
sS'visible'
p516
I00
sS'id'
p517
I4655424328
ssa(dp518
g41
S"<class '/opt/gpi/lib/core/shapers/GPI/Reduce_GPI.ReduceSliders'>"
p519
sg43
S'Dimension[-7]'
p520
sg45
(dp521
S'outport'
p522
I00
sS'quietval'
p523
Nsg49
(dp524
g444
I100
sg265
I100
sg445
I3
sg446
I51
sg264
I1
ssS'min'
p525
I1
sS'max'
p526
I100
sS'collapsed'
p527
I00
sS'inport'
p528
I00
sS'visible'
p529
I00
sS'id'
p530
I4655429336
ssa(dp531
g41
S"<class '/opt/gpi/lib/core/shapers/GPI/Reduce_GPI.ReduceSliders'>"
p532
sg43
S'Dimension[-8]'
p533
sg45
(dp534
S'outport'
p535
I00
sS'quietval'
p536
Nsg49
(dp537
g444
I100
sg265
I100
sg445
I3
sg446
I51
sg264
I1
ssS'min'
p538
I1
sS'max'
p539
I100
sS'collapsed'
p540
I00
sS'inport'
p541
I00
sS'visible'
p542
I00
sS'id'
p543
I4655434344
ssa(dp544
g41
S"<class '/opt/gpi/lib/core/shapers/GPI/Reduce_GPI.ReduceSliders'>"
p545
sg43
S'Dimension[-9]'
p546
sg45
(dp547
S'outport'
p548
I00
sS'quietval'
p549
Nsg49
(dp550
g444
I100
sg265
I100
sg445
I3
sg446
I51
sg264
I1
ssS'min'
p551
I1
sS'max'
p552
I100
sS'collapsed'
p553
I00
sS'inport'
p554
I00
sS'visible'
p555
I00
sS'id'
p556
I4655439352
ssa(dp557
g41
S"<class '/opt/gpi/lib/core/shapers/GPI/Reduce_GPI.ReduceSliders'>"
p558
sg43
S'Dimension[-10]'
p559
sg45
(dp560
S'outport'
p561
I00
sS'quietval'
p562
Nsg49
(dp563
g444
I100
sg265
I100
sg445
I3
sg446
I51
sg264
I1
ssS'min'
p564
I1
sS'max'
p565
I100
sS'collapsed'
p566
I00
sS'inport'
p567
I00
sS'visible'
p568
I00
sS'id'
p569
I4655444504
ssa(dp570
g41
S"<class 'gpi.widgets.PushButton'>"
p571
sg43
S'Mask'
p572
sg45
(dp573
S'outport'
p574
I00
sS'quietval'
p575
Nsg49
I01
sS'collapsed'
p576
I00
sS'inport'
p577
I00
sS'visible'
p578
I01
sS'toggle'
p579
I01
sS'button_title'
p580
g75
sS'id'
p581
I4655449512
ssa(dp582
g41
S"<class 'gpi.widgets.PushButton'>"
p583
sg43
S'Compute'
p584
sg45
(dp585
S'outport'
p586
I00
sS'quietval'
p587
Nsg49
I01
sS'collapsed'
p588
I00
sS'inport'
p589
I00
sS'visible'
p590
I01
sS'toggle'
p591
I01
sS'button_title'
p592
g75
sS'id'
p593
I4655450272
ssasg89
g90
ssg91
S'0.124225974083'
p594
sg43
S'Reduce'
p595
sg94
(lp596
F-49.0
aF20.0
asg96
(lp597
(dp598
g99
g100
sg101
I0
sg102
(lp599
(dp600
g105
(dp601
g107
g100
sg108
I4655451032
sg109
I0
sg110
I4655367440
ssg111
(dp602
g107
g113
sg108
I4655262464
sg109
I0
sg110
I4655235608
ssasg114
Nsg115
I65540
sg116
I100
sg117
I4655451032
sa(dp603
g99
g113
sg101
I0
sg102
(lp604
(dp605
g105
(dp606
g107
S'in0'
p607
sg108
I4631033712
sg109
I0
sg110
I4630914016
ssg111
(dp608
g107
g113
sg108
I4655451184
sg109
I0
sg110
I4655367440
ssasg114
Nsg115
I65541
sg116
Nsg117
I4655451184
sa(dp609
g99
g366
sg101
I1
sg102
(lp610
(dp611
g105
(dp612
g107
g100
sg108
I4655197992
sg109
I0
sg110
I4633389216
ssg111
(dp613
g107
g366
sg108
I4655451336
sg109
I1
sg110
I4655367440
ssasg114
Nsg115
I65541
sg116
Nsg117
I4655451336
sasg126
S'0.00596511363994'
p614
sg128
S'core.shapers.Reduce'
p615
sg117
I4655367440
sg130
S'0.118260860443'
p616
sa(dp617
g36
(dp618
g38
(lp619
(dp620
g41
S"<class 'gpi.widgets.TextBox'>"
p621
sg43
S'I/O Info:'
p622
sg45
(dp623
S'outport'
p624
I00
sS'quietval'
p625
Nsg49
S'input: (24, 436, 436)\noutput: (436, 436)'
p626
sS'collapsed'
p627
I00
sS'inport'
p628
I00
sS'visible'
p629
I01
sS'wordwrap'
p630
I00
sS'id'
p631
I4655292648
ssa(dp632
g41
S"<class 'gpi.widgets.Slider'>"
p633
sg43
S'Dimension #'
p634
sg45
(dp635
S'outport'
p636
I00
sS'quietval'
p637
Nsg49
I1
sS'min'
p638
I1
sS'max'
p639
I3
sS'collapsed'
p640
I00
sS'inport'
p641
I00
sS'visible'
p642
I01
sS'id'
p643
I4655293104
ssa(dp644
g41
S"<class 'gpi.widgets.Slider'>"
p645
sg43
S'Slice #'
p646
sg45
(dp647
S'outport'
p648
I00
sS'quietval'
p649
Nsg49
I5
sS'min'
p650
I1
sS'max'
p651
I24
sS'collapsed'
p652
I00
sS'inport'
p653
I00
sS'visible'
p654
I01
sS'id'
p655
I4655294320
ssasg89
S'Axial'
p656
ssg91
S'0.138524532318'
p657
sg43
S'Slicer'
p658
sg94
(lp659
F-49.0
aF-40.0
asg96
(lp660
(dp661
g99
g100
sg101
I0
sg102
(lp662
(dp663
g105
(dp664
g107
g100
sg108
I4655295536
sg109
I0
sg110
I4655269592
ssg111
(dp665
g107
g113
sg108
I4633372072
sg109
I0
sg110
I4633344616
ssasg114
Nsg115
I65540
sg116
I100
sg117
I4655295536
sa(dp666
g99
g113
sg101
I0
sg102
(lp667
(dp668
g105
(dp669
g107
g100
sg108
I4655262312
sg109
I0
sg110
I4655235608
ssg111
(dp670
g107
g113
sg108
I4655295688
sg109
I0
sg110
I4655269592
ssasg114
Nsg115
I65541
sg116
Nsg117
I4655295688
sasg126
S'0.00318551063513'
p671
sg128
S'core.shapers.Slicer'
p672
sg117
I4655269592
sg130
S'0.135339021683'
p673
sa(dp674
g36
(dp675
g38
(lp676
(dp677
g41
S"<class 'gpi.widgets.TextBox'>"
p678
sg43
S'Data Statistics:'
p679
sg45
(dp680
S'outport'
p681
I00
sS'quietval'
p682
Nsg49
S'dimensions: [436, 436]\n\nmin: 0.0, max: 27727.7\nmean: 3689.46\nstd: 4834.59'
p683
sS'collapsed'
p684
I00
sS'inport'
p685
I00
sS'visible'
p686
I01
sS'wordwrap'
p687
I00
sS'id'
p688
I4631428752
ssasg89
g90
ssg91
S'0.116306066513'
p689
sg43
S'Statistics'
p690
sg94
(lp691
F21.0
aF-10.0
asg96
(lp692
(dp693
g99
g100
sg101
I0
sg102
(lp694
(dp695
g105
(dp696
g107
g100
sg108
I4633342184
sg109
I0
sg110
I4631426320
ssg111
(dp697
g107
g113
sg108
I4655262464
sg109
I0
sg110
I4655235608
ssasg114
Nsg115
I65540
sg116
I100
sg117
I4633342184
sa(dp698
g99
S'min'
p699
sg101
I0
sg102
(lp700
sg114
Nsg115
I65541
sg116
Nsg117
I4633342336
sa(dp701
g99
S'max'
p702
sg101
I1
sg102
(lp703
sg114
Nsg115
I65541
sg116
Nsg117
I4633342488
sa(dp704
g99
S'mean'
p705
sg101
I2
sg102
(lp706
sg114
Nsg115
I65541
sg116
Nsg117
I4633342640
sa(dp707
g99
S'std'
p708
sg101
I3
sg102
(lp709
sg114
Nsg115
I65541
sg116
Nsg117
I4633342792
sasg126
S'0.00978803634619'
p710
sg128
S'core.math.Statistics'
p711
sg117
I4631426320
sg130
S'0.106518030167'
p712
sa(dp713
g36
(dp714
g38
(lp715
(dp716
g41
S"<class 'gpi.widgets.TextBox'>"
p717
sg43
S'I/O Info:'
p718
sg45
(dp719
S'outport'
p720
I00
sS'quietval'
p721
Nsg49
S'input: (436, 436)\noutput: (436,)'
p722
sS'collapsed'
p723
I00
sS'inport'
p724
I00
sS'visible'
p725
I01
sS'wordwrap'
p726
I00
sS'id'
p727
I4655459984
ssa(dp728
g41
S"<class '/opt/gpi/lib/core/shapers/GPI/Reduce_GPI.ReduceSliders'>"
p729
sg43
S'Dimension[-1]'
p730
sg45
(dp731
S'outport'
p732
I00
sS'quietval'
p733
Nsg49
(dp734
g444
I436
sg265
I436
sg445
I3
sg446
I219
sg264
I1
ssS'min'
p735
I1
sS'max'
p736
I436
sS'collapsed'
p737
I00
sS'inport'
p738
I00
sS'visible'
p739
I01
sS'id'
p740
I4655489256
ssa(dp741
g41
S"<class '/opt/gpi/lib/core/shapers/GPI/Reduce_GPI.ReduceSliders'>"
p742
sg43
S'Dimension[-2]'
p743
sg45
(dp744
S'outport'
p745
I00
sS'quietval'
p746
Nsg49
(dp747
g444
I1
sg265
I265
sg445
I2
sg446
I265
sg264
I265
ssS'min'
p748
I1
sS'max'
p749
I436
sS'collapsed'
p750
I00
sS'inport'
p751
I00
sS'visible'
p752
I01
sS'id'
p753
I4655494264
ssa(dp754
g41
S"<class '/opt/gpi/lib/core/shapers/GPI/Reduce_GPI.ReduceSliders'>"
p755
sg43
S'Dimension[-3]'
p756
sg45
(dp757
S'outport'
p758
I00
sS'quietval'
p759
Nsg49
(dp760
g444
I436
sg265
I436
sg445
I3
sg446
I219
sg264
I1
ssS'min'
p761
I1
sS'max'
p762
I436
sS'collapsed'
p763
I00
sS'inport'
p764
I00
sS'visible'
p765
I00
sS'id'
p766
I4655499272
ssa(dp767
g41
S"<class '/opt/gpi/lib/core/shapers/GPI/Reduce_GPI.ReduceSliders'>"
p768
sg43
S'Dimension[-4]'
p769
sg45
(dp770
S'outport'
p771
I00
sS'quietval'
p772
Nsg49
(dp773
g444
I100
sg265
I100
sg445
I3
sg446
I51
sg264
I1
ssS'min'
p774
I1
sS'max'
p775
I100
sS'collapsed'
p776
I00
sS'inport'
p777
I00
sS'visible'
p778
I00
sS'id'
p779
I4655504280
ssa(dp780
g41
S"<class '/opt/gpi/lib/core/shapers/GPI/Reduce_GPI.ReduceSliders'>"
p781
sg43
S'Dimension[-5]'
p782
sg45
(dp783
S'outport'
p784
I00
sS'quietval'
p785
Nsg49
(dp786
g444
I100
sg265
I100
sg445
I3
sg446
I51
sg264
I1
ssS'min'
p787
I1
sS'max'
p788
I100
sS'collapsed'
p789
I00
sS'inport'
p790
I00
sS'visible'
p791
I00
sS'id'
p792
I4655513384
ssa(dp793
g41
S"<class '/opt/gpi/lib/core/shapers/GPI/Reduce_GPI.ReduceSliders'>"
p794
sg43
S'Dimension[-6]'
p795
sg45
(dp796
S'outport'
p797
I00
sS'quietval'
p798
Nsg49
(dp799
g444
I100
sg265
I100
sg445
I3
sg446
I51
sg264
I1
ssS'min'
p800
I1
sS'max'
p801
I100
sS'collapsed'
p802
I00
sS'inport'
p803
I00
sS'visible'
p804
I00
sS'id'
p805
I4655518536
ssa(dp806
g41
S"<class '/opt/gpi/lib/core/shapers/GPI/Reduce_GPI.ReduceSliders'>"
p807
sg43
S'Dimension[-7]'
p808
sg45
(dp809
S'outport'
p810
I00
sS'quietval'
p811
Nsg49
(dp812
g444
I100
sg265
I100
sg445
I3
sg446
I51
sg264
I1
ssS'min'
p813
I1
sS'max'
p814
I100
sS'collapsed'
p815
I00
sS'inport'
p816
I00
sS'visible'
p817
I00
sS'id'
p818
I4655523544
ssa(dp819
g41
S"<class '/opt/gpi/lib/core/shapers/GPI/Reduce_GPI.ReduceSliders'>"
p820
sg43
S'Dimension[-8]'
p821
sg45
(dp822
S'outport'
p823
I00
sS'quietval'
p824
Nsg49
(dp825
g444
I100
sg265
I100
sg445
I3
sg446
I51
sg264
I1
ssS'min'
p826
I1
sS'max'
p827
I100
sS'collapsed'
p828
I00
sS'inport'
p829
I00
sS'visible'
p830
I00
sS'id'
p831
I4655532648
ssa(dp832
g41
S"<class '/opt/gpi/lib/core/shapers/GPI/Reduce_GPI.ReduceSliders'>"
p833
sg43
S'Dimension[-9]'
p834
sg45
(dp835
S'outport'
p836
I00
sS'quietval'
p837
Nsg49
(dp838
g444
I100
sg265
I100
sg445
I3
sg446
I51
sg264
I1
ssS'min'
p839
I1
sS'max'
p840
I100
sS'collapsed'
p841
I00
sS'inport'
p842
I00
sS'visible'
p843
I00
sS'id'
p844
I4655537656
ssa(dp845
g41
S"<class '/opt/gpi/lib/core/shapers/GPI/Reduce_GPI.ReduceSliders'>"
p846
sg43
S'Dimension[-10]'
p847
sg45
(dp848
S'outport'
p849
I00
sS'quietval'
p850
Nsg49
(dp851
g444
I100
sg265
I100
sg445
I3
sg446
I51
sg264
I1
ssS'min'
p852
I1
sS'max'
p853
I100
sS'collapsed'
p854
I00
sS'inport'
p855
I00
sS'visible'
p856
I00
sS'id'
p857
I4655542808
ssa(dp858
g41
S"<class 'gpi.widgets.PushButton'>"
p859
sg43
g572
sg45
(dp860
S'outport'
p861
I00
sS'quietval'
p862
Nsg49
I01
sS'collapsed'
p863
I00
sS'inport'
p864
I00
sS'visible'
p865
I01
sS'toggle'
p866
I01
sS'button_title'
p867
g75
sS'id'
p868
I4655547816
ssa(dp869
g41
S"<class 'gpi.widgets.PushButton'>"
p870
sg43
g584
sg45
(dp871
S'outport'
p872
I00
sS'quietval'
p873
Nsg49
I01
sS'collapsed'
p874
I00
sS'inport'
p875
I00
sS'visible'
p876
I01
sS'toggle'
p877
I01
sS'button_title'
p878
g75
sS'id'
p879
I4655548576
ssasg89
g90
ssg91
S'0.126939535141'
p880
sg43
g595
sg94
(lp881
F126.0
aF20.0
asg96
(lp882
(dp883
g99
g100
sg101
I0
sg102
(lp884
(dp885
g105
(dp886
g107
g100
sg108
I4655549336
sg109
I0
sg110
I4655457552
ssg111
(dp887
g107
g366
sg108
I4655206632
sg109
I1
sg110
I4633389216
ssasg114
Nsg115
I65540
sg116
I100
sg117
I4655549336
sa(dp888
g99
g113
sg101
I0
sg102
(lp889
(dp890
g105
(dp891
g107
S'in2'
p892
sg108
I4631034016
sg109
I2
sg110
I4630914016
ssg111
(dp893
g107
g113
sg108
I4655549488
sg109
I0
sg110
I4655457552
ssasg114
Nsg115
I65541
sg116
Nsg117
I4655549488
sa(dp894
g99
g366
sg101
I1
sg102
(lp895
(dp896
g105
(dp897
g107
g100
sg108
I4655365168
sg109
I0
sg110
I4655301904
ssg111
(dp898
g107
g366
sg108
I4655549640
sg109
I1
sg110
I4655457552
ssasg114
Nsg115
I65541
sg116
Nsg117
I4655549640
sasg126
S'0.0102655887602'
p899
sg128
g615
sg117
I4655457552
sg130
S'0.137205123901'
p900
sa(dp901
g36
(dp902
g38
(lp903
(dp904
g41
S"<class 'gpi.widgets.TextBox'>"
p905
sg43
S'I/O Info:'
p906
sg45
(dp907
S'outport'
p908
I00
sS'quietval'
p909
Nsg49
S'input: (436, 436)\noutput: (436,)'
p910
sS'collapsed'
p911
I00
sS'inport'
p912
I00
sS'visible'
p913
I01
sS'wordwrap'
p914
I00
sS'id'
p915
I4655137456
ssa(dp916
g41
S"<class '/opt/gpi/lib/core/shapers/GPI/Reduce_GPI.ReduceSliders'>"
p917
sg43
S'Dimension[-1]'
p918
sg45
(dp919
S'outport'
p920
I00
sS'quietval'
p921
Nsg49
(dp922
g444
I436
sg265
I436
sg445
I3
sg446
I219
sg264
I1
ssS'min'
p923
I1
sS'max'
p924
I436
sS'collapsed'
p925
I00
sS'inport'
p926
I00
sS'visible'
p927
I01
sS'id'
p928
I4655137912
ssa(dp929
g41
S"<class '/opt/gpi/lib/core/shapers/GPI/Reduce_GPI.ReduceSliders'>"
p930
sg43
S'Dimension[-2]'
p931
sg45
(dp932
S'outport'
p933
I00
sS'quietval'
p934
Nsg49
(dp935
g444
I1
sg265
I230
sg445
I2
sg446
I230
sg264
I230
ssS'min'
p936
I1
sS'max'
p937
I436
sS'collapsed'
p938
I00
sS'inport'
p939
I00
sS'visible'
p940
I01
sS'id'
p941
I4655151112
ssa(dp942
g41
S"<class '/opt/gpi/lib/core/shapers/GPI/Reduce_GPI.ReduceSliders'>"
p943
sg43
S'Dimension[-3]'
p944
sg45
(dp945
S'outport'
p946
I00
sS'quietval'
p947
Nsg49
(dp948
g444
I436
sg265
I436
sg445
I3
sg446
I219
sg264
I1
ssS'min'
p949
I1
sS'max'
p950
I436
sS'collapsed'
p951
I00
sS'inport'
p952
I00
sS'visible'
p953
I00
sS'id'
p954
I4655156120
ssa(dp955
g41
S"<class '/opt/gpi/lib/core/shapers/GPI/Reduce_GPI.ReduceSliders'>"
p956
sg43
S'Dimension[-4]'
p957
sg45
(dp958
S'outport'
p959
I00
sS'quietval'
p960
Nsg49
(dp961
g444
I100
sg265
I100
sg445
I3
sg446
I51
sg264
I1
ssS'min'
p962
I1
sS'max'
p963
I100
sS'collapsed'
p964
I00
sS'inport'
p965
I00
sS'visible'
p966
I00
sS'id'
p967
I4655161128
ssa(dp968
g41
S"<class '/opt/gpi/lib/core/shapers/GPI/Reduce_GPI.ReduceSliders'>"
p969
sg43
S'Dimension[-5]'
p970
sg45
(dp971
S'outport'
p972
I00
sS'quietval'
p973
Nsg49
(dp974
g444
I100
sg265
I100
sg445
I3
sg446
I51
sg264
I1
ssS'min'
p975
I1
sS'max'
p976
I100
sS'collapsed'
p977
I00
sS'inport'
p978
I00
sS'visible'
p979
I00
sS'id'
p980
I4655166280
ssa(dp981
g41
S"<class '/opt/gpi/lib/core/shapers/GPI/Reduce_GPI.ReduceSliders'>"
p982
sg43
S'Dimension[-6]'
p983
sg45
(dp984
S'outport'
p985
I00
sS'quietval'
p986
Nsg49
(dp987
g444
I100
sg265
I100
sg445
I3
sg446
I51
sg264
I1
ssS'min'
p988
I1
sS'max'
p989
I100
sS'collapsed'
p990
I00
sS'inport'
p991
I00
sS'visible'
p992
I00
sS'id'
p993
I4655171288
ssa(dp994
g41
S"<class '/opt/gpi/lib/core/shapers/GPI/Reduce_GPI.ReduceSliders'>"
p995
sg43
S'Dimension[-7]'
p996
sg45
(dp997
S'outport'
p998
I00
sS'quietval'
p999
Nsg49
(dp1000
g444
I100
sg265
I100
sg445
I3
sg446
I51
sg264
I1
ssS'min'
p1001
I1
sS'max'
p1002
I100
sS'collapsed'
p1003
I00
sS'inport'
p1004
I00
sS'visible'
p1005
I00
sS'id'
p1006
I4655176296
ssa(dp1007
g41
S"<class '/opt/gpi/lib/core/shapers/GPI/Reduce_GPI.ReduceSliders'>"
p1008
sg43
S'Dimension[-8]'
p1009
sg45
(dp1010
S'outport'
p1011
I00
sS'quietval'
p1012
Nsg49
(dp1013
g444
I100
sg265
I100
sg445
I3
sg446
I51
sg264
I1
ssS'min'
p1014
I1
sS'max'
p1015
I100
sS'collapsed'
p1016
I00
sS'inport'
p1017
I00
sS'visible'
p1018
I00
sS'id'
p1019
I4655181304
ssa(dp1020
g41
S"<class '/opt/gpi/lib/core/shapers/GPI/Reduce_GPI.ReduceSliders'>"
p1021
sg43
S'Dimension[-9]'
p1022
sg45
(dp1023
S'outport'
p1024
I00
sS'quietval'
p1025
Nsg49
(dp1026
g444
I100
sg265
I100
sg445
I3
sg446
I51
sg264
I1
ssS'min'
p1027
I1
sS'max'
p1028
I100
sS'collapsed'
p1029
I00
sS'inport'
p1030
I00
sS'visible'
p1031
I00
sS'id'
p1032
I4655186456
ssa(dp1033
g41
S"<class '/opt/gpi/lib/core/shapers/GPI/Reduce_GPI.ReduceSliders'>"
p1034
sg43
S'Dimension[-10]'
p1035
sg45
(dp1036
S'outport'
p1037
I00
sS'quietval'
p1038
Nsg49
(dp1039
g444
I100
sg265
I100
sg445
I3
sg446
I51
sg264
I1
ssS'min'
p1040
I1
sS'max'
p1041
I100
sS'collapsed'
p1042
I00
sS'inport'
p1043
I00
sS'visible'
p1044
I00
sS'id'
p1045
I4655191464
ssa(dp1046
g41
S"<class 'gpi.widgets.PushButton'>"
p1047
sg43
g572
sg45
(dp1048
S'outport'
p1049
I00
sS'quietval'
p1050
Nsg49
I01
sS'collapsed'
p1051
I00
sS'inport'
p1052
I00
sS'visible'
p1053
I01
sS'toggle'
p1054
I01
sS'button_title'
p1055
g75
sS'id'
p1056
I4655196472
ssa(dp1057
g41
S"<class 'gpi.widgets.PushButton'>"
p1058
sg43
g584
sg45
(dp1059
S'outport'
p1060
I00
sS'quietval'
p1061
Nsg49
I01
sS'collapsed'
p1062
I00
sS'inport'
p1063
I00
sS'visible'
p1064
I01
sS'toggle'
p1065
I01
sS'button_title'
p1066
g75
sS'id'
p1067
I4655197232
ssasg89
g90
ssg91
S'0.125309109688'
p1068
sg43
g595
sg94
(lp1069
F36.0
aF20.0
asg96
(lp1070
(dp1071
g99
g100
sg101
I0
sg102
(lp1072
(dp1073
g105
(dp1074
g107
g100
sg108
I4655197992
sg109
I0
sg110
I4633389216
ssg111
(dp1075
g107
g366
sg108
I4655451336
sg109
I1
sg110
I4655367440
ssasg114
Nsg115
I65540
sg116
I100
sg117
I4655197992
sa(dp1076
g99
g113
sg101
I0
sg102
(lp1077
(dp1078
g105
(dp1079
g107
S'in1'
p1080
sg108
I4631033864
sg109
I1
sg110
I4630914016
ssg111
(dp1081
g107
g113
sg108
I4655206480
sg109
I0
sg110
I4633389216
ssasg114
Nsg115
I65541
sg116
Nsg117
I4655206480
sa(dp1082
g99
g366
sg101
I1
sg102
(lp1083
(dp1084
g105
(dp1085
g107
g100
sg108
I4655549336
sg109
I0
sg110
I4655457552
ssg111
(dp1086
g107
g366
sg108
I4655206632
sg109
I1
sg110
I4633389216
ssasg114
Nsg115
I65541
sg116
Nsg117
I4655206632
sasg126
S'0.00399100780503'
p1087
sg128
g615
sg117
I4633389216
sg130
S'0.121318101883'
p1088
sa(dp1089
g36
(dp1090
g38
(lp1091
(dp1092
g41
S"<class '/opt/gpi/lib/core/display/GPI/Matplotlib_GPI.MatplotDisplay'>"
p1093
sg43
S'Plot'
p1094
sg45
(dp1095
S'outport'
p1096
I00
sS'quietval'
p1097
Nsg49
(lp1098
cnumpy.core.multiarray
_reconstruct
p1099
(cnumpy
ndarray
p1100
(I0
tp1101
S'b'
p1102
tp1103
Rp1104
(I1
(I436
tp1105
cnumpy
dtype
p1106
(S'f4'
p1107
I0
I1
tp1108
Rp1109
(I3
S'<'
p1110
NNNI-1
I-1
I0
tp1111
bI00
S'\x00\x00\x00\x00\x00\x00\x00\x00\xb0\xf7\\D\xe1\xa2\x9bD\xd0\xe9=D\xf7g\x9aC\x99\x1e\xedCt\x0buD\xe6\xd3?D\xae\x13\x80D\x10\xb1\x00C\xf9\x1a\\D\xe8D\'D\xa1\x1f\x00DL\xbc\xb1C\x972{D,\\XD\xab\x82eC\x94\xc9\xb7C\xc1\xd3\xd4C\xa5\x0b\xe4C\x18w;Cg\xb2.C\x15\xb7\xf0CiJ#C\x97<\xcfCy\xe4\x1fCC~\x12D\x0fhAD\xac\xee&C\x87\xda\\D\xdd\xdc\xb9C2\x8c\xc7C\xf9IrC\xe8n\x0bD\xaa\x1b\xa9B\xc0\xda\x1aD_noD\x95ejD\x8f\xf3JD\x11[\xb1C\xeb\xcf\xf8B[o|C\x15\x9csDU(\xaaCqb\x03D\xe1\x0bfDW\x1b0D\xccD\xbbC<c\xf5C]C\xdfC\x960\xe9C\xd4\xd1xC\xa1\x8bTD\x08\x9f\xa7D\xba\x1a\x1aD*\x92\xb8C`\x8c\x90D\xd29SC\xae%\x12D\xa5\x84bD\x16\xfb\x9dDx\xf4\x97C/\r\xf0C%f\x89D\xf4\x9b\x1cC-\xb9\x80D\x9e\x1cgC\x07g\xd9Cqc6D\x92,[DHI\xbeC\xca\xeb8CD\xb8YC\xc6TtCj\xa8\xb2C\x17\x12\x8aD\xba\\\x0bDg\x97\xf1C\x97\x08"D\xe76\x87Dh\x00\x98DL\xff(D2\x89\x0eE~\xaa\xd3DwEwE\x1ag\xb5E\xf6\xe4\x01F\xfc\x0f\tFJg\x14Fl\xcf\x07F\xb90\nF\xb7\xc2\xd8El\x81\xa4E\xad\xb8iE\xf2seE\x1c\x98$E\x81ZkE6)zE\xb2\x8dcE\x16\xf3*EV\x92DE\xcf\xb2\x92E.>\x92E\x00X\x90En\xacCE\xfdV\xabD\xa0p\x9bD\x89\xccUC\x0c(2D\x0f\xbe\xb2E\xd1]\x05F\x91\xc0\x0cF\x8c\x99$FIS\x1aF\'\x17\x08F\x16[\x02F\xe8~\x0bFC\xa4\x01F~\xe2\x0fF\xbbY\x11F\x1e&\x14F#\x8a!F\x1d\xf1#F\xa4\x83LF\x04\xe1BF\xd6\tDF\xa6^,F\x8e9\x12F\xc4\xbb\x13FNO\x07F\x13d\x0cFHR\x01F\x1b`\xf1Ed\xfa\xe8Ev\x1d\xd3E,z\xb7E\xe9\x01\xb1E\'\x9c\x8dE\x1a\x03\x94E\xd8\xe4\xc0EPZ\xa6E@\xa3\xafEn\x80\xa7E\x15U\xacE\xf8\xf6\x94E\xed\xe5\xaaE1\xd2\x9fE\xe9\xb1\xacE^$\x94E\xa3Y\x94Em|\xc8E\x99\xf9\x9cE\xdb\xcd\xbdE\'K\xb3ET\xfe\xb1E\xa0\xba\xbaE\x82\x95\xc6E"\x84\xd3E\xc1\xd2\xcaE\xd1\x92\xc6E\x07R\xdcE_3\xc8E\x99\x83\xdbE@3\xa6ES.\xe1EU\r\xf2EP\x7f\xcfEza\x06F\xfa\xbb\x08F>\x06\x10F\x0ebJFZC\x82F"WqF\xf0o\x89F\x04_nF\xe0rJF}\xe2:F\xd4W:F\xbc\xc83F\xc6?2Fbt\x1dF\xa4-\x1dF:\x87\x10F\x03\x00\x17F\x83\xec\x0fF\'\x84\x0cF?\xf2\x03F\x07/\rF\x17x\x05F2\xb3\x16Fvz\x11F\x8c\xe0\x15F\xa2Q\x19Fg~\tF \xd9\x18F\xad\xe8\x13F\xa6\xa4\x0fF\xaf\x8b\rF\xcf\xe6\xfcE^\xf0\x08F\xc4\xd2\x0eF\'\x04.F\xb2\x13\x0eFo\x15\xc6E\x86miF\xa8^QF6\x17)F\x16k\x16F\x8b\xea\x1cF\x1fe5F\x97D\x19F\xa2\xf8\xc0E\xb5\xb3\xd0E\x89!\xd5E\x9a\x9e\xf2E\xf0\xaa\x15F!$\'F\xff\xf7\xe8E\xa95\x11F\xfd\xbc\xf9E\xed~\tF\xad\x01\x14Ff>(Fx:&F%D.F-n\x19F\xbfL\x13F{\xdf\x0cF\xf6\xcc\x16F\t\xf5\x0bF)\x16\x11FM\xa0\xd6E\x96~\xc4E\x19>\xe2En\xb3\xf2E\x81\xf6 F\xfbR\xe8E?i\xc7E\x0eV\xbeE\x9d\t\x01F\xb8\xaf!F\xb9\x15\xe1E\xdf\xe2\xd1E\xcdQ\x03F\xfb\x10\x13F\xec\xb4$F\x06\xc8\xeeE3I\x1dF\x04\xaaUF.\xb7ZF\xb0\x15\xaaE\xa2\x11\xd2E\xc04=F\xe5o(F\xf8I$F=\xc7\x1dF\x86\xc7\x0cF\xfbU\x16FQ\x9e)F\x1e\x87\'F\xc9c6F\xe3\xff\x1dFY\x9f(F\x89\xc1\x1dF>\x0c"F\xb7[\x14FEC\x03F\x02\xa1\x14F\xe92\x0eFmX\x13F\xfee\xf2E\x1a\x07\xffE\xc8B\x0eF1\x18\x07F\x9e\x03\xe9E\xd1\x0b\xf9E\xf6\xfa\x04F\x8b\xea\xfdE\xec\xbc\xf7E\xe4\x9c\x02F\x0e>\xe0E\x85\x12\xf3E\xdd[\xdcEd\x1b\xc6E\x9c\xb8\xbeE2D\xb7E\xba\x9b\xc0EA\x13\xb4EW\xcd\xb8E-\x0c\xb8E\xd4\x8a\xb7E\x92\xde\xbeE\x0f\xfb\xaeE\x83@\xb0E-\xe1\x9eEu\xb3\xabE\xde\x01\xc0E\x04\t\xa1E\x0e\xf9\xacEh\x15\xa0E+\x8e\x8eE\x15\xa2\x9fE\x17\xb8\xacE\x80D\x9bE\xcbr\x8eE\x19)\xb2EUJ\xf4E\xc9\x10\xf1E\x83\x81\nF\x7fc\x03FZ\xa8\x05F\rS\x05F\x07\xb3\x03F\xeb\x96\xe7EMm\xe8Em\x82\x04F\x1e3\x16F\tI\x0eF\xef\xb3\x0eFH\xff\x0fFd\xe9\x00F6\x18\x16F\xf0\xac\x06F3+\nF\x15^\x0cFV\x9f\tF(\xb4\x0cF~\xeb\xf0E\xfeR\x12F\xd1j\x05FD\xae\nF\xde\xb1\x08F\xcc\xbf\xf4E\x90I\x17FTt\x01F\x8c\xec\x0bFY\xe5\x0fF\xcc\x03\xcbE\xf8K[EMlGD\xda`\xd5D\xe4\x89(E\x06rFE\tc@E8ZlE\xd6\xc0\xa9E-\x9f\xa2E\xbf\xbd E\x93\x066E69\xe6Dv\x8bkE}\xc0\xb0D\xcd3\xfcEK\xc4\x1eF\x94\xe7\xbeE\xe6\xab\x0eF\x1d\xcb\x98EF\xbe\xa7EL\xec\xbbEp\xa0GE\x1ff\x0eF\x9a\x8c\xe6E\xde\x9f\x96E\xb3\xff\x96E\xb1D\xbcD:\xb9\xa9D\xc7"\xd6D\xa1lYDoX\xa5D)\xc7\xc1D-P\x08DW\x8c,D}\xb4\xb5C\xb3K\x89D\xfb2\x96D\xde\x9c\x81D\x0e\xf6\x98D\t\xc1\x1eD\xcb\xf0\x17D\xd4L\x9fCp\x0c\x9aD@p D\xc0\x18\xb9C\xab\x01FD|L\xd7C_U\x8aC\xda\xc4\xf9C\x15\xb4\xb7C\x1b\x00\x91B]N\xb8C\xb2t&D\xe1\xd9!D\xe1\x01\xc8Cb\x16OD\x8d\xde\xd0C"\xb6,CRjhD\xc4\x80\x1cD!\xfa\x90C\x82O\x06D\xebH\x12D$\xe9\x85Cs{\xdfCK?\xcaC\x88}EDc\xf5OD\x05\xcf\x82D\xd0$\xa8D5R\x03D\x15\x90\x01D\xde4\x92C\xb5\x1e\xefC\xddL\xb6C\xc7\xca\x1fD\xdd\x08\x03DN\xb0\x85C{\xb7\x89C\xc3\xd8\xdeC\xab\x8e/D\x89?\x9dC\xb0\x8bXD\xda\xfa\xb7D\xaa\xfd"D\xe2n?D\x0f_\xfcC\x19\xc5\x10D.\x8e_D\xefKxDa\x16\xdfC\xa6n\xc5C\xa4Y\xc8C0u\xfeC\x9e\xd4\x00C\xcc\\\x98C\x00\x00\x00\x00'
p1112
tp1113
bag1099
(g1100
(I0
tp1114
g1102
tp1115
Rp1116
(I1
(I436
tp1117
g1106
(S'f4'
p1118
I0
I1
tp1119
Rp1120
(I3
S'<'
p1121
NNNI-1
I-1
I0
tp1122
bI00
S'\x00\x00\x00\x00\xeaE=D!h\xb3Co\x1a\x89D_\x08;D\xb8\xd0\x95D\x9e\xc0\x0bDI&AC\x8bV\x89B\xe7\xf0\x87D\xeds\x08D\x9e\xf6\xc4C\xd4\xe8\x1eDN[\x05D}]zDVS\xbdCO\xf26D\x9d\x18JD\x17f\x97DS\x0e\x1cDts\x82DFX\xc5B\x96@\xf3C\x97\xce\xd6C\xc9hiD\x8a|VD\x97#\xe2B\xa9\xd7\x0bD\\\x14wDt\xeb<D\x8d\xfbPD\xcd|\xbdC\x82\xeeqCV\xc8\x12Dom7C\xa6URC~8\xb2C\xd5\xe3aDb\x9bOD\xd48rD\x9f\x80|D\xcf\xc7\x01D7\x15\x14D3\xf8\xdcCK\x92\xc3C\xf4\x91\xc1C\x84p\x1aD\x85\'<D\xc0\xcbgD\xe6h3D\x11e\x98C\x971#D-{8C0hSD;\xab!D\xceT)D\x98\xf9TC\xc2a>D\x7f\xaa\x8aD\xb1\xd1\xa0CU\xea\x8bD\x8a\xfd%D\xdf\xdd\x01E\xa9\xc5\xa8E\xdfg\x8bE\x14\x14|E~Z\xa9E\xc1{\x8fE\xeb\t:E6\xf1\xe2D\xb0\xd4\x12E\xf1\x1c\xf4Du\x92\xa4D\xff\xc6\x84D\x00t\xadC\x16\xc5\xd8C\xad\xeb\xd0C\x88O\xd9C\x14\x02\xa6D\x96\xfb\x80D%\xee\xb5D\xd6A#E\x1e\xe1\x8dE\xc5v\xe4E)\xcc\xe7E\x16\xb4\xd6E\xd3\x0f\x9eE\x18\x9e\xf8DvD\x1aE\x1b\xdd\xa4E\xe2\x97\xdbE\\\xda\x9bEJ\xccdE\xb9:EE8$zE\xe7::E\xebqWE\x1e\xd7CE\xf0\xd9`E>\x1b(E\x9e"\xa6DA\xae:D\x86#\x8bEd\xae\xe0E\x9dR\xfbE\x97\x03\x1fF\x9d\x94\x07FZ\'\tF\x04\xa4\xf6Eq"\x0fFa\xe0\tF\x93\xc4\tFj\xf8\xedE\xe7\xa9\x0eF\x92F#F\x96\xb0-F\xa4\xda;F\x0417F&\xdb5F\xe1\xea\'F\x96\xc6\x1dF\xf2\x89\x06F\xc0\xfe%F\x83\x10\x1fFbF\x14F5|\x15F\x1bg\xecE\x02\xae\xd6E\x7f\x01\xb8ERk\xbcEK,\xc8EE\xe0\xd9E\xac\xe9\xe2E\xc1a\xf2E=\x0b\xf1E5,\xdeE\xd5\xc7\xe2E\xad\x83\x00Fj\x18\xf6E^\x10\xf2E\xb9\xa1\xf8ER\xa5\x03Fo\xac\x06F\x11B\xe4E\xe6F\x05FTg\x14F\r\x87\xf3E\xc3\x04\xf6EP\xd9\x0cF\x01\xa2\x0cF\xc2\x0c\x14F\x888\tF\xdan\x08F\x8b\xf7CFhBTF\xbf\x08\x10F\xff\xef\x0cF\xe1C\x01F#\xf1\x01F\xc1"\x05F\xd8.\x00F\xb4\xd4\xd2ED\x8e\xc6E\x95\xcf\xadE\x00\x10\xb2E\x8d\r\x9cE\xaa\x97\xb5E\xd9\xbb\xcdE0\x17\xccE\x13/\xbcEl,\xe3EM:\xdfEMh\xe9E\xb6\xc4\xe8E\x83G\xf3E\xda\x88\xeaE\xbbl\xe8EQ\xf7\xb2E\x84\xa8\xc6Ec\x99\xc9E I\xdcEuM\xb1E\xb9\x8b\xc8E\xe55\rFy}\x08F5\x08\xf0E\xc9(\xfbE\xc1O\xd1E1\xfc\xcdE\x8a\x8c\xb9E\xda=\xcdE\xa7\xc1\xd8E\x1f/\xdcE\xb9V\nF>\x1f\x1bF\xb2\xbb\x04F\xf4c\x0fF\xbe\xc9\x1dF\xef\xa2\x1dF\x8b\x90\xebE\x0c!\xa5E\xf4\xef\x17F\xe8+uE1\xfa\xb0E\x0fF\x8eE\xb1\xe2\xb6EO\xe6\x92E}&\xd0E\xdc\xd1\xb5E\xb7\x82\xd9E\xbe\xba\xa2E\x05\xed\xa9E\x05u\x9fE\x02\xc0\xacEb1\xaaE\x87\x95\xbeEO\xb5\xbfE\xca\xd1\xa4E\x17\xf2\xb8E\x1fZ\xa0E4/\xabE\x88\xb7\x9fE\x10\xb5\xa1E\xc0\x9a\xa8E\x8e\x8e\xb4E1#\xc5E\x15e\xa5E^\xf3\xa0E\x03\xe5\xc2E\xc0\xd6\x9cE\x07\xfe\x9fE]\x8b\xabE\xdb\xa9\x99EV\xbc\x86E\xc1\xc1\x8bEA\xaf\x86E\xd0\x0e\xb7E\x0f=\xa1E\x85\xea\x98E\x0f|\xcaE{1\xd0E\x1f\xbf\xc2Em\x81\xdaE\xb5\x0e\xadE\xa3m\xc5Eca\xc4E\xaf\x12\xbaE\x07>\xaeEC\x93\xceE\xe6\xd9\x99E\x0c\x96\x98E\x81\xf7\xa3E6\x94\xcbEk\xfd7F\x12\x14/F\xe3\xd1\xe6EXq\xebE\x90X\xdcEs\xc6\xe9E\xb9\xcb\xf5E\xb0Z\xf7E\x11\x16\xd4EN\xa5\xa3E\x955\xc1E\xd1e\xa1E\xce\xbf\xbaE\xb7\x06\x9dE8\xa8\x94Eo\xa8\xecE\x9d\x15\xd8En\xd6\xc9EG\xf8\xdaE!w\xf0E\xb6\x00\xdfE\x0b\xd8\xacE\xa3p\xbfE\x8cl\xbaEF\xe2\xc5Er!\xc3E\r\xbf\xbaEM\xea\xb5E\xa4\x98\xd0EL}\xb1ElW\xbbE\x950\xb7E\xe4\xf0\xc0E\x81D\xc7E\xb4\x8a\xa2E\x06\xd4\xc2E!Q\xcfE\xb71\xb9E\xfc;\xb6E\x91\xba\xbcE\xb2\x0e\xcfEzh\xc6EQQ\xccEj[\xc5E\xfc3\xebEF\xff\xe1E{\x92\xefEo\x04\xf7Ef_\x12F\xe73\x18Fo\xae\rF\x11\xae\x11F\xf0\x9e"F\x90R/F\xe5%\x0bF\xda\xc3\xfcE\xc00\x0bF\x91T\xfeE\xeb_\xf1Ej/\xd4Ea\xc6\xceET\x86\xdaE+\x06\xcaE\x8f\xb0\xd8E<\xf3\xb5E\x17/\xcaE\xf5\x0c\xc6E\x0eW\xc6E\xe3%\xe8E\xa8j\xedEr\x9f\xd5E\xb1a\xc9E\x11\xc2\xe5E\xc7\xca\xecEh\x12\xdaE\xb0\xe9\xcdE^\xc9\xd4EA1\xf5E\xf3\xda\xc2E\xda\xf9\xf8E\xaeO\xf8EZ\xbb\nF\x06\xba\x01Ft\xd4\xf5E\x9fx\xdfE\x94\x90\xf5E\x1dR\x04F\x15\x15\xfdE\xc3i\tF\xcch\x12F\xaa\xa9\x07F7\x9f\x1aF\x89D\xdbE\x13\xcc FJ\xdc;E\x88B\x0fEBt\xdfD\x06,]E=\xea\xabE\x87V\nE\xbe\xc9*E3\xd9NE\x8e\xa3}E\xc8XoEl\xfeFE\x0e\xdfJE\xa5\x8f\x84E\xf4]\x90E\x07\x1e\xd5D\x1b\xdf]E\xe3EME\xc1\xbcPE\xf0\xa7\x91E\x8d$\x8aEz0\\E;!\x9eDJ\x7f\x8eDZ~\xb7C\r\xf2\xe1D\x80%\x81E\xa4\x1a\xa8E\xd3\xab\x84E\x8a_\x7fEG\r\x89E!\xcdcE\x87\x11\xf6E\x81\x8a\x0eF\xdbHDE\xfbBPD.\xaffD\x91\xf5\xf0C\xe3\xa0\x8fC\xd9-\xf9C\xad\xf4\x8eD@\xbc\xa8Cw\x8f\x9dC\'k\xa6C\xf0\xee\x16D\xb4\x94~DA\x19`D\x9d\xb3\x05D\xb4,\x8cC\xfb\xc7FD;;\x1aD\xdcJ\xcbC\x1a\xba-DY&*C\xf7\xbd\tC\xcf\x89kD\xa2[\xb2D\x82\xa9pD\x8f\x81UDS\x9cFD\x15\x14\x03Ci\xe5\x81D%7\xd6C\x97\xe9\tD{\xaf\x15D1\xabgCJ\xe8\x7fC(\xb7.D\xaeJUD\xf3V\xc7C\xa5\xc10D\x06o\xfbC\xae-\xa3D\xc4[\x18D\xa25\x8eD5\x0e\nCu\xc8\xb3Cwv\xacC\xb2\xc8\xf5CHI\x1cD!\xa9\tD\\\x18\x1aD}joD@\xee5C\x94\xef#C9\x00\x82D\\(RD\xf8\x95(Dr\xda-C\r,\xb6C'
p1123
tp1124
bag1099
(g1100
(I0
tp1125
g1102
tp1126
Rp1127
(I1
(I436
tp1128
g1106
(S'f4'
p1129
I0
I1
tp1130
Rp1131
(I3
S'<'
p1132
NNNI-1
I-1
I0
tp1133
bI00
S'\x00\x00\x00\x00\x00\x00\x00\x00\x00\x00\x00\x00\x00\x00\x00\x00\x00\x00\x00\x00}\xcb9D:\x1c\xd6B\x1f5\xbdCBd\x10D\xdf\xdd\xfdC:\xac[CG]\xaaD*\xe9\rD\xd6\xccwD\x96\x1c\xc3C\xac\xcb\x9aB\x84\x83`D\xb4\xd0\xcdCvC@D\x8ek\xc3C\x9e\x98\x8dD\xae\x7f\xc1CAy\x14D@G\x1eD\x03;\x0fD\xf7\xb1\x9dCv(\x15D\x11\x97\x1bDB\xf8JD\xf6mqD\x19\xc1\x8eD\xc3-dC\xd6\x12ND\ng!D\xd2j:D\xf4\xab|D\n\xe9JD\xf0\xa0\x9aBp\xd8\x03D0\xb4\xdaCM\xc4\x97CNx\xa4CF\x92%C\x16\xcc\xadC\xb3\xf7\x02D\xbfN<CIybC\xfeE\xa6B\xe4\x9c\xe0C\xc4\x83\x8dC\xd8\xd8 D\xc5%+D\xc5\xf5:C\xcbB1DY\xbcxDDY\xaeD\xc2u:D60^D\x9e\x97\x82D\x01N\xf5D\x1bW\x0bEB\xc1\x92E\x92\xd0\xe8E*\xf3\x05F\xbdK\xe3E~\x84"F\xcc\xec"F\xe7n F\xb3j\x1eF\x02o\xe3E\xd3\xd4\xb2E\xf8L\x88E\xd8\xcf\x87E3\x113E|\xcc\xa5D\xa1\x10\xb3DWH9DH\xf2\x1bD\x19\xba\xa5Djb+D\x97\x84\x89A\' \x83D\xc0\x11PD)\xb6\xcbD\xb9.\xa6D\xf2\\\tEI\x00\x0fE1\xed]E\xd0\x80\x98Et\xa6JE\xb6\xd2lE\r0XE\x11\xb2-E\xbd\x81@E\xe6\x8e\x99El\xde\xedE\x7f\xdf\x87E,\xb1\xfdD\x1fk\x18D\x85R1D\x1b\x02\xe0C\x9f~\xe7C\xe5\x11RD\xbb\x18\x0fDN\x02\nD\x95\xd3\xfbDd\r\x89E\x0b\x8a\xdcE\xdb\xa9\xeeE\xad/\xe8E\x00\x81\xf8E \x86\x0fFsW\x12F\x1c\x99\xfaE\xad\x0c\tF\xfc\xc2%F\x8c\xab F\x1d\xae\x17F\xc1o\x17F\xf4\xf4\x13F\xdef\x1dF\xeet/F]\x19\x11F\xa2\xe9\x13F\xfa\x1f\x18F\xf5W\x1fFG!$F\xf4\x91\x18Fp\x8e5F\xa5{"F)}!F},!FP\x16\x15F\xc5\x01\x13FX\xf4\x17F\xd5;\xe7E/\x9d\xeaE\xcd\xcb\xe1E\xe0#\xbaE\xdcl\xc1Ei\x9d\xb8E\x8e\xff\xc0EG\xd4\xacE\x90Z\xc4E\x82\xf4\xc6E[\xbf\xdcE\x86\x7f\xd3E\xb4\x8c\xb1E\x7f\xcd\xd9E\xb0\x12\xc4E\xea>\xa4E\xad\x9b\xc4E\xc8!\xe4Ea\x96\xf2E\x04P\xdfE8?\xf5E\xba\r\x04F\xc3%\x06F\x07\xf8\x02F\x1d\x07\xfcE\x00<\xe0E%\x18\xd3EM\x1d\xc2EEl\x8eEJ\xd3\x9bEg\xba\xbbE&\xdd\xd3E\x19\x92\xc9EJ\x95\xc2E\xb1\xbb\xd8E|p\x01F\x0cM\xfcE\x9b\x03\xc6E4T\xd5E^\x15\xdeE\xe8\xf7\xc9Ez\xe6\xb9E:\xba\xd5E\x87\xc9\xedE\xe3j\xe8EhO\xeaE\x1e\xf5\xf5E\xe0:#F\x84\xe2\xf4EY\xcd\xf4E\x9d\x92*F\x08/"F\xc7O\x0bF\xf5\xe6\x0fF\xf8\x08\x15F\x86\xc8\x02FFW\x03F\x0eM\x14F\xf8\xe7\x0eFGT\nF0\x16\xe5EZW2Fj\xbfjF\t\x84\x11F\xfd\x1c\rF\xd4T\x05F\xfcm\xfbEe\x9e\x19F\xe6\xd9\xdeEy\x0c\xc9E\xad\xd1\x06FP\xe1\xfcEO|\nF\xad\xa8\x11F\x14\x95\x1eF\xce\x9f\x0bFVg\x15F\x1eA\x0eF\xf0i\xe4Ec\xdc\xd3E\xb0~\x1fF\xa2\xed]F\x9c\xe9\x84F\xfd\x17\x91F*\xd5\x84F\x18\x97rF68,F\xba\x02\x1aFO\'\x08F\xe3G\xe8E\x1b\xd6\xdfEQ)\x0eF\xc4\xf1\xa3Ea`\xa8E|k\xfcE<\x9a\x17F\x05e0FiqyF\x0fFTF\x11@fFB\xf2\x97F\xdaN\x8bF=\xbc\x95F\x99\xc0lF"\xbeMF\\8/F\x02\x15\x16F)\xe8\x00F.f\x1fF2\xef\x19F\xbcy\xe4EVw\x05F\x12\xd8\xeeE\xcd^\xccE\x9e\xdd\x04Fn\xc7\xebEq\xc2\xfbEd#\x19F\x82\x9c\x0bF\xcb\xcd\xe7E\xb5\xab\xd4E\';IFp\xa1\x17F\xfaa\x0bF)\x89\x10F\xf6c\x07F\x19"\xf1Es\xf9\nF)Z7F\x11\xd1\x06Fk/\xfdE;@\x16F\xfa0\x10F2M\xe1E\xa8\xbf\x0cFHu\x00FD\x97\x07F{\xe4\nF!\x9d\x07F\xb7U\xf2E9\xd9\xebE}\xf6\xefE\xae\xc9\xcbE\x9a\xd0\xf1E\xe2\x0e\xf1E\x87+\xd2E"[\xbeE$\x11\xc3E+7\x89E\r\xf5\xa6E*\xdc\xc6E }\xa6E(\xac\xbbE<3\xbeE\xab\x86\xdaEF\x19\xd7E\x17\xc5\xe8E\x00M\x1bF\xfdk\rF@W\xf3EV\xda\xf6EIs\x00Fgz\x15F\\:\xebEou\xd1EBW\xf3EU\xd5\xf0E!q\xf8E\xa4\x9c\xedE1\x98\xf5E\xf3\xf7\xf9E\xe8\xf9\xc7EBa\x8eE\xcc!\x98E\xdf\xd5\xb2E9\x9e\xdbEZ\x8c\xdcE\xca\x80\xe0EI\xc5\xf4E\xec\xdd\rFv\xf71Fh\xa0\x12F\xb2\xb6\xfbEY\xf9\nF\x0e@\xf5E\x07^\xe2E@\xcd\x0cF*\xa1\x14Fll\x06F\xdb\x81\x0fF\x88\x1f\x13F\xd19\x13Fm-\rF\x9b\xf4\x0bF1\x96\x08F\x08\xf7\xf5E\xe9=\xe4E\xd6\xc2\xadE\xb5\xa6\x82Eo\x89\\E\xa7B\xa9E\xb3\x84qE\xc0\x9aaDn\x12UD\x19\x06\x12D\xb8\xc5WD\xcc\x92\xa0D\xac\xbddD\xfd\xc2\x8dD_\x1a\xdaD\xbamQE\x81\xe1\x8aEe\xd5\xadE!\x86\x85Es"(Eh\x1e\x04E+\xea\xd2Df\x9c\x9bE\x96\xc1\xaeE\x12dlE9\xd1\xbaE_\x8e\x17E\xcd\xc3\xe2D\xf8\x1bkE\xbeF\x86EeA[E\xf38cE\x9fk\x03E\x90S\xceD\x07\xe9\nE\xae\x96RD\x13\x85\x98D\xda\xd2\xa8D{\xf2\xfaD\xd2\xdeUD\xda\xb9\xfdD\xa1\xa7!E&\x80\xdbDO\xeb"E\xcfA\x94E\xb1g\x9fE\xef\x9a\xb6E\xeak\xd7E\xd9\xb4\xc2EY\x12\x9eE\x9d\xe5\xd7D{w\xb7D \xe8\x9eD\x92^\xc7DG\xc6/D\x13\x90\x98D2"PDQ\xe2OD\x98\x988D\xd1\x14\x1bD\xc8\x0e\x81C \x19nD\xd0\x9a\xe0Ch\xe9\x99D]jgD\x17\xe8\xc2C\x91=\x96D\xa9\xf8\xa7C\xf7+JC\xc7\x89AD\xaf\x1bRC;\xcd_Ci\xd7[D\xc4\\\x89C\xebozD\xedLoD\x81n[C\xb1\xd7\x1cD\xf7y\x90D\x99^\xa2D\xf0\xcfyD\xf94\x08D\xbb|\xa2C\x9b7+C\x90\xc3\x07D\xe2\xee\x9dC[\x8c\x8dC1)cC\x06<\xd3C\x0e8ND\xbdG\x18D\xd0DGD"\xa2\xc9C\xa1\x88\xadC|\x96jD&\xd9\x9cC\x1b\xffLD\xa5!\x1aC\xc4\xc5\xfdC\x11\xafND\xb0\x8dYD\x10\x05$D\x00\x00\x00\x00\x00\x00\x00\x00\x00\x00\x00\x00\x00\x00\x00\x00'
p1134
tp1135
basS'collapsed'
p1136
I00
sS'inport'
p1137
I00
sS'visible'
p1138
I01
sS'id'
p1139
I4630916448
ssasg89
S'plotter'
p1140
ssg91
S'0.0988100767137'
p1141
sg43
S'Matplotlib'
p1142
sg94
(lp1143
F-49.0
aF85.0
asg96
(lp1144
(dp1145
g99
g607
sg101
I0
sg102
(lp1146
(dp1147
g105
(dp1148
g107
g607
sg108
I4631033712
sg109
I0
sg110
I4630914016
ssg111
(dp1149
g107
g113
sg108
I4655451184
sg109
I0
sg110
I4655367440
ssasg114
Nsg115
I65540
sg116
I200
sg117
I4631033712
sa(dp1150
g99
g1080
sg101
I1
sg102
(lp1151
(dp1152
g105
(dp1153
g107
g1080
sg108
I4631033864
sg109
I1
sg110
I4630914016
ssg111
(dp1154
g107
g113
sg108
I4655206480
sg109
I0
sg110
I4633389216
ssasg114
Nsg115
I65540
sg116
I200
sg117
I4631033864
sa(dp1155
g99
g892
sg101
I2
sg102
(lp1156
(dp1157
g105
(dp1158
g107
g892
sg108
I4631034016
sg109
I2
sg110
I4630914016
ssg111
(dp1159
g107
g113
sg108
I4655549488
sg109
I0
sg110
I4655457552
ssasg114
Nsg115
I65540
sg116
I200
sg117
I4631034016
sa(dp1160
g99
S'in3'
p1161
sg101
I3
sg102
(lp1162
sg114
Nsg115
I65540
sg116
I200
sg117
I4631034168
sa(dp1163
g99
S'in4'
p1164
sg101
I4
sg102
(lp1165
sg114
Nsg115
I65540
sg116
I200
sg117
I4631034320
sa(dp1166
g99
S'in5'
p1167
sg101
I5
sg102
(lp1168
sg114
Nsg115
I65540
sg116
I200
sg117
I4631034472
sa(dp1169
g99
S'in6'
p1170
sg101
I6
sg102
(lp1171
sg114
Nsg115
I65540
sg116
I200
sg117
I4631034624
sa(dp1172
g99
S'in7'
p1173
sg101
I7
sg102
(lp1174
sg114
Nsg115
I65540
sg116
I200
sg117
I4631034776
sasg126
S'0.00129401683826'
p1175
sg128
S'core.display.Matplotlib'
p1176
sg117
I4630914016
sg130
S'0.0975160598755'
p1177
sassS'WALLTIME'
p1178
S'1.89954018593'
p1179
s.