(dp0
S'HEADER'
p1
S'This is a GPI Network File'
p2
sS'GPI_VERSION'
p3
S'0.2'
p4
sS'PLATFORM'
p5
(dp6
S'PYTHON_VERSION'
p7
S'2.7.6'
p8
sS'PYTHON'
p9
S'CPython'
p10
sS'TOTAL_PHYMEM'
p11
L8367030272L
sS'NUM_CPUS'
p12
I4
sS'HOSTNAME'
p13
S'ubuntu'
p14
sg5
S'Linux-3.8.0-29-generic-x86_64-with-debian-wheezy-sid'
p15
sS'TOTAL_PHYMEM_STR'
p16
S'7.79 GB'
p17
sS'OS'
p18
S'Linux'
p19
ssS'DATETIME'
p20
S'Mon Jul 28 15:01:29 2014'
p21
sS'NETWORK_VERSION'
p22
S'2'
p23
sS'layouts'
p24
(lp25
sS'TOTAL_PMEM'
p26
S'151356408'
p27
sS'nodes'
p28
(dp29
S'macroNodes'
p30
(lp31
sg28
(lp32
(dp33
S'widget_settings'
p34
(dp35
S'parms'
p36
(lp37
(dp38
S'type'
p39
S"<class 'gpi.widgets.TextBox'>"
p40
sS'name'
p41
S'I/O Info:'
p42
sS'kwargs'
p43
(dp44
S'outport'
p45
I00
sS'quietval'
p46
NsS'val'
p47
S'input: (20, 300, 300)\noutput: (300, 300)'
p48
sS'collapsed'
p49
I00
sS'inport'
p50
I00
sS'visible'
p51
I01
sS'wordwrap'
p52
I00
sS'id'
p53
I78760096
ssa(dp54
g39
S"<class '/opt/gpi/lib/core/shapers/GPI/Reduce_GPI.ReduceSliders'>"
p55
sg41
S'Dimension[-1]'
p56
sg43
(dp57
S'outport'
p58
I00
sS'quietval'
p59
Nsg47
(dp60
S'width'
p61
I300
sS'ceiling'
p62
I300
sS'selection'
p63
I3
sS'center'
p64
I151
sS'floor'
p65
I1
ssS'min'
p66
I1
sS'max'
p67
I300
sS'collapsed'
p68
I00
sS'inport'
p69
I00
sS'visible'
p70
I01
sS'id'
p71
I78760552
ssa(dp72
g39
S"<class '/opt/gpi/lib/core/shapers/GPI/Reduce_GPI.ReduceSliders'>"
p73
sg41
S'Dimension[-2]'
p74
sg43
(dp75
S'outport'
p76
I00
sS'quietval'
p77
Nsg47
(dp78
g61
I300
sg62
I300
sg63
I3
sg64
I151
sg65
I1
ssS'min'
p79
I1
sS'max'
p80
I300
sS'collapsed'
p81
I00
sS'inport'
p82
I00
sS'visible'
p83
I01
sS'id'
p84
I78765560
ssa(dp85
g39
S"<class '/opt/gpi/lib/core/shapers/GPI/Reduce_GPI.ReduceSliders'>"
p86
sg41
S'Dimension[-3]'
p87
sg43
(dp88
S'outport'
p89
I00
sS'quietval'
p90
Nsg47
(dp91
g61
I1
sg62
I5
sg63
I2
sg64
I5
sg65
I5
ssS'min'
p92
I1
sS'max'
p93
I20
sS'collapsed'
p94
I00
sS'inport'
p95
I00
sS'visible'
p96
I01
sS'id'
p97
I78770712
ssa(dp98
g39
S"<class '/opt/gpi/lib/core/shapers/GPI/Reduce_GPI.ReduceSliders'>"
p99
sg41
S'Dimension[-4]'
p100
sg43
(dp101
S'outport'
p102
I00
sS'quietval'
p103
Nsg47
(dp104
g61
I100
sg62
I100
sg63
I3
sg64
I51
sg65
I1
ssS'min'
p105
I1
sS'max'
p106
I100
sS'collapsed'
p107
I00
sS'inport'
p108
I00
sS'visible'
p109
I00
sS'id'
p110
I78775720
ssa(dp111
g39
S"<class '/opt/gpi/lib/core/shapers/GPI/Reduce_GPI.ReduceSliders'>"
p112
sg41
S'Dimension[-5]'
p113
sg43
(dp114
S'outport'
p115
I00
sS'quietval'
p116
Nsg47
(dp117
g61
I100
sg62
I100
sg63
I3
sg64
I51
sg65
I1
ssS'min'
p118
I1
sS'max'
p119
I100
sS'collapsed'
p120
I00
sS'inport'
p121
I00
sS'visible'
p122
I00
sS'id'
p123
I78780728
ssa(dp124
g39
S"<class '/opt/gpi/lib/core/shapers/GPI/Reduce_GPI.ReduceSliders'>"
p125
sg41
S'Dimension[-6]'
p126
sg43
(dp127
S'outport'
p128
I00
sS'quietval'
p129
Nsg47
(dp130
g61
I100
sg62
I100
sg63
I3
sg64
I51
sg65
I1
ssS'min'
p131
I1
sS'max'
p132
I100
sS'collapsed'
p133
I00
sS'inport'
p134
I00
sS'visible'
p135
I00
sS'id'
p136
I78785736
ssa(dp137
g39
S"<class '/opt/gpi/lib/core/shapers/GPI/Reduce_GPI.ReduceSliders'>"
p138
sg41
S'Dimension[-7]'
p139
sg43
(dp140
S'outport'
p141
I00
sS'quietval'
p142
Nsg47
(dp143
g61
I100
sg62
I100
sg63
I3
sg64
I51
sg65
I1
ssS'min'
p144
I1
sS'max'
p145
I100
sS'collapsed'
p146
I00
sS'inport'
p147
I00
sS'visible'
p148
I00
sS'id'
p149
I78794984
ssa(dp150
g39
S"<class '/opt/gpi/lib/core/shapers/GPI/Reduce_GPI.ReduceSliders'>"
p151
sg41
S'Dimension[-8]'
p152
sg43
(dp153
S'outport'
p154
I00
sS'quietval'
p155
Nsg47
(dp156
g61
I100
sg62
I100
sg63
I3
sg64
I51
sg65
I1
ssS'min'
p157
I1
sS'max'
p158
I100
sS'collapsed'
p159
I00
sS'inport'
p160
I00
sS'visible'
p161
I00
sS'id'
p162
I78799992
ssa(dp163
g39
S"<class '/opt/gpi/lib/core/shapers/GPI/Reduce_GPI.ReduceSliders'>"
p164
sg41
S'Dimension[-9]'
p165
sg43
(dp166
S'outport'
p167
I00
sS'quietval'
p168
Nsg47
(dp169
g61
I100
sg62
I100
sg63
I3
sg64
I51
sg65
I1
ssS'min'
p170
I1
sS'max'
p171
I100
sS'collapsed'
p172
I00
sS'inport'
p173
I00
sS'visible'
p174
I00
sS'id'
p175
I78805000
ssa(dp176
g39
S"<class '/opt/gpi/lib/core/shapers/GPI/Reduce_GPI.ReduceSliders'>"
p177
sg41
S'Dimension[-10]'
p178
sg43
(dp179
S'outport'
p180
I00
sS'quietval'
p181
Nsg47
(dp182
g61
I100
sg62
I100
sg63
I3
sg64
I51
sg65
I1
ssS'min'
p183
I1
sS'max'
p184
I100
sS'collapsed'
p185
I00
sS'inport'
p186
I00
sS'visible'
p187
I00
sS'id'
p188
I78810008
ssa(dp189
g39
S"<class 'gpi.widgets.PushButton'>"
p190
sg41
S'Mask'
p191
sg43
(dp192
S'outport'
p193
I00
sS'quietval'
p194
Nsg47
I00
sS'collapsed'
p195
I00
sS'inport'
p196
I00
sS'visible'
p197
I01
sS'toggle'
p198
I01
sS'button_title'
p199
V
p200
sS'id'
p201
I78815016
ssa(dp202
g39
S"<class 'gpi.widgets.PushButton'>"
p203
sg41
S'Compute'
p204
sg43
(dp205
S'outport'
p206
I00
sS'quietval'
p207
Nsg47
I01
sS'collapsed'
p208
I00
sS'inport'
p209
I00
sS'visible'
p210
I01
sS'toggle'
p211
I01
sS'button_title'
p212
g200
sS'id'
p213
I78815920
ssasS'label'
p214
S''
p215
ssS'avgwalltime'
p216
S'0.124718718529'
p217
sg41
S'Reduce'
p218
sS'pos'
p219
(lp220
F12.333333333333336
aF106.77777777777777
asS'ports'
p221
(lp222
(dp223
S'porttitle'
p224
S'in'
p225
sS'portnum'
p226
I0
sS'connections'
p227
(lp228
(dp229
S'dest'
p230
(dp231
S'portName'
p232
g225
sS'portID'
p233
I78816680
sS'portNum'
p234
I0
sS'nodeID'
p235
I75284112
ssS'src'
p236
(dp237
g232
S'out'
p238
sg233
I78937136
sg234
I0
sg235
I74402256
ssasS'widgetTitle'
p239
NsS'porttype'
p240
I65540
sS'obligation'
p241
I100
sS'id'
p242
I78816680
sa(dp243
g224
g238
sg226
I0
sg227
(lp244
(dp245
g230
(dp246
g232
g225
sg233
I75164264
sg234
I0
sg235
I75079160
ssg236
(dp247
g232
g238
sg233
I78816832
sg234
I0
sg235
I75284112
ssasg239
Nsg240
I65541
sg241
Nsg242
I78816832
sa(dp248
g224
S'mask'
p249
sg226
I1
sg227
(lp250
sg239
Nsg240
I65541
sg241
Nsg242
I78816984
sasS'stdwalltime'
p251
S'0.00418913280391'
p252
sS'key'
p253
S'core.shapers.Reduce'
p254
sg242
I75284112
sS'walltime'
p255
S'0.122402906418'
p256
sa(dp257
g34
(dp258
g36
(lp259
(dp260
g39
S"<class 'gpi.widgets.Slider'>"
p261
sg41
S'Dims per Set'
p262
sg43
(dp263
S'outport'
p264
I00
sS'quietval'
p265
Nsg47
I2
sS'min'
p266
I1
sS'max'
p267
I2
sS'collapsed'
p268
I00
sS'inport'
p269
I00
sS'visible'
p270
I01
sS'id'
p271
I76037168
ssa(dp272
g39
S"<class 'gpi.widgets.SpinBox'>"
p273
sg41
S'Eff MTX XY'
p274
sg43
(dp275
S'outport'
p276
I00
sS'quietval'
p277
Nsg47
I300
sS'min'
p278
I5
sS'max'
p279
I2147483647
sS'collapsed'
p280
I00
sS'wrapping'
p281
I00
sS'immediate'
p282
I00
sS'label'
p283
g200
sS'singlestep'
p284
I1
sS'visible'
p285
I01
sS'inport'
p286
I00
sS'id'
p287
I75080064
ssa(dp288
g39
S"<class 'gpi.widgets.SpinBox'>"
p289
sg41
S'Eff MTX Z'
p290
sg43
(dp291
S'outport'
p292
I00
sS'quietval'
p293
Nsg47
I240
sS'min'
p294
I5
sS'max'
p295
I2147483647
sS'collapsed'
p296
I00
sS'wrapping'
p297
I00
sS'immediate'
p298
I00
sS'label'
p299
g200
sS'singlestep'
p300
I1
sS'visible'
p301
I00
sS'inport'
p302
I00
sS'id'
p303
I75080976
ssa(dp304
g39
S"<class 'gpi.widgets.DoubleSpinBox'>"
p305
sg41
S'dx (pixels)'
p306
sg43
(dp307
S'outport'
p308
I00
sS'quietval'
p309
Nsg47
F0.0
sS'min'
p310
F-1.7976931348623157e+308
sS'max'
p311
F1.7976931348623157e+308
sS'collapsed'
p312
I00
sS'wrapping'
p313
I00
sS'immediate'
p314
I00
sS'label'
p315
g200
sS'singlestep'
p316
F1.0
sS'visible'
p317
I01
sS'inport'
p318
I00
sS'decimals'
p319
I2
sS'id'
p320
I75081888
ssa(dp321
g39
S"<class 'gpi.widgets.DoubleSpinBox'>"
p322
sg41
S'dy (pixels)'
p323
sg43
(dp324
S'outport'
p325
I00
sS'quietval'
p326
Nsg47
F-10.0
sS'min'
p327
F-1.7976931348623157e+308
sS'max'
p328
F1.7976931348623157e+308
sS'collapsed'
p329
I00
sS'wrapping'
p330
I00
sS'immediate'
p331
I00
sS'label'
p332
g200
sS'singlestep'
p333
F1.0
sS'visible'
p334
I01
sS'inport'
p335
I00
sS'decimals'
p336
I2
sS'id'
p337
I75082800
ssa(dp338
g39
S"<class 'gpi.widgets.DoubleSpinBox'>"
p339
sg41
S'dz (pixels)'
p340
sg43
(dp341
S'outport'
p342
I00
sS'quietval'
p343
Nsg47
F0.0
sS'min'
p344
F-1.7976931348623157e+308
sS'max'
p345
F1.7976931348623157e+308
sS'collapsed'
p346
I00
sS'wrapping'
p347
I00
sS'immediate'
p348
I00
sS'label'
p349
g200
sS'singlestep'
p350
F1.0
sS'visible'
p351
I01
sS'inport'
p352
I00
sS'decimals'
p353
I2
sS'id'
p354
I75075664
ssasg214
g215
ssg216
S'1.10261377811'
p355
sg41
S'Grid'
p356
sg219
(lp357
F12.333333333333336
aF17.77777777777777
asg221
(lp358
(dp359
g224
S'data'
p360
sg226
I0
sg227
(lp361
(dp362
g230
(dp363
g232
g360
sg233
I75076576
sg234
I0
sg235
I76034736
ssg236
(dp364
g232
g238
sg233
I85028040
sg234
I0
sg235
I78939560
ssasg239
Nsg240
I65540
sg241
I200
sg242
I75076576
sa(dp365
g224
S'coords'
p366
sg226
I1
sg227
(lp367
(dp368
g230
(dp369
g232
g366
sg233
I75076728
sg234
I1
sg235
I76034736
ssg236
(dp370
g232
S'crds_out'
p371
sg233
I75281680
sg234
I0
sg235
I74542432
ssasg239
Nsg240
I65540
sg241
I100
sg242
I75076728
sa(dp372
g224
S'weighting'
p373
sg226
I2
sg227
(lp374
(dp375
g230
(dp376
g232
g373
sg233
I75076880
sg234
I2
sg235
I76034736
ssg236
(dp377
g232
S'sdc'
p378
sg233
I74540456
sg234
I0
sg235
I75187016
ssasg239
Nsg240
I65540
sg241
I200
sg242
I75076880
sa(dp379
g224
S'params_in'
p380
sg226
I3
sg227
(lp381
sg239
Nsg240
I65540
sg241
I200
sg242
I75077032
sa(dp382
g224
g238
sg226
I0
sg227
(lp383
(dp384
g230
(dp385
g232
g225
sg233
I78866592
sg234
I0
sg235
I78844136
ssg236
(dp386
g232
g238
sg233
I75077184
sg234
I0
sg235
I76034736
ssasg239
Nsg240
I65541
sg241
Nsg242
I75077184
sasg251
S'0.0291919383721'
p387
sg253
S'core.gridding.Grid'
p388
sg242
I76034736
sg255
S'1.09537696838'
p389
sa(dp390
g34
(dp391
g36
(lp392
(dp393
g39
S"<class '/opt/gpi/lib/core/math/GPI/FFT_NUMPY_GPI.FFTW_GROUP'>"
p394
sg41
S'Dimension[-1]'
p395
sg43
(dp396
S'outport'
p397
I00
sS'quietval'
p398
Nsg47
(dp399
S'length'
p400
I450
sS'in_len'
p401
I450
sS'compute'
p402
I01
ssS'collapsed'
p403
I00
sS'inport'
p404
I00
sS'visible'
p405
I01
sS'id'
p406
I78846568
ssa(dp407
g39
S"<class '/opt/gpi/lib/core/math/GPI/FFT_NUMPY_GPI.FFTW_GROUP'>"
p408
sg41
S'Dimension[-2]'
p409
sg43
(dp410
S'outport'
p411
I00
sS'quietval'
p412
Nsg47
(dp413
g400
I450
sg401
I450
sg402
I01
ssS'collapsed'
p414
I00
sS'inport'
p415
I00
sS'visible'
p416
I01
sS'id'
p417
I78848688
ssa(dp418
g39
S"<class '/opt/gpi/lib/core/math/GPI/FFT_NUMPY_GPI.FFTW_GROUP'>"
p419
sg41
S'Dimension[-3]'
p420
sg43
(dp421
S'outport'
p422
I00
sS'quietval'
p423
Nsg47
(dp424
g400
I20
sg401
I20
sg402
I00
ssS'collapsed'
p425
I00
sS'inport'
p426
I00
sS'visible'
p427
I01
sS'id'
p428
I78850664
ssa(dp429
g39
S"<class '/opt/gpi/lib/core/math/GPI/FFT_NUMPY_GPI.FFTW_GROUP'>"
p430
sg41
S'Dimension[-4]'
p431
sg43
(dp432
S'outport'
p433
I00
sS'quietval'
p434
Nsg47
(dp435
g400
I1
sg401
I1
sg402
I00
ssS'collapsed'
p436
I00
sS'inport'
p437
I00
sS'visible'
p438
I00
sS'id'
p439
I78852784
ssa(dp440
g39
S"<class '/opt/gpi/lib/core/math/GPI/FFT_NUMPY_GPI.FFTW_GROUP'>"
p441
sg41
S'Dimension[-5]'
p442
sg43
(dp443
S'outport'
p444
I00
sS'quietval'
p445
Nsg47
(dp446
g400
I1
sg401
I1
sg402
I00
ssS'collapsed'
p447
I00
sS'inport'
p448
I00
sS'visible'
p449
I00
sS'id'
p450
I78854760
ssa(dp451
g39
S"<class '/opt/gpi/lib/core/math/GPI/FFT_NUMPY_GPI.FFTW_GROUP'>"
p452
sg41
S'Dimension[-6]'
p453
sg43
(dp454
S'outport'
p455
I00
sS'quietval'
p456
Nsg47
(dp457
g400
I1
sg401
I1
sg402
I00
ssS'collapsed'
p458
I00
sS'inport'
p459
I00
sS'visible'
p460
I00
sS'id'
p461
I78856880
ssa(dp462
g39
S"<class '/opt/gpi/lib/core/math/GPI/FFT_NUMPY_GPI.FFTW_GROUP'>"
p463
sg41
S'Dimension[-7]'
p464
sg43
(dp465
S'outport'
p466
I00
sS'quietval'
p467
Nsg47
(dp468
g400
I1
sg401
I1
sg402
I00
ssS'collapsed'
p469
I00
sS'inport'
p470
I00
sS'visible'
p471
I00
sS'id'
p472
I78858856
ssa(dp473
g39
S"<class '/opt/gpi/lib/core/math/GPI/FFT_NUMPY_GPI.FFTW_GROUP'>"
p474
sg41
S'Dimension[-8]'
p475
sg43
(dp476
S'outport'
p477
I00
sS'quietval'
p478
Nsg47
(dp479
g400
I1
sg401
I1
sg402
I00
ssS'collapsed'
p480
I00
sS'inport'
p481
I00
sS'visible'
p482
I00
sS'id'
p483
I78860976
ssa(dp484
g39
S"<class '/opt/gpi/lib/core/math/GPI/FFT_NUMPY_GPI.FFTW_GROUP'>"
p485
sg41
S'Dimension[-9]'
p486
sg43
(dp487
S'outport'
p488
I00
sS'quietval'
p489
Nsg47
(dp490
g400
I1
sg401
I1
sg402
I00
ssS'collapsed'
p491
I00
sS'inport'
p492
I00
sS'visible'
p493
I00
sS'id'
p494
I78862952
ssa(dp495
g39
S"<class 'gpi.widgets.PushButton'>"
p496
sg41
g402
sg43
(dp497
S'outport'
p498
I00
sS'quietval'
p499
Nsg47
I01
sS'collapsed'
p500
I00
sS'inport'
p501
I00
sS'visible'
p502
I01
sS'toggle'
p503
I01
sS'button_title'
p504
g200
sS'id'
p505
I78865072
ssa(dp506
g39
S"<class 'gpi.widgets.PushButton'>"
p507
sg41
S'direction'
p508
sg43
(dp509
S'outport'
p510
I00
sS'quietval'
p511
Nsg47
I01
sS'collapsed'
p512
I00
sS'inport'
p513
I00
sS'visible'
p514
I01
sS'toggle'
p515
I01
sS'button_title'
p516
VINVERSE
p517
sS'id'
p518
I78865832
ssasg214
g215
ssg216
S'1.48276860237'
p519
sg41
S'FFT_NUMPY'
p520
sg219
(lp521
F12.333333333333336
aF47.77777777777777
asg221
(lp522
(dp523
g224
g225
sg226
I0
sg227
(lp524
(dp525
g230
(dp526
g232
g225
sg233
I78866592
sg234
I0
sg235
I78844136
ssg236
(dp527
g232
g238
sg233
I75077184
sg234
I0
sg235
I76034736
ssasg239
Nsg240
I65540
sg241
I100
sg242
I78866592
sa(dp528
g224
g238
sg226
I0
sg227
(lp529
(dp530
g230
(dp531
g232
g360
sg233
I78936984
sg234
I0
sg235
I74402256
ssg236
(dp532
g232
g238
sg233
I78866744
sg234
I0
sg235
I78844136
ssasg239
Nsg240
I65541
sg241
Nsg242
I78866744
sasg251
S'0.0468276669008'
p533
sg253
S'core.math.FFT_NUMPY'
p534
sg242
I78844136
sg255
S'1.42438101768'
p535
sa(dp536
g34
(dp537
g36
(lp538
(dp539
g39
S"<class 'gpi.widgets.PushButton'>"
p540
sg41
S'computenow'
p541
sg43
(dp542
S'outport'
p543
I00
sS'quietval'
p544
Nsg47
I01
sS'collapsed'
p545
I00
sS'inport'
p546
I00
sS'visible'
p547
I01
sS'toggle'
p548
I01
sS'button_title'
p549
g200
sS'id'
p550
I75189448
ssa(dp551
g39
S"<class 'gpi.widgets.Slider'>"
p552
sg41
S'Dims per Set'
p553
sg43
(dp554
S'outport'
p555
I00
sS'quietval'
p556
Nsg47
I2
sS'min'
p557
I1
sS'max'
p558
I2
sS'collapsed'
p559
I00
sS'inport'
p560
I00
sS'visible'
p561
I01
sS'id'
p562
I75210832
ssa(dp563
g39
S"<class 'gpi.widgets.SpinBox'>"
p564
sg41
S'Iterations'
p565
sg43
(dp566
S'outport'
p567
I00
sS'quietval'
p568
Nsg47
I15
sS'min'
p569
I1
sS'max'
p570
I2147483647
sS'collapsed'
p571
I00
sS'wrapping'
p572
I00
sS'immediate'
p573
I00
sS'label'
p574
g200
sS'singlestep'
p575
I1
sS'visible'
p576
I01
sS'inport'
p577
I00
sS'id'
p578
I75212048
ssa(dp579
g39
S"<class 'gpi.widgets.DoubleSpinBox'>"
p580
sg41
S'Effective MTX XY'
p581
sg43
(dp582
S'outport'
p583
I00
sS'quietval'
p584
Nsg47
F300.0
sS'min'
p585
F2.0
sS'max'
p586
F1.7976931348623157e+308
sS'collapsed'
p587
I00
sS'wrapping'
p588
I00
sS'immediate'
p589
I00
sS'label'
p590
g200
sS'singlestep'
p591
F1.0
sS'visible'
p592
I01
sS'inport'
p593
I00
sS'decimals'
p594
I2
sS'id'
p595
I75212960
ssa(dp596
g39
S"<class 'gpi.widgets.DoubleSpinBox'>"
p597
sg41
S'Effective MTX Z'
p598
sg43
(dp599
S'outport'
p600
I00
sS'quietval'
p601
Nsg47
F300.0
sS'min'
p602
F2.0
sS'max'
p603
F1.7976931348623157e+308
sS'collapsed'
p604
I00
sS'wrapping'
p605
I00
sS'immediate'
p606
I00
sS'label'
p607
g200
sS'singlestep'
p608
F1.0
sS'visible'
p609
I00
sS'inport'
p610
I00
sS'decimals'
p611
I2
sS'id'
p612
I75213872
ssa(dp613
g39
S"<class 'gpi.widgets.DoubleSpinBox'>"
p614
sg41
S'Taper'
p615
sg43
(dp616
S'outport'
p617
I00
sS'quietval'
p618
Nsg47
F0.1
sS'min'
p619
F0.0
sS'max'
p620
F1.0
sS'collapsed'
p621
I00
sS'wrapping'
p622
I00
sS'immediate'
p623
I00
sS'label'
p624
g200
sS'singlestep'
p625
F0.01
sS'visible'
p626
I01
sS'inport'
p627
I00
sS'decimals'
p628
I2
sS'id'
p629
I74539088
ssasg214
g215
ssg216
S'0.890171051025'
p630
sg41
S'SDC'
p631
sg219
(lp632
F-75.66666666666666
aF-35.22222222222223
asg221
(lp633
(dp634
g224
S'crds'
p635
sg226
I0
sg227
(lp636
(dp637
g230
(dp638
g232
g635
sg233
I74540000
sg234
I0
sg235
I75187016
ssg236
(dp639
g232
g371
sg233
I75281680
sg234
I0
sg235
I74542432
ssasg239
Nsg240
I65540
sg241
I100
sg242
I74540000
sa(dp640
g224
S'wates'
p641
sg226
I1
sg227
(lp642
sg239
Nsg240
I65540
sg241
I200
sg242
I74540152
sa(dp643
g224
g380
sg226
I2
sg227
(lp644
sg239
Nsg240
I65540
sg241
I200
sg242
I74540304
sa(dp645
g224
g378
sg226
I0
sg227
(lp646
(dp647
g230
(dp648
g232
g373
sg233
I75076880
sg234
I2
sg235
I76034736
ssg236
(dp649
g232
g378
sg233
I74540456
sg234
I0
sg235
I75187016
ssasg239
Nsg240
I65541
sg241
Nsg242
I74540456
sasg251
S'0.280066013336'
p650
sg253
S'core.gridding.SDC'
p651
sg242
I75187016
sg255
S'1.17023706436'
p652
sa(dp653
g34
(dp654
g36
(lp655
(dp656
g39
S"<class 'gpi.widgets.TextBox'>"
p657
sg41
S'I/O Info:'
p658
sg43
(dp659
S'outport'
p660
I00
sS'quietval'
p661
Nsg47
S"created: 28/07/2014\naccessed: 28/07/2014\nmodified: 28/07/2014\nUID: 0\nGID: 0\nfile size (bytes): 10585601\nStandard Data Info:\n  dim labels: ['loc' 'py' 'samp']\n  dimensions: [20, 79, 825]\n  type: complex64\nNoise Data Info:\n  dim labels: ['samp']\n  dimensions: [19680]\n  type: complex64\nHeader Type: '.list'\n"
p662
sS'collapsed'
p663
I00
sS'inport'
p664
I00
sS'visible'
p665
I01
sS'wordwrap'
p666
I00
sS'id'
p667
I78891016
ssa(dp668
g39
S"<class 'gpi.widgets.OpenFileBrowser'>"
p669
sg41
S'File Browser'
p670
sg43
(dp671
S'outport'
p672
I00
sS'quietval'
p673
Nsg47
S'/opt/gpi/doc/Examples/spiral_T1.data'
p674
sS'collapsed'
p675
I00
sS'inport'
p676
I00
sS'visible'
p677
I01
sS'id'
p678
I78891472
ssa(dp679
g39
S"<class 'gpi.widgets.PushButton'>"
p680
sg41
S'ky chop'
p681
sg43
(dp682
S'outport'
p683
I00
sS'quietval'
p684
Nsg47
I00
sS'collapsed'
p685
I00
sS'inport'
p686
I00
sS'visible'
p687
I01
sS'toggle'
p688
I01
sS'button_title'
p689
VOFF
p690
sS'id'
p691
I78892080
ssa(dp692
g39
S"<class 'gpi.widgets.PushButton'>"
p693
sg41
S'kz chop'
p694
sg43
(dp695
S'outport'
p696
I00
sS'quietval'
p697
Nsg47
I00
sS'collapsed'
p698
I00
sS'inport'
p699
I00
sS'visible'
p700
I01
sS'toggle'
p701
I01
sS'button_title'
p702
VOFF
p703
sS'id'
p704
I78892840
ssa(dp705
g39
S"<class 'gpi.widgets.PushButton'>"
p706
sg41
S'PROPELLER'
p707
sg43
(dp708
S'outport'
p709
I00
sS'quietval'
p710
Nsg47
I00
sS'collapsed'
p711
I00
sS'inport'
p712
I00
sS'visible'
p713
I01
sS'toggle'
p714
I01
sS'button_title'
p715
VOFF
p716
sS'id'
p717
I78897840
ssa(dp718
g39
S"<class 'gpi.widgets.PushButton'>"
p719
sg41
S'Apply Corrections'
p720
sg43
(dp721
S'outport'
p722
I00
sS'quietval'
p723
Nsg47
I01
sS'collapsed'
p724
I00
sS'inport'
p725
I00
sS'visible'
p726
I00
sS'toggle'
p727
I01
sS'button_title'
p728
VON
p729
sS'id'
p730
I78898600
ssa(dp731
g39
S"<class 'gpi.widgets.ExclusivePushButtons'>"
p732
sg41
S'Re-scale Type'
p733
sg43
(dp734
S'outport'
p735
I00
sS'quietval'
p736
Nsg47
I0
sS'collapsed'
p737
I00
sS'inport'
p738
I00
sS'visible'
p739
I00
sS'id'
p740
I78899360
ssa(dp741
g39
S"<class 'gpi.widgets.ExclusiveRadioButtons'>"
p742
sg41
S'Execution Type'
p743
sg43
(dp744
S'outport'
p745
I00
sS'quietval'
p746
Nsg47
I1
sS'collapsed'
p747
I01
sS'inport'
p748
I00
sS'visible'
p749
I01
sS'id'
p750
I78900120
ssa(dp751
g39
S"<class 'gpi.widgets.PushButton'>"
p752
sg41
S'Read Param Only'
p753
sg43
(dp754
S'outport'
p755
I00
sS'quietval'
p756
Nsg47
I00
sS'collapsed'
p757
I00
sS'inport'
p758
I00
sS'visible'
p759
I01
sS'toggle'
p760
I01
sS'button_title'
p761
VOFF
p762
sS'id'
p763
I78900880
ssa(dp764
g39
S"<class 'gpi.widgets.PushButton'>"
p765
sg41
S'Data Downsampling'
p766
sg43
(dp767
S'outport'
p768
I00
sS'quietval'
p769
Nsg47
I00
sS'collapsed'
p770
I00
sS'inport'
p771
I00
sS'visible'
p772
I01
sS'toggle'
p773
I01
sS'button_title'
p774
VOFF
p775
sS'id'
p776
I78901784
ssa(dp777
g39
S"<class 'gpi.widgets.ExclusiveRadioButtons'>"
p778
sg41
S'Downsampling Mode'
p779
sg43
(dp780
S'outport'
p781
I00
sS'quietval'
p782
Nsg47
I1
sS'collapsed'
p783
I00
sS'inport'
p784
I00
sS'visible'
p785
I00
sS'id'
p786
I78902544
ssa(dp787
g39
S"<class 'gpi.widgets.SpinBox'>"
p788
sg41
S'Padding Width'
p789
sg43
(dp790
S'outport'
p791
I00
sS'quietval'
p792
Nsg47
I64
sS'min'
p793
I0
sS'max'
p794
I256
sS'collapsed'
p795
I01
sS'wrapping'
p796
I00
sS'immediate'
p797
I00
sS'label'
p798
g200
sS'singlestep'
p799
I2
sS'visible'
p800
I00
sS'inport'
p801
I00
sS'id'
p802
I78903304
ssa(dp803
g39
S"<class 'gpi.widgets.Slider'>"
p804
sg41
S'Average Window Width'
p805
sg43
(dp806
S'outport'
p807
I00
sS'quietval'
p808
Nsg47
I1
sS'min'
p809
I1
sS'max'
p810
I16
sS'collapsed'
p811
I01
sS'inport'
p812
I00
sS'visible'
p813
I00
sS'id'
p814
I78904216
ssa(dp815
g39
S"<class 'gpi.widgets.Slider'>"
p816
sg41
S'Hanning Filter Width (%)'
p817
sg43
(dp818
S'outport'
p819
I00
sS'quietval'
p820
Nsg47
I100
sS'min'
p821
I0
sS'max'
p822
I100
sS'collapsed'
p823
I01
sS'inport'
p824
I00
sS'visible'
p825
I00
sS'id'
p826
I78909672
ssa(dp827
g39
S"<class 'gpi.widgets.Slider'>"
p828
sg41
S'Hanning Filter Window (%)'
p829
sg43
(dp830
S'outport'
p831
I00
sS'quietval'
p832
Nsg47
I100
sS'min'
p833
I0
sS'max'
p834
I100
sS'collapsed'
p835
I01
sS'inport'
p836
I00
sS'visible'
p837
I00
sS'id'
p838
I78910888
ssa(dp839
g39
S"<class 'gpi.widgets.Slider'>"
p840
sg41
S'Retained Data Length'
p841
sg43
(dp842
S'outport'
p843
I00
sS'quietval'
p844
Nsg47
I16
sS'min'
p845
I0
sS'max'
p846
I64
sS'collapsed'
p847
I01
sS'inport'
p848
I00
sS'visible'
p849
I00
sS'id'
p850
I78912104
ssasg214
g215
ssg216
S'0.326077618599'
p851
sg41
S'ReadPhilips'
p852
sg219
(lp853
F8.333333333333336
aF-167.22222222222223
asg221
(lp854
(dp855
g224
g360
sg226
I0
sg227
(lp856
(dp857
g230
(dp858
g232
g225
sg233
I85027888
sg234
I0
sg235
I78939560
ssg236
(dp859
g232
g360
sg233
I78913320
sg234
I0
sg235
I50270440
ssasg239
Nsg240
I65541
sg241
Nsg242
I78913320
sa(dp860
g224
S'noise'
p861
sg226
I1
sg227
(lp862
sg239
Nsg240
I65541
sg241
Nsg242
I74399824
sa(dp863
g224
S'phc'
p864
sg226
I2
sg227
(lp865
sg239
Nsg240
I65541
sg241
Nsg242
I74399976
sa(dp866
g224
S'user_parms'
p867
sg226
I3
sg227
(lp868
(dp869
g230
(dp870
g232
g380
sg233
I75281528
sg234
I0
sg235
I74542432
ssg236
(dp871
g232
g867
sg233
I74400128
sg234
I3
sg235
I50270440
ssasg239
Nsg240
I65541
sg241
Nsg242
I74400128
sa(dp872
g224
S'header'
p873
sg226
I4
sg227
(lp874
sg239
Nsg240
I65541
sg241
Nsg242
I74400280
sasg251
S'0.0117933703963'
p875
sg253
S'core.fileIO.ReadPhilips'
p876
sg242
I50270440
sg255
S'0.304636001587'
p877
sa(dp878
g34
(dp879
g36
(lp880
(dp881
g39
S"<class 'gpi.widgets.PushButton'>"
p882
sg41
g402
sg43
(dp883
S'outport'
p884
I00
sS'quietval'
p885
Nsg47
I01
sS'collapsed'
p886
I00
sS'inport'
p887
I00
sS'visible'
p888
I01
sS'toggle'
p889
I01
sS'button_title'
p890
g200
sS'id'
p891
I75241328
ssa(dp892
g39
S"<class 'gpi.widgets.TextBox'>"
p893
sg41
S'Info:'
p894
sg43
(dp895
S'outport'
p896
I00
sS'quietval'
p897
Nsg47
S'Samples: 825\nTau (ms): 3.96\nTGrad (ms): 4.9216\nTotal interleaves: 79'
p898
sS'collapsed'
p899
I00
sS'inport'
p900
I00
sS'visible'
p901
I01
sS'wordwrap'
p902
I00
sS'id'
p903
I75242088
ssa(dp904
g39
S"<class 'gpi.widgets.DoubleSpinBox'>"
p905
sg41
S'AD dwell time (us)'
p906
sg43
(dp907
S'outport'
p908
I00
sS'quietval'
p909
Nsg47
F4.8
sS'min'
p910
F0.1
sS'max'
p911
F1.7976931348623157e+308
sS'collapsed'
p912
I00
sS'wrapping'
p913
I00
sS'immediate'
p914
I00
sS'label'
p915
g200
sS'singlestep'
p916
F1.0
sS'visible'
p917
I01
sS'inport'
p918
I00
sS'decimals'
p919
I6
sS'id'
p920
I75242544
ssa(dp921
g39
S"<class 'gpi.widgets.DoubleSpinBox'>"
p922
sg41
S'x delay (us)'
p923
sg43
(dp924
S'outport'
p925
I00
sS'quietval'
p926
Nsg47
F-9.0
sS'min'
p927
F-100.0
sS'max'
p928
F100.0
sS'collapsed'
p929
I00
sS'wrapping'
p930
I00
sS'immediate'
p931
I00
sS'label'
p932
g200
sS'singlestep'
p933
F1.0
sS'visible'
p934
I01
sS'inport'
p935
I00
sS'decimals'
p936
I2
sS'id'
p937
I75264080
ssa(dp938
g39
S"<class 'gpi.widgets.DoubleSpinBox'>"
p939
sg41
S'y delay (us)'
p940
sg43
(dp941
S'outport'
p942
I00
sS'quietval'
p943
Nsg47
F-9.0
sS'min'
p944
F-100.0
sS'max'
p945
F100.0
sS'collapsed'
p946
I00
sS'wrapping'
p947
I00
sS'immediate'
p948
I00
sS'label'
p949
g200
sS'singlestep'
p950
F1.0
sS'visible'
p951
I01
sS'inport'
p952
I00
sS'decimals'
p953
I2
sS'id'
p954
I75264992
ssa(dp955
g39
S"<class 'gpi.widgets.DoubleSpinBox'>"
p956
sg41
S'z delay (us)'
p957
sg43
(dp958
S'outport'
p959
I00
sS'quietval'
p960
Nsg47
F0.0
sS'min'
p961
F-100.0
sS'max'
p962
F100.0
sS'collapsed'
p963
I00
sS'wrapping'
p964
I00
sS'immediate'
p965
I00
sS'label'
p966
g200
sS'singlestep'
p967
F1.0
sS'visible'
p968
I01
sS'inport'
p969
I00
sS'decimals'
p970
I2
sS'id'
p971
I75265904
ssa(dp972
g39
S"<class 'gpi.widgets.DoubleSpinBox'>"
p973
sg41
S'MaxSlw (mT/m/ms)'
p974
sg43
(dp975
S'outport'
p976
I00
sS'quietval'
p977
Nsg47
F139.998993
sS'min'
p978
F0.01
sS'max'
p979
F1.7976931348623157e+308
sS'collapsed'
p980
I00
sS'wrapping'
p981
I00
sS'immediate'
p982
I00
sS'label'
p983
g200
sS'singlestep'
p984
F1.0
sS'visible'
p985
I01
sS'inport'
p986
I00
sS'decimals'
p987
I6
sS'id'
p988
I75266816
ssa(dp989
g39
S"<class 'gpi.widgets.DoubleSpinBox'>"
p990
sg41
S'MaxGrd (mT/m)'
p991
sg43
(dp992
S'outport'
p993
I00
sS'quietval'
p994
Nsg47
F20.249001
sS'min'
p995
F0.01
sS'max'
p996
F1.7976931348623157e+308
sS'collapsed'
p997
I00
sS'wrapping'
p998
I00
sS'immediate'
p999
I00
sS'label'
p1000
g200
sS'singlestep'
p1001
F1.0
sS'visible'
p1002
I01
sS'inport'
p1003
I00
sS'decimals'
p1004
I6
sS'id'
p1005
I75267728
ssa(dp1006
g39
S"<class 'gpi.widgets.DoubleSpinBox'>"
p1007
sg41
S'Gam (kHz/mT/ms)'
p1008
sg43
(dp1009
S'outport'
p1010
I00
sS'quietval'
p1011
Nsg47
F42.577469
sS'min'
p1012
F0.01
sS'max'
p1013
F1.7976931348623157e+308
sS'collapsed'
p1014
I00
sS'wrapping'
p1015
I00
sS'immediate'
p1016
I00
sS'label'
p1017
g200
sS'singlestep'
p1018
F1.0
sS'visible'
p1019
I01
sS'inport'
p1020
I00
sS'decimals'
p1021
I6
sS'id'
p1022
I75260592
ssa(dp1023
g39
S"<class 'gpi.widgets.DoubleSpinBox'>"
p1024
sg41
S'Fov X-Y (cm)'
p1025
sg43
(dp1026
S'outport'
p1027
I00
sS'quietval'
p1028
Nsg47
F24.0
sS'min'
p1029
F0.1
sS'max'
p1030
F1.7976931348623157e+308
sS'collapsed'
p1031
I00
sS'wrapping'
p1032
I00
sS'immediate'
p1033
I00
sS'label'
p1034
g200
sS'singlestep'
p1035
F1.0
sS'visible'
p1036
I01
sS'inport'
p1037
I00
sS'decimals'
p1038
I6
sS'id'
p1039
I75261504
ssa(dp1040
g39
S"<class 'gpi.widgets.DoubleSpinBox'>"
p1041
sg41
S'Fov Z (cm)'
p1042
sg43
(dp1043
S'outport'
p1044
I00
sS'quietval'
p1045
Nsg47
F0.5
sS'min'
p1046
F0.1
sS'max'
p1047
F1.7976931348623157e+308
sS'collapsed'
p1048
I00
sS'wrapping'
p1049
I00
sS'immediate'
p1050
I00
sS'label'
p1051
g200
sS'singlestep'
p1052
F1.0
sS'visible'
p1053
I01
sS'inport'
p1054
I00
sS'decimals'
p1055
I6
sS'id'
p1056
I75262416
ssa(dp1057
g39
S"<class 'gpi.widgets.DoubleSpinBox'>"
p1058
sg41
S'ImgRes X-Y (cm)'
p1059
sg43
(dp1060
S'outport'
p1061
I00
sS'quietval'
p1062
Nsg47
F0.1
sS'min'
p1063
F0.01
sS'max'
p1064
F1.7976931348623157e+308
sS'collapsed'
p1065
I00
sS'wrapping'
p1066
I00
sS'immediate'
p1067
I00
sS'label'
p1068
g200
sS'singlestep'
p1069
F0.01
sS'visible'
p1070
I01
sS'inport'
p1071
I00
sS'decimals'
p1072
I6
sS'id'
p1073
I75263328
ssa(dp1074
g39
S"<class 'gpi.widgets.DoubleSpinBox'>"
p1075
sg41
S'ImgRes Z (cm)'
p1076
sg43
(dp1077
S'outport'
p1078
I00
sS'quietval'
p1079
Nsg47
F0.5
sS'min'
p1080
F0.01
sS'max'
p1081
F1.7976931348623157e+308
sS'collapsed'
p1082
I00
sS'wrapping'
p1083
I00
sS'immediate'
p1084
I00
sS'label'
p1085
g200
sS'singlestep'
p1086
F0.01
sS'visible'
p1087
I01
sS'inport'
p1088
I00
sS'decimals'
p1089
I6
sS'id'
p1090
I75268480
ssa(dp1091
g39
S"<class 'gpi.widgets.ExclusivePushButtons'>"
p1092
sg41
S'stype'
p1093
sg43
(dp1094
S'outport'
p1095
I00
sS'quietval'
p1096
Nsg47
I0
sS'collapsed'
p1097
I00
sS'inport'
p1098
I00
sS'visible'
p1099
I01
sS'id'
p1100
I75269392
ssa(dp1101
g39
S"<class 'gpi.widgets.DoubleSpinBox'>"
p1102
sg41
S'# of Spiral Arms'
p1103
sg43
(dp1104
S'outport'
p1105
I00
sS'quietval'
p1106
Nsg47
F79.0
sS'min'
p1107
F0.0
sS'max'
p1108
F1.7976931348623157e+308
sS'collapsed'
p1109
I00
sS'wrapping'
p1110
I00
sS'immediate'
p1111
I00
sS'label'
p1112
g200
sS'singlestep'
p1113
F1.0
sS'visible'
p1114
I01
sS'inport'
p1115
I00
sS'decimals'
p1116
I2
sS'id'
p1117
I75270304
ssa(dp1118
g39
S"<class 'gpi.widgets.SpinBox'>"
p1119
sg41
S'# of Hubs'
p1120
sg43
(dp1121
S'outport'
p1122
I00
sS'quietval'
p1123
Nsg47
I3
sS'min'
p1124
I1
sS'max'
p1125
I3
sS'collapsed'
p1126
I00
sS'wrapping'
p1127
I00
sS'immediate'
p1128
I00
sS'label'
p1129
g200
sS'singlestep'
p1130
I1
sS'visible'
p1131
I00
sS'inport'
p1132
I00
sS'id'
p1133
I75271216
ssa(dp1134
g39
S"<class 'gpi.widgets.DoubleSpinBox'>"
p1135
sg41
S'Alpha0'
p1136
sg43
(dp1137
S'outport'
p1138
I00
sS'quietval'
p1139
Nsg47
F45.0
sS'min'
p1140
F0.0
sS'max'
p1141
F90.0
sS'collapsed'
p1142
I00
sS'wrapping'
p1143
I00
sS'immediate'
p1144
I00
sS'label'
p1145
g200
sS'singlestep'
p1146
F1.0
sS'visible'
p1147
I00
sS'inport'
p1148
I00
sS'decimals'
p1149
I2
sS'id'
p1150
I75272272
ssa(dp1151
g39
S"<class 'gpi.widgets.DoubleSpinBox'>"
p1152
sg41
S'usamp st (0 - 1)'
p1153
sg43
(dp1154
S'outport'
p1155
I00
sS'quietval'
p1156
Nsg47
F1.0
sS'min'
p1157
F0.0
sS'max'
p1158
F1.0
sS'collapsed'
p1159
I00
sS'wrapping'
p1160
I00
sS'immediate'
p1161
I00
sS'label'
p1162
g200
sS'singlestep'
p1163
F0.01
sS'visible'
p1164
I01
sS'inport'
p1165
I00
sS'decimals'
p1166
I2
sS'id'
p1167
I75273184
ssa(dp1168
g39
S"<class 'gpi.widgets.DoubleSpinBox'>"
p1169
sg41
S'usamp end (0 - 1)'
p1170
sg43
(dp1171
S'outport'
p1172
I00
sS'quietval'
p1173
Nsg47
F1.0
sS'min'
p1174
F0.0
sS'max'
p1175
F1.0
sS'collapsed'
p1176
I00
sS'wrapping'
p1177
I00
sS'immediate'
p1178
I00
sS'label'
p1179
g200
sS'singlestep'
p1180
F0.01
sS'visible'
p1181
I01
sS'inport'
p1182
I00
sS'decimals'
p1183
I2
sS'id'
p1184
I75274096
ssa(dp1185
g39
S"<class 'gpi.widgets.DoubleSpinBox'>"
p1186
sg41
S'max undersample'
p1187
sg43
(dp1188
S'outport'
p1189
I00
sS'quietval'
p1190
Nsg47
F1.0
sS'min'
p1191
F0.0
sS'max'
p1192
F100.0
sS'collapsed'
p1193
I00
sS'wrapping'
p1194
I00
sS'immediate'
p1195
I00
sS'label'
p1196
g200
sS'singlestep'
p1197
F1.0
sS'visible'
p1198
I01
sS'inport'
p1199
I00
sS'decimals'
p1200
I2
sS'id'
p1201
I75275008
ssa(dp1202
g39
S"<class 'gpi.widgets.ExclusivePushButtons'>"
p1203
sg41
S'ustype'
p1204
sg43
(dp1205
S'outport'
p1206
I00
sS'quietval'
p1207
Nsg47
I0
sS'collapsed'
p1208
I00
sS'inport'
p1209
I00
sS'visible'
p1210
I01
sS'id'
p1211
I75275920
ssa(dp1212
g39
S"<class 'gpi.widgets.DoubleSpinBox'>"
p1213
sg41
S'Max G Freq (kHz)'
p1214
sg43
(dp1215
S'outport'
p1216
I00
sS'quietval'
p1217
Nsg47
F1.0
sS'min'
p1218
F0.0
sS'max'
p1219
F1.7976931348623157e+308
sS'collapsed'
p1220
I00
sS'wrapping'
p1221
I00
sS'immediate'
p1222
I00
sS'label'
p1223
g200
sS'singlestep'
p1224
F1.0
sS'visible'
p1225
I01
sS'inport'
p1226
I00
sS'decimals'
p1227
I2
sS'id'
p1228
I75285016
ssa(dp1229
g39
S"<class 'gpi.widgets.DoubleSpinBox'>"
p1230
sg41
S'T2 Match (ms)'
p1231
sg43
(dp1232
S'outport'
p1233
I00
sS'quietval'
p1234
Nsg47
F0.0
sS'min'
p1235
F0.0
sS'max'
p1236
F1.7976931348623157e+308
sS'collapsed'
p1237
I00
sS'wrapping'
p1238
I00
sS'immediate'
p1239
I00
sS'label'
p1240
g200
sS'singlestep'
p1241
F1.0
sS'visible'
p1242
I01
sS'inport'
p1243
I00
sS'decimals'
p1244
I2
sS'id'
p1245
I75285928
ssa(dp1246
g39
S"<class 'gpi.widgets.DoubleSpinBox'>"
p1247
sg41
S'Sloppy Sp. Per (0:off)'
p1248
sg43
(dp1249
S'outport'
p1250
I00
sS'quietval'
p1251
Nsg47
F0.0
sS'min'
p1252
F0.0
sS'max'
p1253
F1.7976931348623157e+308
sS'collapsed'
p1254
I00
sS'wrapping'
p1255
I00
sS'immediate'
p1256
I00
sS'label'
p1257
g200
sS'singlestep'
p1258
F1.0
sS'visible'
p1259
I01
sS'inport'
p1260
I00
sS'decimals'
p1261
I2
sS'id'
p1262
I75286840
ssa(dp1263
g39
S"<class 'gpi.widgets.ExclusivePushButtons'>"
p1264
sg41
S'gtype'
p1265
sg43
(dp1266
S'outport'
p1267
I00
sS'quietval'
p1268
Nsg47
I2
sS'collapsed'
p1269
I00
sS'inport'
p1270
I00
sS'visible'
p1271
I01
sS'id'
p1272
I75287752
ssa(dp1273
g39
S"<class 'gpi.widgets.ExclusivePushButtons'>"
p1274
sg41
S'spinout'
p1275
sg43
(dp1276
S'outport'
p1277
I00
sS'quietval'
p1278
Nsg47
I0
sS'collapsed'
p1279
I00
sS'inport'
p1280
I00
sS'visible'
p1281
I01
sS'id'
p1282
I75280616
ssasg214
g215
ssg216
S'0.145774483681'
p1283
sg41
S'SpiralCoords'
p1284
sg219
(lp1285
F-60.666666666666664
aF-103.22222222222223
asg221
(lp1286
(dp1287
g224
g380
sg226
I0
sg227
(lp1288
(dp1289
g230
(dp1290
g232
g380
sg233
I75281528
sg234
I0
sg235
I74542432
ssg236
(dp1291
g232
g867
sg233
I74400128
sg234
I3
sg235
I50270440
ssasg239
Nsg240
I65540
sg241
I200
sg242
I75281528
sa(dp1292
g224
g371
sg226
I0
sg227
(lp1293
(dp1294
g230
(dp1295
g232
g366
sg233
I75076728
sg234
I1
sg235
I76034736
ssg236
(dp1296
g232
g371
sg233
I75281680
sg234
I0
sg235
I74542432
ssa(dp1297
g230
(dp1298
g232
g635
sg233
I74540000
sg234
I0
sg235
I75187016
ssg236
(dp1299
g232
g371
sg233
I75281680
sg234
I0
sg235
I74542432
ssasg239
Nsg240
I65541
sg241
Nsg242
I75281680
sa(dp1300
g224
S'grd_out'
p1301
sg226
I1
sg227
(lp1302
sg239
Nsg240
I65541
sg241
Nsg242
I75281832
sasg251
S'0.0128456354142'
p1303
sg253
S'core.spiral.SpiralCoords'
p1304
sg242
I74542432
sg255
S'0.132928848267'
p1305
sa(dp1306
g34
(dp1307
g36
(lp1308
(dp1309
g39
S"<class 'gpi.widgets.TextBox'>"
p1310
sg41
S'I/O Info:'
p1311
sg43
(dp1312
S'outport'
p1313
I00
sS'quietval'
p1314
Nsg47
S'input: (20, 79, 825)\noutput: (20, 79, 825)'
p1315
sS'collapsed'
p1316
I00
sS'inport'
p1317
I00
sS'visible'
p1318
I01
sS'wordwrap'
p1319
I00
sS'id'
p1320
I78941992
ssa(dp1321
g39
S"<class '/opt/gpi/lib/core/shapers/GPI/Reduce_GPI.ReduceSliders'>"
p1322
sg41
S'Dimension[-1]'
p1323
sg43
(dp1324
S'outport'
p1325
I00
sS'quietval'
p1326
Nsg47
(dp1327
g61
I825
sg62
I825
sg63
I3
sg64
I413
sg65
I1
ssS'min'
p1328
I1
sS'max'
p1329
I825
sS'collapsed'
p1330
I00
sS'inport'
p1331
I00
sS'visible'
p1332
I01
sS'id'
p1333
I84971904
ssa(dp1334
g39
S"<class '/opt/gpi/lib/core/shapers/GPI/Reduce_GPI.ReduceSliders'>"
p1335
sg41
S'Dimension[-2]'
p1336
sg43
(dp1337
S'outport'
p1338
I00
sS'quietval'
p1339
Nsg47
(dp1340
g61
I79
sg62
I79
sg63
I3
sg64
I40
sg65
I1
ssS'min'
p1341
I1
sS'max'
p1342
I79
sS'collapsed'
p1343
I00
sS'inport'
p1344
I00
sS'visible'
p1345
I01
sS'id'
p1346
I84976912
ssa(dp1347
g39
S"<class '/opt/gpi/lib/core/shapers/GPI/Reduce_GPI.ReduceSliders'>"
p1348
sg41
S'Dimension[-3]'
p1349
sg43
(dp1350
S'outport'
p1351
I00
sS'quietval'
p1352
Nsg47
(dp1353
g61
I20
sg62
I20
sg63
I3
sg64
I11
sg65
I1
ssS'min'
p1354
I1
sS'max'
p1355
I20
sS'collapsed'
p1356
I00
sS'inport'
p1357
I00
sS'visible'
p1358
I01
sS'id'
p1359
I84981920
ssa(dp1360
g39
S"<class '/opt/gpi/lib/core/shapers/GPI/Reduce_GPI.ReduceSliders'>"
p1361
sg41
S'Dimension[-4]'
p1362
sg43
(dp1363
S'outport'
p1364
I00
sS'quietval'
p1365
Nsg47
(dp1366
g61
I1
sg62
I1
sg63
I2
sg64
I1
sg65
I1
ssS'min'
p1367
I1
sS'max'
p1368
I2
sS'collapsed'
p1369
I00
sS'inport'
p1370
I00
sS'visible'
p1371
I00
sS'id'
p1372
I84986928
ssa(dp1373
g39
S"<class '/opt/gpi/lib/core/shapers/GPI/Reduce_GPI.ReduceSliders'>"
p1374
sg41
S'Dimension[-5]'
p1375
sg43
(dp1376
S'outport'
p1377
I00
sS'quietval'
p1378
Nsg47
(dp1379
g61
I1
sg62
I1
sg63
I2
sg64
I1
sg65
I1
ssS'min'
p1380
I1
sS'max'
p1381
I2
sS'collapsed'
p1382
I00
sS'inport'
p1383
I00
sS'visible'
p1384
I00
sS'id'
p1385
I84996176
ssa(dp1386
g39
S"<class '/opt/gpi/lib/core/shapers/GPI/Reduce_GPI.ReduceSliders'>"
p1387
sg41
S'Dimension[-6]'
p1388
sg43
(dp1389
S'outport'
p1390
I00
sS'quietval'
p1391
Nsg47
(dp1392
g61
I100
sg62
I100
sg63
I3
sg64
I51
sg65
I1
ssS'min'
p1393
I1
sS'max'
p1394
I100
sS'collapsed'
p1395
I00
sS'inport'
p1396
I00
sS'visible'
p1397
I00
sS'id'
p1398
I85001184
ssa(dp1399
g39
S"<class '/opt/gpi/lib/core/shapers/GPI/Reduce_GPI.ReduceSliders'>"
p1400
sg41
S'Dimension[-7]'
p1401
sg43
(dp1402
S'outport'
p1403
I00
sS'quietval'
p1404
Nsg47
(dp1405
g61
I100
sg62
I100
sg63
I3
sg64
I51
sg65
I1
ssS'min'
p1406
I1
sS'max'
p1407
I100
sS'collapsed'
p1408
I00
sS'inport'
p1409
I00
sS'visible'
p1410
I00
sS'id'
p1411
I85006192
ssa(dp1412
g39
S"<class '/opt/gpi/lib/core/shapers/GPI/Reduce_GPI.ReduceSliders'>"
p1413
sg41
S'Dimension[-8]'
p1414
sg43
(dp1415
S'outport'
p1416
I00
sS'quietval'
p1417
Nsg47
(dp1418
g61
I100
sg62
I100
sg63
I3
sg64
I51
sg65
I1
ssS'min'
p1419
I1
sS'max'
p1420
I100
sS'collapsed'
p1421
I00
sS'inport'
p1422
I00
sS'visible'
p1423
I00
sS'id'
p1424
I85011200
ssa(dp1425
g39
S"<class '/opt/gpi/lib/core/shapers/GPI/Reduce_GPI.ReduceSliders'>"
p1426
sg41
S'Dimension[-9]'
p1427
sg43
(dp1428
S'outport'
p1429
I00
sS'quietval'
p1430
Nsg47
(dp1431
g61
I100
sg62
I100
sg63
I3
sg64
I51
sg65
I1
ssS'min'
p1432
I1
sS'max'
p1433
I100
sS'collapsed'
p1434
I00
sS'inport'
p1435
I00
sS'visible'
p1436
I00
sS'id'
p1437
I85016208
ssa(dp1438
g39
S"<class '/opt/gpi/lib/core/shapers/GPI/Reduce_GPI.ReduceSliders'>"
p1439
sg41
S'Dimension[-10]'
p1440
sg43
(dp1441
S'outport'
p1442
I00
sS'quietval'
p1443
Nsg47
(dp1444
g61
I100
sg62
I100
sg63
I3
sg64
I51
sg65
I1
ssS'min'
p1445
I1
sS'max'
p1446
I100
sS'collapsed'
p1447
I00
sS'inport'
p1448
I00
sS'visible'
p1449
I00
sS'id'
p1450
I85021360
ssa(dp1451
g39
S"<class 'gpi.widgets.PushButton'>"
p1452
sg41
g191
sg43
(dp1453
S'outport'
p1454
I00
sS'quietval'
p1455
Nsg47
I00
sS'collapsed'
p1456
I00
sS'inport'
p1457
I00
sS'visible'
p1458
I01
sS'toggle'
p1459
I01
sS'button_title'
p1460
g200
sS'id'
p1461
I85026368
ssa(dp1462
g39
S"<class 'gpi.widgets.PushButton'>"
p1463
sg41
g204
sg43
(dp1464
S'outport'
p1465
I00
sS'quietval'
p1466
Nsg47
I01
sS'collapsed'
p1467
I00
sS'inport'
p1468
I00
sS'visible'
p1469
I01
sS'toggle'
p1470
I01
sS'button_title'
p1471
g200
sS'id'
p1472
I85027128
ssasg214
g215
ssg216
S'0.243980076313'
p1473
sg41
g218
sg219
(lp1474
F66.33333333333334
aF-81.22222222222223
asg221
(lp1475
(dp1476
g224
g225
sg226
I0
sg227
(lp1477
(dp1478
g230
(dp1479
g232
g225
sg233
I85027888
sg234
I0
sg235
I78939560
ssg236
(dp1480
g232
g360
sg233
I78913320
sg234
I0
sg235
I50270440
ssasg239
Nsg240
I65540
sg241
I100
sg242
I85027888
sa(dp1481
g224
g238
sg226
I0
sg227
(lp1482
(dp1483
g230
(dp1484
g232
g360
sg233
I75076576
sg234
I0
sg235
I76034736
ssg236
(dp1485
g232
g238
sg233
I85028040
sg234
I0
sg235
I78939560
ssasg239
Nsg240
I65541
sg241
Nsg242
I85028040
sa(dp1486
g224
g249
sg226
I1
sg227
(lp1487
sg239
Nsg240
I65541
sg241
Nsg242
I85028192
sasg251
S'0.00826549558177'
p1488
sg253
g254
sg242
I78939560
sg255
S'0.232742071152'
p1489
sa(dp1490
g34
(dp1491
g36
(lp1492
(dp1493
g39
S"<class 'gpi.widgets.Slider'>"
p1494
sg41
S'Num Rolloff Dims'
p1495
sg43
(dp1496
S'outport'
p1497
I00
sS'quietval'
p1498
Nsg47
I2
sS'min'
p1499
I1
sS'max'
p1500
I3
sS'collapsed'
p1501
I00
sS'inport'
p1502
I00
sS'visible'
p1503
I01
sS'id'
p1504
I78935008
ssa(dp1505
g39
S"<class 'gpi.widgets.PushButton'>"
p1506
sg41
S'Isotropic FOV'
p1507
sg43
(dp1508
S'outport'
p1509
I00
sS'quietval'
p1510
Nsg47
I01
sS'collapsed'
p1511
I00
sS'inport'
p1512
I00
sS'visible'
p1513
I01
sS'toggle'
p1514
I01
sS'button_title'
p1515
g200
sS'id'
p1516
I78936224
ssasg214
g215
ssg216
S'0.531859660149'
p1517
sg41
S'Rolloff'
p1518
sg219
(lp1519
F12.333333333333336
aF77.77777777777777
asg221
(lp1520
(dp1521
g224
g360
sg226
I0
sg227
(lp1522
(dp1523
g230
(dp1524
g232
g360
sg233
I78936984
sg234
I0
sg235
I74402256
ssg236
(dp1525
g232
g238
sg233
I78866744
sg234
I0
sg235
I78844136
ssasg239
Nsg240
I65540
sg241
I100
sg242
I78936984
sa(dp1526
g224
g238
sg226
I0
sg227
(lp1527
(dp1528
g230
(dp1529
g232
g225
sg233
I78816680
sg234
I0
sg235
I75284112
ssg236
(dp1530
g232
g238
sg233
I78937136
sg234
I0
sg235
I74402256
ssasg239
Nsg240
I65541
sg241
Nsg242
I78937136
sasg251
S'0.0306554608092'
p1531
sg253
S'core.gridding.Rolloff'
p1532
sg242
I74402256
sg255
S'0.497820854187'
p1533
sa(dp1534
g34
(dp1535
g36
(lp1536
(dp1537
g39
S"<class 'gpi.widgets.ExclusivePushButtons'>"
p1538
sg41
S'Complex Display'
p1539
sg43
(dp1540
S'outport'
p1541
I00
sS'quietval'
p1542
Nsg47
I4
sS'collapsed'
p1543
I00
sS'inport'
p1544
I00
sS'visible'
p1545
I01
sS'id'
p1546
I75122696
ssa(dp1547
g39
S"<class 'gpi.widgets.ExclusivePushButtons'>"
p1548
sg41
S'Color Map'
p1549
sg43
(dp1550
S'outport'
p1551
I00
sS'quietval'
p1552
Nsg47
I0
sS'collapsed'
p1553
I01
sS'inport'
p1554
I00
sS'visible'
p1555
I00
sS'id'
p1556
I75123760
ssa(dp1557
g39
S"<class 'gpi.widgets.SpinBox'>"
p1558
sg41
S'Edge Pixels'
p1559
sg43
(dp1560
S'outport'
p1561
I00
sS'quietval'
p1562
Nsg47
I0
sS'min'
p1563
I0
sS'max'
p1564
I2147483647
sS'collapsed'
p1565
I00
sS'wrapping'
p1566
I00
sS'immediate'
p1567
I00
sS'label'
p1568
g200
sS'singlestep'
p1569
I1
sS'visible'
p1570
I01
sS'inport'
p1571
I00
sS'id'
p1572
I75125120
ssa(dp1573
g39
S"<class 'gpi.widgets.SpinBox'>"
p1574
sg41
S'Black Pixels'
p1575
sg43
(dp1576
S'outport'
p1577
I00
sS'quietval'
p1578
Nsg47
I0
sS'min'
p1579
I0
sS'max'
p1580
I2147483647
sS'collapsed'
p1581
I00
sS'wrapping'
p1582
I00
sS'immediate'
p1583
I00
sS'label'
p1584
g200
sS'singlestep'
p1585
I1
sS'visible'
p1586
I01
sS'inport'
p1587
I00
sS'id'
p1588
I75126032
ssa(dp1589
g39
S"<class 'gpi.widgets.DisplayBox'>"
p1590
sg41
S'Viewport:'
p1591
sg43
(dp1592
S'outport'
p1593
I00
sS'scale'
p1594
F2.0
sS'quietval'
p1595
Nsg47
NsS'collapsed'
p1596
I00
sS'interp'
p1597
I01
sS'inport'
p1598
I00
sS'visible'
p1599
I01
sS'noscroll'
p1600
I01
sS'points'
p1601
NsS'line'
p1602
NsS'id'
p1603
I75126944
ssa(dp1604
g39
S"<class '/opt/gpi/lib/core/display/GPI/ImageDisplay_GPI.WindowLevel'>"
p1605
sg41
S'L W F C:'
p1606
sg43
(dp1607
S'outport'
p1608
I00
sS'quietval'
p1609
Nsg47
(dp1610
S'window'
p1611
I100
sg65
I0
sg62
I100
sS'level'
p1612
I50
ssS'min'
p1613
I0
sS'max'
p1614
I100
sS'collapsed'
p1615
I00
sS'inport'
p1616
I00
sS'visible'
p1617
I01
sS'id'
p1618
I75129520
ssa(dp1619
g39
S"<class 'gpi.widgets.ExclusivePushButtons'>"
p1620
sg41
S'Scalar Display'
p1621
sg43
(dp1622
S'outport'
p1623
I00
sS'quietval'
p1624
Nsg47
I0
sS'collapsed'
p1625
I00
sS'inport'
p1626
I00
sS'visible'
p1627
I00
sS'id'
p1628
I75134376
ssa(dp1629
g39
S"<class 'gpi.widgets.DoubleSpinBox'>"
p1630
sg41
S'Gamma'
p1631
sg43
(dp1632
S'outport'
p1633
I00
sS'quietval'
p1634
Nsg47
F1.5
sS'min'
p1635
F0.1
sS'max'
p1636
F10.0
sS'collapsed'
p1637
I00
sS'wrapping'
p1638
I00
sS'immediate'
p1639
I00
sS'label'
p1640
g200
sS'singlestep'
p1641
F0.05
sS'visible'
p1642
I01
sS'inport'
p1643
I00
sS'decimals'
p1644
I3
sS'id'
p1645
I75135136
ssa(dp1646
g39
S"<class 'gpi.widgets.ExclusivePushButtons'>"
p1647
sg41
S'Zero Ref'
p1648
sg43
(dp1649
S'outport'
p1650
I00
sS'quietval'
p1651
Nsg47
I0
sS'collapsed'
p1652
I00
sS'inport'
p1653
I00
sS'visible'
p1654
I00
sS'id'
p1655
I75136048
ssa(dp1656
g39
S"<class 'gpi.widgets.PushButton'>"
p1657
sg41
S'Fix Range'
p1658
sg43
(dp1659
S'outport'
p1660
I00
sS'quietval'
p1661
Nsg47
I00
sS'collapsed'
p1662
I00
sS'inport'
p1663
I00
sS'visible'
p1664
I01
sS'toggle'
p1665
I01
sS'button_title'
p1666
VAuto-Range On
p1667
sS'id'
p1668
I75161680
ssa(dp1669
g39
S"<class 'gpi.widgets.DoubleSpinBox'>"
p1670
sg41
S'Range Min'
p1671
sg43
(dp1672
S'outport'
p1673
I00
sS'quietval'
p1674
Nsg47
F0.0
sS'min'
p1675
F-1.7976931348623157e+308
sS'max'
p1676
F1.7976931348623157e+308
sS'collapsed'
p1677
I00
sS'wrapping'
p1678
I00
sS'immediate'
p1679
I00
sS'label'
p1680
g200
sS'singlestep'
p1681
F1.0
sS'visible'
p1682
I00
sS'inport'
p1683
I00
sS'decimals'
p1684
I2
sS'id'
p1685
I75162440
ssa(dp1686
g39
S"<class 'gpi.widgets.DoubleSpinBox'>"
p1687
sg41
S'Range Max'
p1688
sg43
(dp1689
S'outport'
p1690
I00
sS'quietval'
p1691
Nsg47
F0.01
sS'min'
p1692
F-1.7976931348623157e+308
sS'max'
p1693
F1.7976931348623157e+308
sS'collapsed'
p1694
I00
sS'wrapping'
p1695
I00
sS'immediate'
p1696
I00
sS'label'
p1697
g200
sS'singlestep'
p1698
F1.0
sS'visible'
p1699
I01
sS'inport'
p1700
I00
sS'decimals'
p1701
I2
sS'id'
p1702
I75163352
ssasg214
g215
ssg216
S'0.0268980813026'
p1703
sg41
S'ImageDisplay'
p1704
sg219
(lp1705
F12.333333333333336
aF136.77777777777777
asg221
(lp1706
(dp1707
g224
g225
sg226
I0
sg227
(lp1708
(dp1709
g230
(dp1710
g232
g225
sg233
I75164264
sg234
I0
sg235
I75079160
ssg236
(dp1711
g232
g238
sg233
I78816832
sg234
I0
sg235
I75284112
ssasg239
Nsg240
I65540
sg241
I100
sg242
I75164264
sa(dp1712
g224
g238
sg226
I0
sg227
(lp1713
sg239
Nsg240
I65541
sg241
Nsg242
I75164416
sasg251
S'0.00166428482277'
p1714
sg253
S'core.display.ImageDisplay'
p1715
sg242
I75079160
sg255
S'0.0250580310822'
p1716
sassS'WALLTIME'
p1717
S'0.000383138656616'
p1718
s.