(dp0
S'HEADER'
p1
S'This is a GPI Network File'
p2
sS'GPI_VERSION'
p3
S'0.2'
p4
sS'PLATFORM'
p5
(dp6
S'OSX'
p7
S'10.8.5'
p8
sS'PYTHON_VERSION'
p9
S'2.7.6'
p10
sS'PYTHON'
p11
S'CPython'
p12
sS'TOTAL_PHYMEM'
p13
L17179869184L
sS'NUM_CPUS'
p14
I8
sS'HOSTNAME'
p15
S'tron.local'
p16
sg5
S'Darwin-12.5.0-x86_64-i386-64bit'
p17
sS'TOTAL_PHYMEM_STR'
p18
S'16.00 GB'
p19
sS'OS'
p20
S'Darwin'
p21
ssS'DATETIME'
p22
S'Tue Apr  1 17:00:49 2014'
p23
sS'NETWORK_VERSION'
p24
S'2'
p25
sS'layouts'
p26
(lp27
sS'TOTAL_PMEM'
p28
S'192'
p29
sS'nodes'
p30
(dp31
S'macroNodes'
p32
(lp33
sg30
(lp34
(dp35
S'widget_settings'
p36
(dp37
S'parms'
p38
(lp39
(dp40
S'type'
p41
S"<class 'gpi.widgets.SaveFileBrowser'>"
p42
sS'name'
p43
S'File Browser'
p44
sS'kwargs'
p45
(dp46
S'outport'
p47
I00
sS'quietval'
p48
NsS'val'
p49
S''
p50
sS'collapsed'
p51
I00
sS'inport'
p52
I00
sS'visible'
p53
I01
sS'id'
p54
I4661969432
ssa(dp55
g41
S"<class 'gpi.widgets.PushButton'>"
p56
sg43
S'Write Mode'
p57
sg45
(dp58
S'outport'
p59
I00
sS'quietval'
p60
Nsg49
I00
sS'collapsed'
p61
I00
sS'inport'
p62
I00
sS'visible'
p63
I01
sS'toggle'
p64
I01
sS'button_title'
p65
VWrite on New Filename
p66
sS'id'
p67
I4661970040
ssa(dp68
g41
S"<class 'gpi.widgets.PushButton'>"
p69
sg43
S'Write Now'
p70
sg45
(dp71
S'outport'
p72
I00
sS'quietval'
p73
Nsg49
I00
sS'collapsed'
p74
I00
sS'inport'
p75
I00
sS'visible'
p76
I01
sS'toggle'
p77
I00
sS'button_title'
p78
VWrite Right Now
p79
sS'id'
p80
I4661970800
ssasS'label'
p81
g50
ssS'avgwalltime'
p82
S'None'
p83
sg43
S'WritePickled'
p84
sS'pos'
p85
(lp86
F-140.0
aF93.33333333333333
asS'ports'
p87
(lp88
(dp89
S'porttitle'
p90
S'in'
p91
sS'portnum'
p92
I0
sS'connections'
p93
(lp94
(dp95
S'dest'
p96
(dp97
S'portName'
p98
g91
sS'portID'
p99
I4661971560
sS'portNum'
p100
I0
sS'nodeID'
p101
I4661946376
ssS'src'
p102
(dp103
g98
S'out'
p104
sg99
I4477995928
sg100
I0
sg101
I4574751944
ssasS'widgetTitle'
p105
NsS'porttype'
p106
I65540
sS'obligation'
p107
I100
sS'id'
p108
I4661971560
sasS'stdwalltime'
p109
S'None'
p110
sS'key'
p111
S'core.fileIO.WritePickled'
p112
sg108
I4661946376
sa(dp113
g36
(dp114
g38
(lp115
(dp116
g41
S"<class 'gpi.widgets.SaveFileBrowser'>"
p117
sg43
S'File Browser'
p118
sg45
(dp119
S'outport'
p120
I00
sS'quietval'
p121
Nsg49
g50
sS'collapsed'
p122
I00
sS'inport'
p123
I00
sS'visible'
p124
I01
sS'id'
p125
I4661426336
ssa(dp126
g41
S"<class 'gpi.widgets.PushButton'>"
p127
sg43
S'Write Mode'
p128
sg45
(dp129
S'outport'
p130
I00
sS'quietval'
p131
Nsg49
I00
sS'collapsed'
p132
I00
sS'inport'
p133
I00
sS'visible'
p134
I01
sS'toggle'
p135
I01
sS'button_title'
p136
VWrite on New Filename
p137
sS'id'
p138
I4661426944
ssa(dp139
g41
S"<class 'gpi.widgets.PushButton'>"
p140
sg43
S'Write Now'
p141
sg45
(dp142
S'outport'
p143
I00
sS'quietval'
p144
Nsg49
I00
sS'collapsed'
p145
I00
sS'inport'
p146
I00
sS'visible'
p147
I01
sS'toggle'
p148
I00
sS'button_title'
p149
VWrite Right Now
p150
sS'id'
p151
I4661427704
ssasg81
g50
ssg82
S'None'
p152
sg43
S'WriteNPY'
p153
sg85
(lp154
F-235.0
aF-26.66666666666667
asg87
(lp155
(dp156
g90
g91
sg92
I0
sg93
(lp157
(dp158
g96
(dp159
g98
g91
sg99
I4661432704
sg100
I0
sg101
I4661403280
ssg102
(dp160
g98
g104
sg99
I4478035824
sg100
I0
sg101
I4478002752
ssasg105
Nsg106
I65540
sg107
I100
sg108
I4661432704
sasg109
S'None'
p161
sg111
S'core.fileIO.WriteNPY'
p162
sg108
I4661403280
sa(dp163
g36
(dp164
g38
(lp165
(dp166
g41
S"<class 'gpi.widgets.TextBox'>"
p167
sg43
S'I/O Info:'
p168
sg45
(dp169
S'outport'
p170
I00
sS'quietval'
p171
Nsg49
g50
sS'collapsed'
p172
I00
sS'inport'
p173
I00
sS'visible'
p174
I01
sS'wordwrap'
p175
I00
sS'id'
p176
I4477962096
ssa(dp177
g41
S"<class 'gpi.widgets.OpenFileBrowser'>"
p178
sg43
S'File Browser'
p179
sg45
(dp180
S'outport'
p181
I00
sS'quietval'
p182
Nsg49
g50
sS'collapsed'
p183
I00
sS'inport'
p184
I00
sS'visible'
p185
I01
sS'id'
p186
I4477962552
ssa(dp187
g41
S"<class 'gpi.widgets.StringBox'>"
p188
sg43
S'set-name'
p189
sg45
(dp190
S'maskedval'
p191
S'x\x9cK/\xc8LI,I\x04\x00\x0b\x81\x02\xdb'
p192
sS'outport'
p193
I00
sS'quietval'
p194
Nsg49
S'gpidata'
p195
sS'collapsed'
p196
I00
sS'mask'
p197
I00
sS'inport'
p198
I00
sS'visible'
p199
I01
sS'id'
p200
I4477963160
ssasg81
g50
ssg82
S'0.121021986008'
p201
sg43
S'ReadHDF5'
p202
sg85
(lp203
F-45.0
aF-86.66666666666667
asg87
(lp204
(dp205
g90
g104
sg92
I0
sg93
(lp206
(dp207
g96
(dp208
g98
g91
sg99
I4639414584
sg100
I0
sg101
I4639565528
ssg102
(dp209
g98
g104
sg99
I4477963616
sg100
I0
sg101
I4639927648
ssa(dp210
g96
(dp211
g98
g91
sg99
I4477676136
sg100
I0
sg101
I4477670216
ssg102
(dp212
g98
g104
sg99
I4477963616
sg100
I0
sg101
I4639927648
ssa(dp213
g96
(dp214
g98
g91
sg99
I4643283784
sg100
I0
sg101
I4643274984
ssg102
(dp215
g98
g104
sg99
I4477963616
sg100
I0
sg101
I4639927648
ssa(dp216
g96
(dp217
g98
g91
sg99
I4661369904
sg100
I0
sg101
I4661348816
ssg102
(dp218
g98
g104
sg99
I4477963616
sg100
I0
sg101
I4639927648
ssa(dp219
g96
(dp220
g98
g91
sg99
I4661944400
sg100
I0
sg101
I4661914976
ssg102
(dp221
g98
g104
sg99
I4477963616
sg100
I0
sg101
I4639927648
ssa(dp222
g96
(dp223
g98
g91
sg99
I4662223840
sg100
I0
sg101
I4662198656
ssg102
(dp224
g98
g104
sg99
I4477963616
sg100
I0
sg101
I4639927648
ssasg105
Nsg106
I65541
sg107
Nsg108
I4477963616
sasg109
S'0.0'
p225
sg111
S'core.fileIO.ReadHDF5'
p226
sg108
I4639927648
sS'walltime'
p227
S'0.121021986008'
p228
sa(dp229
g36
(dp230
g38
(lp231
(dp232
g41
S"<class 'gpi.widgets.SaveFileBrowser'>"
p233
sg43
S'File Browser'
p234
sg45
(dp235
S'outport'
p236
I00
sS'quietval'
p237
Nsg49
g50
sS'collapsed'
p238
I00
sS'inport'
p239
I00
sS'visible'
p240
I01
sS'id'
p241
I4639465856
ssa(dp242
g41
S"<class 'gpi.widgets.PushButton'>"
p243
sg43
S'Write Mode'
p244
sg45
(dp245
S'outport'
p246
I00
sS'quietval'
p247
Nsg49
I00
sS'collapsed'
p248
I00
sS'inport'
p249
I00
sS'visible'
p250
I01
sS'toggle'
p251
I01
sS'button_title'
p252
VWrite on New Filename
p253
sS'id'
p254
I4477425976
ssa(dp255
g41
S"<class 'gpi.widgets.PushButton'>"
p256
sg43
S'Write Now'
p257
sg45
(dp258
S'outport'
p259
I00
sS'quietval'
p260
Nsg49
I00
sS'collapsed'
p261
I00
sS'inport'
p262
I00
sS'visible'
p263
I01
sS'toggle'
p264
I00
sS'button_title'
p265
VWrite Right Now
p266
sS'id'
p267
I4477426736
ssasg81
g50
ssg82
S'None'
p268
sg43
S'WriteCSV'
p269
sg85
(lp270
F330.0
aF3.3333333333333286
asg87
(lp271
(dp272
g90
g91
sg92
I0
sg93
(lp273
(dp274
g96
(dp275
g98
g91
sg99
I4477427496
sg100
I0
sg101
I4639570080
ssg102
(dp276
g98
g104
sg99
I4478131400
sg100
I0
sg101
I4478086800
ssasg105
Nsg106
I65540
sg107
I100
sg108
I4477427496
sasg109
S'None'
p277
sg111
S'core.fileIO.WriteCSV'
p278
sg108
I4639570080
sa(dp279
g36
(dp280
g38
(lp281
(dp282
g41
S"<class 'gpi.widgets.SaveFileBrowser'>"
p283
sg43
S'File Browser'
p284
sg45
(dp285
S'outport'
p286
I00
sS'quietval'
p287
Nsg49
g50
sS'collapsed'
p288
I00
sS'inport'
p289
I00
sS'visible'
p290
I01
sS'id'
p291
I4661242320
ssa(dp292
g41
S"<class 'gpi.widgets.PushButton'>"
p293
sg43
S'Write Mode'
p294
sg45
(dp295
S'outport'
p296
I00
sS'quietval'
p297
Nsg49
I00
sS'collapsed'
p298
I00
sS'inport'
p299
I00
sS'visible'
p300
I01
sS'toggle'
p301
I01
sS'button_title'
p302
VWrite on New Filename
p303
sS'id'
p304
I4661242928
ssa(dp305
g41
S"<class 'gpi.widgets.PushButton'>"
p306
sg43
S'Write Now'
p307
sg45
(dp308
S'outport'
p309
I00
sS'quietval'
p310
Nsg49
I00
sS'collapsed'
p311
I00
sS'inport'
p312
I00
sS'visible'
p313
I01
sS'toggle'
p314
I00
sS'button_title'
p315
VWrite Right Now
p316
sS'id'
p317
I4661243688
ssasg81
g50
ssg82
S'None'
p318
sg43
g153
sg85
(lp319
F330.0
aF-56.66666666666667
asg87
(lp320
(dp321
g90
g91
sg92
I0
sg93
(lp322
(dp323
g96
(dp324
g98
g91
sg99
I4661248688
sg100
I0
sg101
I4661239888
ssg102
(dp325
g98
g104
sg99
I4478131400
sg100
I0
sg101
I4478086800
ssasg105
Nsg106
I65540
sg107
I100
sg108
I4661248688
sasg109
S'None'
p326
sg111
g162
sg108
I4661239888
sa(dp327
g36
(dp328
g38
(lp329
(dp330
g41
S"<class 'gpi.widgets.TextBox'>"
p331
sg43
S'I/O Info:'
p332
sg45
(dp333
S'outport'
p334
I00
sS'quietval'
p335
Nsg49
g50
sS'collapsed'
p336
I00
sS'inport'
p337
I00
sS'visible'
p338
I01
sS'wordwrap'
p339
I00
sS'id'
p340
I4478040680
ssa(dp341
g41
S"<class 'gpi.widgets.OpenFileBrowser'>"
p342
sg43
S'File Browser'
p343
sg45
(dp344
S'outport'
p345
I00
sS'quietval'
p346
Nsg49
g50
sS'collapsed'
p347
I00
sS'inport'
p348
I00
sS'visible'
p349
I01
sS'id'
p350
I4478041136
ssa(dp351
g41
S"<class 'gpi.widgets.PushButton'>"
p352
sg43
S'ky chop'
p353
sg45
(dp354
S'outport'
p355
I00
sS'quietval'
p356
Nsg49
I00
sS'collapsed'
p357
I00
sS'inport'
p358
I00
sS'visible'
p359
I01
sS'toggle'
p360
I01
sS'button_title'
p361
VOFF
p362
sS'id'
p363
I4478041744
ssa(dp364
g41
S"<class 'gpi.widgets.PushButton'>"
p365
sg43
S'kz chop'
p366
sg45
(dp367
S'outport'
p368
I00
sS'quietval'
p369
Nsg49
I00
sS'collapsed'
p370
I00
sS'inport'
p371
I00
sS'visible'
p372
I01
sS'toggle'
p373
I01
sS'button_title'
p374
VOFF
p375
sS'id'
p376
I4478063128
ssa(dp377
g41
S"<class 'gpi.widgets.PushButton'>"
p378
sg43
S'PROPELLER'
p379
sg45
(dp380
S'outport'
p381
I00
sS'quietval'
p382
Nsg49
I00
sS'collapsed'
p383
I00
sS'inport'
p384
I00
sS'visible'
p385
I01
sS'toggle'
p386
I01
sS'button_title'
p387
VOFF
p388
sS'id'
p389
I4478063888
ssa(dp390
g41
S"<class 'gpi.widgets.PushButton'>"
p391
sg43
S'Apply Corrections'
p392
sg45
(dp393
S'outport'
p394
I00
sS'quietval'
p395
Nsg49
I01
sS'collapsed'
p396
I00
sS'inport'
p397
I00
sS'visible'
p398
I01
sS'toggle'
p399
I01
sS'button_title'
p400
VON
p401
sS'id'
p402
I4478064648
ssa(dp403
g41
S"<class 'gpi.widgets.ExclusivePushButtons'>"
p404
sg43
S'Re-scale Type'
p405
sg45
(dp406
S'outport'
p407
I00
sS'quietval'
p408
Nsg49
I0
sS'collapsed'
p409
I00
sS'inport'
p410
I00
sS'visible'
p411
I01
sS'id'
p412
I4478065408
ssa(dp413
g41
S"<class 'gpi.widgets.ExclusiveRadioButtons'>"
p414
sg43
S'Execution Type'
p415
sg45
(dp416
S'outport'
p417
I00
sS'quietval'
p418
Nsg49
I1
sS'collapsed'
p419
I01
sS'inport'
p420
I00
sS'visible'
p421
I01
sS'id'
p422
I4478066168
ssa(dp423
g41
S"<class 'gpi.widgets.PushButton'>"
p424
sg43
S'Read Param Only'
p425
sg45
(dp426
S'outport'
p427
I00
sS'quietval'
p428
Nsg49
I00
sS'collapsed'
p429
I00
sS'inport'
p430
I00
sS'visible'
p431
I01
sS'toggle'
p432
I01
sS'button_title'
p433
VOFF
p434
sS'id'
p435
I4478071168
ssa(dp436
g41
S"<class 'gpi.widgets.PushButton'>"
p437
sg43
S'Data Downsampling'
p438
sg45
(dp439
S'outport'
p440
I00
sS'quietval'
p441
Nsg49
I00
sS'collapsed'
p442
I00
sS'inport'
p443
I00
sS'visible'
p444
I01
sS'toggle'
p445
I01
sS'button_title'
p446
VOFF
p447
sS'id'
p448
I4478071928
ssa(dp449
g41
S"<class 'gpi.widgets.ExclusiveRadioButtons'>"
p450
sg43
S'Downsampling Mode'
p451
sg45
(dp452
S'outport'
p453
I00
sS'quietval'
p454
Nsg49
I1
sS'collapsed'
p455
I00
sS'inport'
p456
I00
sS'visible'
p457
I00
sS'id'
p458
I4478072688
ssa(dp459
g41
S"<class 'gpi.widgets.SpinBox'>"
p460
sg43
S'Padding Width'
p461
sg45
(dp462
S'outport'
p463
I00
sS'quietval'
p464
Nsg49
I64
sS'min'
p465
I0
sS'max'
p466
I256
sS'collapsed'
p467
I01
sS'wrapping'
p468
I00
sS'immediate'
p469
I00
sS'label'
p470
V
p471
sS'singlestep'
p472
I2
sS'visible'
p473
I00
sS'inport'
p474
I00
sS'id'
p475
I4478073448
ssa(dp476
g41
S"<class 'gpi.widgets.Slider'>"
p477
sg43
S'Average Window Width'
p478
sg45
(dp479
S'outport'
p480
I00
sS'quietval'
p481
Nsg49
I1
sS'min'
p482
I1
sS'max'
p483
I16
sS'collapsed'
p484
I01
sS'inport'
p485
I00
sS'visible'
p486
I00
sS'id'
p487
I4478074360
ssa(dp488
g41
S"<class 'gpi.widgets.Slider'>"
p489
sg43
S'Hanning Filter Width (%)'
p490
sg45
(dp491
S'outport'
p492
I00
sS'quietval'
p493
Nsg49
I100
sS'min'
p494
I0
sS'max'
p495
I100
sS'collapsed'
p496
I01
sS'inport'
p497
I00
sS'visible'
p498
I00
sS'id'
p499
I4478075720
ssa(dp500
g41
S"<class 'gpi.widgets.Slider'>"
p501
sg43
S'Hanning Filter Window (%)'
p502
sg45
(dp503
S'outport'
p504
I00
sS'quietval'
p505
Nsg49
I100
sS'min'
p506
I0
sS'max'
p507
I100
sS'collapsed'
p508
I01
sS'inport'
p509
I00
sS'visible'
p510
I00
sS'id'
p511
I4478076936
ssa(dp512
g41
S"<class 'gpi.widgets.Slider'>"
p513
sg43
S'Retained Data Length'
p514
sg45
(dp515
S'outport'
p516
I00
sS'quietval'
p517
Nsg49
I16
sS'min'
p518
I0
sS'max'
p519
I64
sS'collapsed'
p520
I01
sS'inport'
p521
I00
sS'visible'
p522
I00
sS'id'
p523
I4478078152
ssasg81
g50
ssg82
S'0.100322961807'
p524
sg43
S'ReadPhilips'
p525
sg85
(lp526
F-330.0
aF-86.66666666666667
asg87
(lp527
(dp528
g90
S'data'
p529
sg92
I0
sg93
(lp530
(dp531
g96
(dp532
g98
g91
sg99
I4477492728
sg100
I0
sg101
I4639456152
ssg102
(dp533
g98
g529
sg99
I4478083608
sg100
I0
sg101
I4478038248
ssa(dp534
g96
(dp535
g98
g91
sg99
I4643158328
sg100
I0
sg101
I4643152408
ssg102
(dp536
g98
g529
sg99
I4478083608
sg100
I0
sg101
I4478038248
ssa(dp537
g96
(dp538
g98
g91
sg99
I4661468056
sg100
I0
sg101
I4661434680
ssg102
(dp539
g98
g529
sg99
I4478083608
sg100
I0
sg101
I4478038248
ssa(dp540
g96
(dp541
g98
g91
sg99
I4662034216
sg100
I0
sg101
I4662009032
ssg102
(dp542
g98
g529
sg99
I4478083608
sg100
I0
sg101
I4478038248
ssa(dp543
g96
(dp544
g98
g91
sg99
I4662326088
sg100
I0
sg101
I4662317288
ssg102
(dp545
g98
g529
sg99
I4478083608
sg100
I0
sg101
I4478038248
ssasg105
Nsg106
I65541
sg107
Nsg108
I4478083608
sa(dp546
g90
S'noise'
p547
sg92
I1
sg93
(lp548
sg105
Nsg106
I65541
sg107
Nsg108
I4478083760
sa(dp549
g90
S'phc'
p550
sg92
I2
sg93
(lp551
sg105
Nsg106
I65541
sg107
Nsg108
I4478083912
sa(dp552
g90
S'user_parms'
p553
sg92
I3
sg93
(lp554
sg105
Nsg106
I65541
sg107
Nsg108
I4478084064
sa(dp555
g90
S'header'
p556
sg92
I4
sg93
(lp557
sg105
Nsg106
I65541
sg107
Nsg108
I4478084216
sasg109
S'0.0'
p558
sg111
S'core.fileIO.ReadPhilips'
p559
sg108
I4478038248
sg227
S'0.100322961807'
p560
sa(dp561
g36
(dp562
g38
(lp563
(dp564
g41
S"<class 'gpi.widgets.SaveFileBrowser'>"
p565
sg43
S'File Browser'
p566
sg45
(dp567
S'outport'
p568
I00
sS'quietval'
p569
Nsg49
g50
sS'collapsed'
p570
I00
sS'inport'
p571
I00
sS'visible'
p572
I01
sS'id'
p573
I4662169832
ssa(dp574
g41
S"<class 'gpi.widgets.PushButton'>"
p575
sg43
S'Write Mode'
p576
sg45
(dp577
S'outport'
p578
I00
sS'quietval'
p579
Nsg49
I00
sS'collapsed'
p580
I00
sS'inport'
p581
I00
sS'visible'
p582
I01
sS'toggle'
p583
I01
sS'button_title'
p584
VWrite on New Filename
p585
sS'id'
p586
I4662170440
ssa(dp587
g41
S"<class 'gpi.widgets.PushButton'>"
p588
sg43
S'Write Now'
p589
sg45
(dp590
S'outport'
p591
I00
sS'quietval'
p592
Nsg49
I00
sS'collapsed'
p593
I00
sS'inport'
p594
I00
sS'visible'
p595
I01
sS'toggle'
p596
I00
sS'button_title'
p597
VWrite Right Now
p598
sS'id'
p599
I4662171200
ssasg81
g50
ssg82
S'None'
p600
sg43
S'WriteRaw'
p601
sg85
(lp602
F45.0
aF-26.66666666666667
asg87
(lp603
(dp604
g90
g91
sg92
I0
sg93
(lp605
(dp606
g96
(dp607
g98
g91
sg99
I4662171960
sg100
I0
sg101
I4662167256
ssg102
(dp608
g98
g104
sg99
I4639924912
sg100
I0
sg101
I4639804768
ssasg105
Nsg106
I65540
sg107
I100
sg108
I4662171960
sasg109
S'None'
p609
sg111
S'core.fileIO.WriteRaw'
p610
sg108
I4662167256
sa(dp611
g36
(dp612
g38
(lp613
(dp614
g41
S"<class 'gpi.widgets.SaveFileBrowser'>"
p615
sg43
S'File Browser'
p616
sg45
(dp617
S'outport'
p618
I00
sS'quietval'
p619
Nsg49
g50
sS'collapsed'
p620
I00
sS'inport'
p621
I00
sS'visible'
p622
I01
sS'id'
p623
I4643187456
ssa(dp624
g41
S"<class 'gpi.widgets.PushButton'>"
p625
sg43
S'Write Mode'
p626
sg45
(dp627
S'outport'
p628
I00
sS'quietval'
p629
Nsg49
I00
sS'collapsed'
p630
I00
sS'inport'
p631
I00
sS'visible'
p632
I01
sS'toggle'
p633
I01
sS'button_title'
p634
VWrite on New Filename
p635
sS'id'
p636
I4643188064
ssa(dp637
g41
S"<class 'gpi.widgets.PushButton'>"
p638
sg43
S'Write Now'
p639
sg45
(dp640
S'outport'
p641
I00
sS'quietval'
p642
Nsg49
I00
sS'collapsed'
p643
I00
sS'inport'
p644
I00
sS'visible'
p645
I01
sS'toggle'
p646
I00
sS'button_title'
p647
VWrite Right Now
p648
sS'id'
p649
I4643193064
ssasg81
g50
ssg82
S'None'
p650
sg43
S'WriteImage'
p651
sg85
(lp652
F235.0
aF3.3333333333333286
asg87
(lp653
(dp654
g90
g91
sg92
I0
sg93
(lp655
(dp656
g96
(dp657
g98
g91
sg99
I4643193824
sg100
I0
sg101
I4643185024
ssg102
(dp658
g98
g104
sg99
I4478213320
sg100
I0
sg101
I4478189648
ssasg105
Nsg106
I65540
sg107
I100
sg108
I4643193824
sasg109
S'None'
p659
sg111
S'core.fileIO.WriteImage'
p660
sg108
I4643185024
sa(dp661
g36
(dp662
g38
(lp663
(dp664
g41
S"<class 'gpi.widgets.SaveFileBrowser'>"
p665
sg43
S'File Browser'
p666
sg45
(dp667
S'outport'
p668
I00
sS'quietval'
p669
Nsg49
g50
sS'collapsed'
p670
I00
sS'inport'
p671
I00
sS'visible'
p672
I01
sS'id'
p673
I4661465928
ssa(dp674
g41
S"<class 'gpi.widgets.PushButton'>"
p675
sg43
S'Write Mode'
p676
sg45
(dp677
S'outport'
p678
I00
sS'quietval'
p679
Nsg49
I00
sS'collapsed'
p680
I00
sS'inport'
p681
I00
sS'visible'
p682
I01
sS'toggle'
p683
I01
sS'button_title'
p684
VWrite on New Filename
p685
sS'id'
p686
I4661466536
ssa(dp687
g41
S"<class 'gpi.widgets.PushButton'>"
p688
sg43
S'Write Now'
p689
sg45
(dp690
S'outport'
p691
I00
sS'quietval'
p692
Nsg49
I00
sS'collapsed'
p693
I00
sS'inport'
p694
I00
sS'visible'
p695
I01
sS'toggle'
p696
I00
sS'button_title'
p697
VWrite Right Now
p698
sS'id'
p699
I4661467296
ssasg81
g50
ssg82
S'None'
p700
sg43
g153
sg85
(lp701
F-330.0
aF-56.66666666666667
asg87
(lp702
(dp703
g90
g91
sg92
I0
sg93
(lp704
(dp705
g96
(dp706
g98
g91
sg99
I4661468056
sg100
I0
sg101
I4661434680
ssg102
(dp707
g98
g529
sg99
I4478083608
sg100
I0
sg101
I4478038248
ssasg105
Nsg106
I65540
sg107
I100
sg108
I4661468056
sasg109
S'None'
p708
sg111
g162
sg108
I4661434680
sa(dp709
g36
(dp710
g38
(lp711
(dp712
g41
S"<class 'gpi.widgets.SaveFileBrowser'>"
p713
sg43
S'File Browser'
p714
sg45
(dp715
S'outport'
p716
I00
sS'quietval'
p717
Nsg49
g50
sS'collapsed'
p718
I00
sS'inport'
p719
I00
sS'visible'
p720
I01
sS'id'
p721
I4662201088
ssa(dp722
g41
S"<class 'gpi.widgets.PushButton'>"
p723
sg43
S'Write Mode'
p724
sg45
(dp725
S'outport'
p726
I00
sS'quietval'
p727
Nsg49
I00
sS'collapsed'
p728
I00
sS'inport'
p729
I00
sS'visible'
p730
I01
sS'toggle'
p731
I01
sS'button_title'
p732
VWrite on New Filename
p733
sS'id'
p734
I4662201696
ssa(dp735
g41
S"<class 'gpi.widgets.PushButton'>"
p736
sg43
S'Write Now'
p737
sg45
(dp738
S'outport'
p739
I00
sS'quietval'
p740
Nsg49
I00
sS'collapsed'
p741
I00
sS'inport'
p742
I00
sS'visible'
p743
I01
sS'toggle'
p744
I00
sS'button_title'
p745
VWrite Right Now
p746
sS'id'
p747
I4662223080
ssasg81
g50
ssg82
S'None'
p748
sg43
g601
sg85
(lp749
F-45.0
aF93.33333333333333
asg87
(lp750
(dp751
g90
g91
sg92
I0
sg93
(lp752
(dp753
g96
(dp754
g98
g91
sg99
I4662223840
sg100
I0
sg101
I4662198656
ssg102
(dp755
g98
g104
sg99
I4477963616
sg100
I0
sg101
I4639927648
ssasg105
Nsg106
I65540
sg107
I100
sg108
I4662223840
sasg109
S'None'
p756
sg111
g610
sg108
I4662198656
sa(dp757
g36
(dp758
g38
(lp759
(dp760
g41
S"<class 'gpi.widgets.SaveFileBrowser'>"
p761
sg43
S'File Browser'
p762
sg45
(dp763
S'outport'
p764
I00
sS'quietval'
p765
Nsg49
g50
sS'collapsed'
p766
I00
sS'inport'
p767
I00
sS'visible'
p768
I01
sS'id'
p769
I4639447808
ssa(dp770
g41
S"<class 'gpi.widgets.PushButton'>"
p771
sg43
S'Write Mode'
p772
sg45
(dp773
S'outport'
p774
I00
sS'quietval'
p775
Nsg49
I00
sS'collapsed'
p776
I00
sS'inport'
p777
I00
sS'visible'
p778
I01
sS'toggle'
p779
I01
sS'button_title'
p780
VWrite on New Filename
p781
sS'id'
p782
I4639448416
ssa(dp783
g41
S"<class 'gpi.widgets.PushButton'>"
p784
sg43
S'Write Now'
p785
sg45
(dp786
S'outport'
p787
I00
sS'quietval'
p788
Nsg49
I00
sS'collapsed'
p789
I00
sS'inport'
p790
I00
sS'visible'
p791
I01
sS'toggle'
p792
I00
sS'button_title'
p793
VWrite Right Now
p794
sS'id'
p795
I4639453416
ssasg81
g50
ssg82
S'None'
p796
sg43
g269
sg85
(lp797
F-235.0
aF63.33333333333333
asg87
(lp798
(dp799
g90
g91
sg92
I0
sg93
(lp800
(dp801
g96
(dp802
g98
g91
sg99
I4639454176
sg100
I0
sg101
I4639445376
ssg102
(dp803
g98
g104
sg99
I4478035824
sg100
I0
sg101
I4478002752
ssasg105
Nsg106
I65540
sg107
I100
sg108
I4639454176
sasg109
S'None'
p804
sg111
g278
sg108
I4639445376
sa(dp805
g36
(dp806
g38
(lp807
(dp808
g41
S"<class 'gpi.widgets.SaveFileBrowser'>"
p809
sg43
S'File Browser'
p810
sg45
(dp811
S'outport'
p812
I00
sS'quietval'
p813
Nsg49
g50
sS'collapsed'
p814
I00
sS'inport'
p815
I00
sS'visible'
p816
I01
sS'id'
p817
I4643319592
ssa(dp818
g41
S"<class 'gpi.widgets.PushButton'>"
p819
sg43
S'Write Mode'
p820
sg45
(dp821
S'outport'
p822
I00
sS'quietval'
p823
Nsg49
I00
sS'collapsed'
p824
I00
sS'inport'
p825
I00
sS'visible'
p826
I01
sS'toggle'
p827
I01
sS'button_title'
p828
VWrite on New Filename
p829
sS'id'
p830
I4643349016
ssa(dp831
g41
S"<class 'gpi.widgets.PushButton'>"
p832
sg43
S'Write Now'
p833
sg45
(dp834
S'outport'
p835
I00
sS'quietval'
p836
Nsg49
I00
sS'collapsed'
p837
I00
sS'inport'
p838
I00
sS'visible'
p839
I01
sS'toggle'
p840
I00
sS'button_title'
p841
VWrite Right Now
p842
sS'id'
p843
I4643349776
ssasg81
g50
ssg82
S'None'
p844
sg43
g651
sg85
(lp845
F-235.0
aF93.33333333333333
asg87
(lp846
(dp847
g90
g91
sg92
I0
sg93
(lp848
(dp849
g96
(dp850
g98
g91
sg99
I4643350536
sg100
I0
sg101
I4643317160
ssg102
(dp851
g98
g104
sg99
I4478035824
sg100
I0
sg101
I4478002752
ssasg105
Nsg106
I65540
sg107
I100
sg108
I4643350536
sasg109
S'None'
p852
sg111
g660
sg108
I4643317160
sa(dp853
g36
(dp854
g38
(lp855
(dp856
g41
S"<class 'gpi.widgets.TextBox'>"
p857
sg43
S'I/O Info:'
p858
sg45
(dp859
S'outport'
p860
I00
sS'quietval'
p861
Nsg49
g50
sS'collapsed'
p862
I00
sS'inport'
p863
I00
sS'visible'
p864
I01
sS'wordwrap'
p865
I00
sS'id'
p866
I4478192080
ssa(dp867
g41
S"<class 'gpi.widgets.OpenFileBrowser'>"
p868
sg43
S'File Browser'
p869
sg45
(dp870
S'outport'
p871
I00
sS'quietval'
p872
Nsg49
g50
sS'collapsed'
p873
I00
sS'inport'
p874
I00
sS'visible'
p875
I01
sS'id'
p876
I4478192536
ssa(dp877
g41
S"<class 'gpi.widgets.SpinBox'>"
p878
sg43
S'Skip Bytes:'
p879
sg45
(dp880
S'outport'
p881
I00
sS'quietval'
p882
Nsg49
I0
sS'min'
p883
I0
sS'max'
p884
I2147483647
sS'collapsed'
p885
I00
sS'wrapping'
p886
I00
sS'immediate'
p887
I00
sS'label'
p888
g471
sS'singlestep'
p889
I1
sS'visible'
p890
I01
sS'inport'
p891
I00
sS'id'
p892
I4478193144
ssa(dp893
g41
S"<class 'gpi.widgets.ExclusiveRadioButtons'>"
p894
sg43
S'<type>'
p895
sg45
(dp896
S'outport'
p897
I00
sS'quietval'
p898
Nsg49
I0
sS'collapsed'
p899
I00
sS'inport'
p900
I00
sS'visible'
p901
I01
sS'id'
p902
I4478194200
ssa(dp903
g41
S"<class 'gpi.widgets.Slider'>"
p904
sg43
S'ndim:'
p905
sg45
(dp906
S'outport'
p907
I00
sS'quietval'
p908
Nsg49
I1
sS'min'
p909
I1
sS'max'
p910
I8
sS'collapsed'
p911
I00
sS'inport'
p912
I00
sS'visible'
p913
I01
sS'id'
p914
I4478195568
ssa(dp915
g41
S"<class 'gpi.widgets.SpinBox'>"
p916
sg43
S'Dimension: 0'
p917
sg45
(dp918
S'outport'
p919
I00
sS'quietval'
p920
Nsg49
I1
sS'min'
p921
I1
sS'max'
p922
I2147483647
sS'collapsed'
p923
I00
sS'wrapping'
p924
I00
sS'immediate'
p925
I00
sS'label'
p926
g471
sS'singlestep'
p927
I1
sS'visible'
p928
I01
sS'inport'
p929
I00
sS'id'
p930
I4478196784
ssa(dp931
g41
S"<class 'gpi.widgets.SpinBox'>"
p932
sg43
S'Dimension: 1'
p933
sg45
(dp934
S'outport'
p935
I00
sS'quietval'
p936
Nsg49
I1
sS'min'
p937
I1
sS'max'
p938
I2147483647
sS'collapsed'
p939
I00
sS'wrapping'
p940
I00
sS'immediate'
p941
I00
sS'label'
p942
g471
sS'singlestep'
p943
I1
sS'visible'
p944
I00
sS'inport'
p945
I00
sS'id'
p946
I4478197840
ssa(dp947
g41
S"<class 'gpi.widgets.SpinBox'>"
p948
sg43
S'Dimension: 2'
p949
sg45
(dp950
S'outport'
p951
I00
sS'quietval'
p952
Nsg49
I1
sS'min'
p953
I1
sS'max'
p954
I2147483647
sS'collapsed'
p955
I00
sS'wrapping'
p956
I00
sS'immediate'
p957
I00
sS'label'
p958
g471
sS'singlestep'
p959
I1
sS'visible'
p960
I00
sS'inport'
p961
I00
sS'id'
p962
I4478198752
ssa(dp963
g41
S"<class 'gpi.widgets.SpinBox'>"
p964
sg43
S'Dimension: 3'
p965
sg45
(dp966
S'outport'
p967
I00
sS'quietval'
p968
Nsg49
I1
sS'min'
p969
I1
sS'max'
p970
I2147483647
sS'collapsed'
p971
I00
sS'wrapping'
p972
I00
sS'immediate'
p973
I00
sS'label'
p974
g471
sS'singlestep'
p975
I1
sS'visible'
p976
I00
sS'inport'
p977
I00
sS'id'
p978
I4478199664
ssa(dp979
g41
S"<class 'gpi.widgets.SpinBox'>"
p980
sg43
S'Dimension: 4'
p981
sg45
(dp982
S'outport'
p983
I00
sS'quietval'
p984
Nsg49
I1
sS'min'
p985
I1
sS'max'
p986
I2147483647
sS'collapsed'
p987
I00
sS'wrapping'
p988
I00
sS'immediate'
p989
I00
sS'label'
p990
g471
sS'singlestep'
p991
I1
sS'visible'
p992
I00
sS'inport'
p993
I00
sS'id'
p994
I4478200576
ssa(dp995
g41
S"<class 'gpi.widgets.SpinBox'>"
p996
sg43
S'Dimension: 5'
p997
sg45
(dp998
S'outport'
p999
I00
sS'quietval'
p1000
Nsg49
I1
sS'min'
p1001
I1
sS'max'
p1002
I2147483647
sS'collapsed'
p1003
I00
sS'wrapping'
p1004
I00
sS'immediate'
p1005
I00
sS'label'
p1006
g471
sS'singlestep'
p1007
I1
sS'visible'
p1008
I00
sS'inport'
p1009
I00
sS'id'
p1010
I4478201488
ssa(dp1011
g41
S"<class 'gpi.widgets.SpinBox'>"
p1012
sg43
S'Dimension: 6'
p1013
sg45
(dp1014
S'outport'
p1015
I00
sS'quietval'
p1016
Nsg49
I1
sS'min'
p1017
I1
sS'max'
p1018
I2147483647
sS'collapsed'
p1019
I00
sS'wrapping'
p1020
I00
sS'immediate'
p1021
I00
sS'label'
p1022
g471
sS'singlestep'
p1023
I1
sS'visible'
p1024
I00
sS'inport'
p1025
I00
sS'id'
p1026
I4478210736
ssa(dp1027
g41
S"<class 'gpi.widgets.SpinBox'>"
p1028
sg43
S'Dimension: 7'
p1029
sg45
(dp1030
S'outport'
p1031
I00
sS'quietval'
p1032
Nsg49
I1
sS'min'
p1033
I1
sS'max'
p1034
I2147483647
sS'collapsed'
p1035
I00
sS'wrapping'
p1036
I00
sS'immediate'
p1037
I00
sS'label'
p1038
g471
sS'singlestep'
p1039
I1
sS'visible'
p1040
I00
sS'inport'
p1041
I00
sS'id'
p1042
I4478211648
ssa(dp1043
g41
S"<class 'gpi.widgets.PushButton'>"
p1044
sg43
S'Compute'
p1045
sg45
(dp1046
S'outport'
p1047
I00
sS'quietval'
p1048
Nsg49
I00
sS'collapsed'
p1049
I00
sS'inport'
p1050
I00
sS'visible'
p1051
I01
sS'toggle'
p1052
I01
sS'button_title'
p1053
g471
sS'id'
p1054
I4478212560
ssasg81
g50
ssg82
S'0.0972561836243'
p1055
sg43
S'ReadRaw'
p1056
sg85
(lp1057
F235.0
aF-86.66666666666667
asg87
(lp1058
(dp1059
g90
g104
sg92
I0
sg93
(lp1060
(dp1061
g96
(dp1062
g98
g91
sg99
I4639361488
sg100
I0
sg101
I4639373168
ssg102
(dp1063
g98
g104
sg99
I4478213320
sg100
I0
sg101
I4478189648
ssa(dp1064
g96
(dp1065
g98
g91
sg99
I4477574192
sg100
I0
sg101
I4477551888
ssg102
(dp1066
g98
g104
sg99
I4478213320
sg100
I0
sg101
I4478189648
ssa(dp1067
g96
(dp1068
g98
g91
sg99
I4643193824
sg100
I0
sg101
I4643185024
ssg102
(dp1069
g98
g104
sg99
I4478213320
sg100
I0
sg101
I4478189648
ssa(dp1070
g96
(dp1071
g98
g91
sg99
I4661267656
sg100
I0
sg101
I4661250664
ssg102
(dp1072
g98
g104
sg99
I4478213320
sg100
I0
sg101
I4478189648
ssa(dp1073
g96
(dp1074
g98
g91
sg99
I4661842152
sg100
I0
sg101
I4661820920
ssg102
(dp1075
g98
g104
sg99
I4478213320
sg100
I0
sg101
I4478189648
ssa(dp1076
g96
(dp1077
g98
g91
sg99
I4662137976
sg100
I0
sg101
I4662108696
ssg102
(dp1078
g98
g104
sg99
I4478213320
sg100
I0
sg101
I4478189648
ssasg105
Nsg106
I65541
sg107
Nsg108
I4478213320
sasg109
S'0.0'
p1079
sg111
S'core.fileIO.ReadRaw'
p1080
sg108
I4478189648
sg227
S'0.0972561836243'
p1081
sa(dp1082
g36
(dp1083
g38
(lp1084
(dp1085
g41
S"<class 'gpi.widgets.SaveFileBrowser'>"
p1086
sg43
S'File Browser'
p1087
sg45
(dp1088
S'outport'
p1089
I00
sS'quietval'
p1090
Nsg49
g50
sS'collapsed'
p1091
I00
sS'inport'
p1092
I00
sS'visible'
p1093
I01
sS'id'
p1094
I4643154840
ssa(dp1095
g41
S"<class 'gpi.widgets.StringBox'>"
p1096
sg43
S'set-name'
p1097
sg45
(dp1098
S'maskedval'
p1099
S'x\x9cK/\xc8LI,I\x04\x00\x0b\x81\x02\xdb'
p1100
sS'outport'
p1101
I00
sS'quietval'
p1102
Nsg49
S'gpidata'
p1103
sS'collapsed'
p1104
I00
sS'mask'
p1105
I00
sS'inport'
p1106
I00
sS'visible'
p1107
I01
sS'id'
p1108
I4643155448
ssa(dp1109
g41
S"<class 'gpi.widgets.PushButton'>"
p1110
sg43
S'compress (GZIP)'
p1111
sg45
(dp1112
S'outport'
p1113
I00
sS'quietval'
p1114
Nsg49
I00
sS'collapsed'
p1115
I00
sS'inport'
p1116
I00
sS'visible'
p1117
I01
sS'toggle'
p1118
I01
sS'button_title'
p1119
g471
sS'id'
p1120
I4643156048
ssa(dp1121
g41
S"<class 'gpi.widgets.PushButton'>"
p1122
sg43
S'Write Mode'
p1123
sg45
(dp1124
S'outport'
p1125
I00
sS'quietval'
p1126
Nsg49
I00
sS'collapsed'
p1127
I00
sS'inport'
p1128
I00
sS'visible'
p1129
I01
sS'toggle'
p1130
I01
sS'button_title'
p1131
VWrite on New Filename
p1132
sS'id'
p1133
I4643156808
ssa(dp1134
g41
S"<class 'gpi.widgets.PushButton'>"
p1135
sg43
S'Write Now'
p1136
sg45
(dp1137
S'outport'
p1138
I00
sS'quietval'
p1139
Nsg49
I00
sS'collapsed'
p1140
I00
sS'inport'
p1141
I00
sS'visible'
p1142
I01
sS'toggle'
p1143
I00
sS'button_title'
p1144
VWrite Right Now
p1145
sS'id'
p1146
I4643157568
ssasg81
g50
ssg82
S'None'
p1147
sg43
S'WriteHDF5'
p1148
sg85
(lp1149
F-330.0
aF63.33333333333333
asg87
(lp1150
(dp1151
g90
g91
sg92
I0
sg93
(lp1152
(dp1153
g96
(dp1154
g98
g91
sg99
I4643158328
sg100
I0
sg101
I4643152408
ssg102
(dp1155
g98
g529
sg99
I4478083608
sg100
I0
sg101
I4478038248
ssasg105
Nsg106
I65540
sg107
I100
sg108
I4643158328
sasg109
S'None'
p1156
sg111
S'core.fileIO.WriteHDF5'
p1157
sg108
I4643152408
sa(dp1158
g36
(dp1159
g38
(lp1160
(dp1161
g41
S"<class 'gpi.widgets.SaveFileBrowser'>"
p1162
sg43
S'File Browser'
p1163
sg45
(dp1164
S'outport'
p1165
I00
sS'quietval'
p1166
Nsg49
g50
sS'collapsed'
p1167
I00
sS'inport'
p1168
I00
sS'visible'
p1169
I01
sS'id'
p1170
I4643250256
ssa(dp1171
g41
S"<class 'gpi.widgets.PushButton'>"
p1172
sg43
S'Write Mode'
p1173
sg45
(dp1174
S'outport'
p1175
I00
sS'quietval'
p1176
Nsg49
I00
sS'collapsed'
p1177
I00
sS'inport'
p1178
I00
sS'visible'
p1179
I01
sS'toggle'
p1180
I01
sS'button_title'
p1181
VWrite on New Filename
p1182
sS'id'
p1183
I4643250864
ssa(dp1184
g41
S"<class 'gpi.widgets.PushButton'>"
p1185
sg43
S'Write Now'
p1186
sg45
(dp1187
S'outport'
p1188
I00
sS'quietval'
p1189
Nsg49
I00
sS'collapsed'
p1190
I00
sS'inport'
p1191
I00
sS'visible'
p1192
I01
sS'toggle'
p1193
I00
sS'button_title'
p1194
VWrite Right Now
p1195
sS'id'
p1196
I4643251624
ssasg81
g50
ssg82
S'None'
p1197
sg43
g651
sg85
(lp1198
F45.0
aF-56.66666666666667
asg87
(lp1199
(dp1200
g90
g91
sg92
I0
sg93
(lp1201
(dp1202
g96
(dp1203
g98
g91
sg99
I4643252384
sg100
I0
sg101
I4643223104
ssg102
(dp1204
g98
g104
sg99
I4639924912
sg100
I0
sg101
I4639804768
ssasg105
Nsg106
I65540
sg107
I100
sg108
I4643252384
sasg109
S'None'
p1205
sg111
g660
sg108
I4643223104
sa(dp1206
g36
(dp1207
g38
(lp1208
(dp1209
g41
S"<class 'gpi.widgets.SaveFileBrowser'>"
p1210
sg43
S'File Browser'
p1211
sg45
(dp1212
S'outport'
p1213
I00
sS'quietval'
p1214
Nsg49
g50
sS'collapsed'
p1215
I00
sS'inport'
p1216
I00
sS'visible'
p1217
I01
sS'id'
p1218
I4661265528
ssa(dp1219
g41
S"<class 'gpi.widgets.PushButton'>"
p1220
sg43
S'Write Mode'
p1221
sg45
(dp1222
S'outport'
p1223
I00
sS'quietval'
p1224
Nsg49
I00
sS'collapsed'
p1225
I00
sS'inport'
p1226
I00
sS'visible'
p1227
I01
sS'toggle'
p1228
I01
sS'button_title'
p1229
VWrite on New Filename
p1230
sS'id'
p1231
I4661266136
ssa(dp1232
g41
S"<class 'gpi.widgets.PushButton'>"
p1233
sg43
S'Write Now'
p1234
sg45
(dp1235
S'outport'
p1236
I00
sS'quietval'
p1237
Nsg49
I00
sS'collapsed'
p1238
I00
sS'inport'
p1239
I00
sS'visible'
p1240
I01
sS'toggle'
p1241
I00
sS'button_title'
p1242
VWrite Right Now
p1243
sS'id'
p1244
I4661266896
ssasg81
g50
ssg82
S'None'
p1245
sg43
g153
sg85
(lp1246
F235.0
aF-26.66666666666667
asg87
(lp1247
(dp1248
g90
g91
sg92
I0
sg93
(lp1249
(dp1250
g96
(dp1251
g98
g91
sg99
I4661267656
sg100
I0
sg101
I4661250664
ssg102
(dp1252
g98
g104
sg99
I4478213320
sg100
I0
sg101
I4478189648
ssasg105
Nsg106
I65540
sg107
I100
sg108
I4661267656
sasg109
S'None'
p1253
sg111
g162
sg108
I4661250664
sa(dp1254
g36
(dp1255
g38
(lp1256
(dp1257
g41
S"<class 'gpi.widgets.SaveFileBrowser'>"
p1258
sg43
S'File Browser'
p1259
sg45
(dp1260
S'outport'
p1261
I00
sS'quietval'
p1262
Nsg49
g50
sS'collapsed'
p1263
I00
sS'inport'
p1264
I00
sS'visible'
p1265
I01
sS'id'
p1266
I4661910728
ssa(dp1267
g41
S"<class 'gpi.widgets.PushButton'>"
p1268
sg43
S'Write Mode'
p1269
sg45
(dp1270
S'outport'
p1271
I00
sS'quietval'
p1272
Nsg49
I00
sS'collapsed'
p1273
I00
sS'inport'
p1274
I00
sS'visible'
p1275
I01
sS'toggle'
p1276
I01
sS'button_title'
p1277
VWrite on New Filename
p1278
sS'id'
p1279
I4661911336
ssa(dp1280
g41
S"<class 'gpi.widgets.PushButton'>"
p1281
sg43
S'Write Now'
p1282
sg45
(dp1283
S'outport'
p1284
I00
sS'quietval'
p1285
Nsg49
I00
sS'collapsed'
p1286
I00
sS'inport'
p1287
I00
sS'visible'
p1288
I01
sS'toggle'
p1289
I00
sS'button_title'
p1290
VWrite Right Now
p1291
sS'id'
p1292
I4661912240
ssasg81
g50
ssg82
S'None'
p1293
sg43
g84
sg85
(lp1294
F45.0
aF93.33333333333333
asg87
(lp1295
(dp1296
g90
g91
sg92
I0
sg93
(lp1297
(dp1298
g96
(dp1299
g98
g91
sg99
I4661913000
sg100
I0
sg101
I4661908296
ssg102
(dp1300
g98
g104
sg99
I4639924912
sg100
I0
sg101
I4639804768
ssasg105
Nsg106
I65540
sg107
I100
sg108
I4661913000
sasg109
S'None'
p1301
sg111
g112
sg108
I4661908296
sa(dp1302
g36
(dp1303
g38
(lp1304
(dp1305
g41
S"<class 'gpi.widgets.SaveFileBrowser'>"
p1306
sg43
S'File Browser'
p1307
sg45
(dp1308
S'outport'
p1309
I00
sS'quietval'
p1310
Nsg49
g50
sS'collapsed'
p1311
I00
sS'inport'
p1312
I00
sS'visible'
p1313
I01
sS'id'
p1314
I4662257064
ssa(dp1315
g41
S"<class 'gpi.widgets.PushButton'>"
p1316
sg43
S'Write Mode'
p1317
sg45
(dp1318
S'outport'
p1319
I00
sS'quietval'
p1320
Nsg49
I00
sS'collapsed'
p1321
I00
sS'inport'
p1322
I00
sS'visible'
p1323
I01
sS'toggle'
p1324
I01
sS'button_title'
p1325
VWrite on New Filename
p1326
sS'id'
p1327
I4662257672
ssa(dp1328
g41
S"<class 'gpi.widgets.PushButton'>"
p1329
sg43
S'Write Now'
p1330
sg45
(dp1331
S'outport'
p1332
I00
sS'quietval'
p1333
Nsg49
I00
sS'collapsed'
p1334
I00
sS'inport'
p1335
I00
sS'visible'
p1336
I01
sS'toggle'
p1337
I00
sS'button_title'
p1338
VWrite Right Now
p1339
sS'id'
p1340
I4662258432
ssasg81
g50
ssg82
S'None'
p1341
sg43
g601
sg85
(lp1342
F-140.0
aF33.33333333333333
asg87
(lp1343
(dp1344
g90
g91
sg92
I0
sg93
(lp1345
(dp1346
g96
(dp1347
g98
g91
sg99
I4662259192
sg100
I0
sg101
I4662225816
ssg102
(dp1348
g98
g104
sg99
I4477995928
sg100
I0
sg101
I4574751944
ssasg105
Nsg106
I65540
sg107
I100
sg108
I4662259192
sasg109
S'None'
p1349
sg111
g610
sg108
I4662225816
sa(dp1350
g36
(dp1351
g38
(lp1352
(dp1353
g41
S"<class 'gpi.widgets.SaveFileBrowser'>"
p1354
sg43
S'File Browser'
p1355
sg45
(dp1356
S'outport'
p1357
I00
sS'quietval'
p1358
Nsg49
g50
sS'collapsed'
p1359
I00
sS'inport'
p1360
I00
sS'visible'
p1361
I01
sS'id'
p1362
I4643118128
ssa(dp1363
g41
S"<class 'gpi.widgets.StringBox'>"
p1364
sg43
S'set-name'
p1365
sg45
(dp1366
S'maskedval'
p1367
S'x\x9cK/\xc8LI,I\x04\x00\x0b\x81\x02\xdb'
p1368
sS'outport'
p1369
I00
sS'quietval'
p1370
Nsg49
S'gpidata'
p1371
sS'collapsed'
p1372
I00
sS'mask'
p1373
I00
sS'inport'
p1374
I00
sS'visible'
p1375
I01
sS'id'
p1376
I4643118736
ssa(dp1377
g41
S"<class 'gpi.widgets.PushButton'>"
p1378
sg43
S'compress (GZIP)'
p1379
sg45
(dp1380
S'outport'
p1381
I00
sS'quietval'
p1382
Nsg49
I00
sS'collapsed'
p1383
I00
sS'inport'
p1384
I00
sS'visible'
p1385
I01
sS'toggle'
p1386
I01
sS'button_title'
p1387
g471
sS'id'
p1388
I4643127528
ssa(dp1389
g41
S"<class 'gpi.widgets.PushButton'>"
p1390
sg43
S'Write Mode'
p1391
sg45
(dp1392
S'outport'
p1393
I00
sS'quietval'
p1394
Nsg49
I00
sS'collapsed'
p1395
I00
sS'inport'
p1396
I00
sS'visible'
p1397
I01
sS'toggle'
p1398
I01
sS'button_title'
p1399
VWrite on New Filename
p1400
sS'id'
p1401
I4643128288
ssa(dp1402
g41
S"<class 'gpi.widgets.PushButton'>"
p1403
sg43
S'Write Now'
p1404
sg45
(dp1405
S'outport'
p1406
I00
sS'quietval'
p1407
Nsg49
I00
sS'collapsed'
p1408
I00
sS'inport'
p1409
I00
sS'visible'
p1410
I01
sS'toggle'
p1411
I00
sS'button_title'
p1412
VWrite Right Now
p1413
sS'id'
p1414
I4643129048
ssasg81
g50
ssg82
S'None'
p1415
sg43
g1148
sg85
(lp1416
F-235.0
aF3.3333333333333286
asg87
(lp1417
(dp1418
g90
g91
sg92
I0
sg93
(lp1419
(dp1420
g96
(dp1421
g98
g91
sg99
I4643129808
sg100
I0
sg101
I4643115696
ssg102
(dp1422
g98
g104
sg99
I4478035824
sg100
I0
sg101
I4478002752
ssasg105
Nsg106
I65540
sg107
I100
sg108
I4643129808
sasg109
S'None'
p1423
sg111
g1157
sg108
I4643115696
sa(dp1424
g36
(dp1425
g38
(lp1426
(dp1427
g41
S"<class 'gpi.widgets.SaveFileBrowser'>"
p1428
sg43
S'File Browser'
p1429
sg45
(dp1430
S'outport'
p1431
I00
sS'quietval'
p1432
Nsg49
g50
sS'collapsed'
p1433
I00
sS'inport'
p1434
I00
sS'visible'
p1435
I01
sS'id'
p1436
I4661336376
ssa(dp1437
g41
S"<class 'gpi.widgets.PushButton'>"
p1438
sg43
S'Write Mode'
p1439
sg45
(dp1440
S'outport'
p1441
I00
sS'quietval'
p1442
Nsg49
I00
sS'collapsed'
p1443
I00
sS'inport'
p1444
I00
sS'visible'
p1445
I01
sS'toggle'
p1446
I01
sS'button_title'
p1447
VWrite on New Filename
p1448
sS'id'
p1449
I4661336984
ssa(dp1450
g41
S"<class 'gpi.widgets.PushButton'>"
p1451
sg43
S'Write Now'
p1452
sg45
(dp1453
S'outport'
p1454
I00
sS'quietval'
p1455
Nsg49
I00
sS'collapsed'
p1456
I00
sS'inport'
p1457
I00
sS'visible'
p1458
I01
sS'toggle'
p1459
I00
sS'button_title'
p1460
VWrite Right Now
p1461
sS'id'
p1462
I4661337744
ssasg81
g50
ssg82
S'None'
p1463
sg43
g153
sg85
(lp1464
F45.0
aF63.33333333333333
asg87
(lp1465
(dp1466
g90
g91
sg92
I0
sg93
(lp1467
(dp1468
g96
(dp1469
g98
g91
sg99
I4661346840
sg100
I0
sg101
I4661301032
ssg102
(dp1470
g98
g104
sg99
I4639924912
sg100
I0
sg101
I4639804768
ssasg105
Nsg106
I65540
sg107
I100
sg108
I4661346840
sasg109
S'None'
p1471
sg111
g162
sg108
I4661301032
sa(dp1472
g36
(dp1473
g38
(lp1474
(dp1475
g41
S"<class 'gpi.widgets.SaveFileBrowser'>"
p1476
sg43
S'File Browser'
p1477
sg45
(dp1478
S'outport'
p1479
I00
sS'quietval'
p1480
Nsg49
g50
sS'collapsed'
p1481
I00
sS'inport'
p1482
I00
sS'visible'
p1483
I01
sS'id'
p1484
I4662163008
ssa(dp1485
g41
S"<class 'gpi.widgets.PushButton'>"
p1486
sg43
S'Write Mode'
p1487
sg45
(dp1488
S'outport'
p1489
I00
sS'quietval'
p1490
Nsg49
I00
sS'collapsed'
p1491
I00
sS'inport'
p1492
I00
sS'visible'
p1493
I01
sS'toggle'
p1494
I01
sS'button_title'
p1495
VWrite on New Filename
p1496
sS'id'
p1497
I4662163616
ssa(dp1498
g41
S"<class 'gpi.widgets.PushButton'>"
p1499
sg43
S'Write Now'
p1500
sg45
(dp1501
S'outport'
p1502
I00
sS'quietval'
p1503
Nsg49
I00
sS'collapsed'
p1504
I00
sS'inport'
p1505
I00
sS'visible'
p1506
I01
sS'toggle'
p1507
I00
sS'button_title'
p1508
VWrite Right Now
p1509
sS'id'
p1510
I4662164376
ssasg81
g50
ssg82
S'None'
p1511
sg43
g601
sg85
(lp1512
F140.0
aF3.3333333333333286
asg87
(lp1513
(dp1514
g90
g91
sg92
I0
sg93
(lp1515
(dp1516
g96
(dp1517
g98
g91
sg99
I4662165136
sg100
I0
sg101
I4662139952
ssg102
(dp1518
g98
g104
sg99
I4478166440
sg100
I0
sg101
I4478138224
ssasg105
Nsg106
I65540
sg107
I100
sg108
I4662165136
sasg109
S'None'
p1519
sg111
g610
sg108
I4662139952
sa(dp1520
g36
(dp1521
g38
(lp1522
(dp1523
g41
S"<class 'gpi.widgets.SaveFileBrowser'>"
p1524
sg43
S'File Browser'
p1525
sg45
(dp1526
S'outport'
p1527
I00
sS'quietval'
p1528
Nsg49
g50
sS'collapsed'
p1529
I00
sS'inport'
p1530
I00
sS'visible'
p1531
I01
sS'id'
p1532
I4661367776
ssa(dp1533
g41
S"<class 'gpi.widgets.PushButton'>"
p1534
sg43
S'Write Mode'
p1535
sg45
(dp1536
S'outport'
p1537
I00
sS'quietval'
p1538
Nsg49
I00
sS'collapsed'
p1539
I00
sS'inport'
p1540
I00
sS'visible'
p1541
I01
sS'toggle'
p1542
I01
sS'button_title'
p1543
VWrite on New Filename
p1544
sS'id'
p1545
I4661368384
ssa(dp1546
g41
S"<class 'gpi.widgets.PushButton'>"
p1547
sg43
S'Write Now'
p1548
sg45
(dp1549
S'outport'
p1550
I00
sS'quietval'
p1551
Nsg49
I00
sS'collapsed'
p1552
I00
sS'inport'
p1553
I00
sS'visible'
p1554
I01
sS'toggle'
p1555
I00
sS'button_title'
p1556
VWrite Right Now
p1557
sS'id'
p1558
I4661369144
ssasg81
g50
ssg82
S'None'
p1559
sg43
g153
sg85
(lp1560
F-45.0
aF33.33333333333333
asg87
(lp1561
(dp1562
g90
g91
sg92
I0
sg93
(lp1563
(dp1564
g96
(dp1565
g98
g91
sg99
I4661369904
sg100
I0
sg101
I4661348816
ssg102
(dp1566
g98
g104
sg99
I4477963616
sg100
I0
sg101
I4639927648
ssasg105
Nsg106
I65540
sg107
I100
sg108
I4661369904
sasg109
S'None'
p1567
sg111
g162
sg108
I4661348816
sa(dp1568
g36
(dp1569
g38
(lp1570
(dp1571
g41
S"<class 'gpi.widgets.SaveFileBrowser'>"
p1572
sg43
S'File Browser'
p1573
sg45
(dp1574
S'outport'
p1575
I00
sS'quietval'
p1576
Nsg49
g50
sS'collapsed'
p1577
I00
sS'inport'
p1578
I00
sS'visible'
p1579
I01
sS'id'
p1580
I4643312912
ssa(dp1581
g41
S"<class 'gpi.widgets.PushButton'>"
p1582
sg43
S'Write Mode'
p1583
sg45
(dp1584
S'outport'
p1585
I00
sS'quietval'
p1586
Nsg49
I00
sS'collapsed'
p1587
I00
sS'inport'
p1588
I00
sS'visible'
p1589
I01
sS'toggle'
p1590
I01
sS'button_title'
p1591
VWrite on New Filename
p1592
sS'id'
p1593
I4643313520
ssa(dp1594
g41
S"<class 'gpi.widgets.PushButton'>"
p1595
sg43
S'Write Now'
p1596
sg45
(dp1597
S'outport'
p1598
I00
sS'quietval'
p1599
Nsg49
I00
sS'collapsed'
p1600
I00
sS'inport'
p1601
I00
sS'visible'
p1602
I01
sS'toggle'
p1603
I00
sS'button_title'
p1604
VWrite Right Now
p1605
sS'id'
p1606
I4643314280
ssasg81
g50
ssg82
S'None'
p1607
sg43
g651
sg85
(lp1608
F-140.0
aF-56.66666666666667
asg87
(lp1609
(dp1610
g90
g91
sg92
I0
sg93
(lp1611
(dp1612
g96
(dp1613
g98
g91
sg99
I4643315040
sg100
I0
sg101
I4643285760
ssg102
(dp1614
g98
g104
sg99
I4477995928
sg100
I0
sg101
I4574751944
ssasg105
Nsg106
I65540
sg107
I100
sg108
I4643315040
sasg109
S'None'
p1615
sg111
g660
sg108
I4643285760
sa(dp1616
g36
(dp1617
g38
(lp1618
(dp1619
g41
S"<class 'gpi.widgets.SaveFileBrowser'>"
p1620
sg43
S'File Browser'
p1621
sg45
(dp1622
S'outport'
p1623
I00
sS'quietval'
p1624
Nsg49
g50
sS'collapsed'
p1625
I00
sS'inport'
p1626
I00
sS'visible'
p1627
I01
sS'id'
p1628
I4477672648
ssa(dp1629
g41
S"<class 'gpi.widgets.StringBox'>"
p1630
sg43
S'set-name'
p1631
sg45
(dp1632
S'maskedval'
p1633
S'x\x9cK/\xc8LI,I\x04\x00\x0b\x81\x02\xdb'
p1634
sS'outport'
p1635
I00
sS'quietval'
p1636
Nsg49
S'gpidata'
p1637
sS'collapsed'
p1638
I00
sS'mask'
p1639
I00
sS'inport'
p1640
I00
sS'visible'
p1641
I01
sS'id'
p1642
I4477673256
ssa(dp1643
g41
S"<class 'gpi.widgets.PushButton'>"
p1644
sg43
S'compress (GZIP)'
p1645
sg45
(dp1646
S'outport'
p1647
I00
sS'quietval'
p1648
Nsg49
I00
sS'collapsed'
p1649
I00
sS'inport'
p1650
I00
sS'visible'
p1651
I01
sS'toggle'
p1652
I01
sS'button_title'
p1653
g471
sS'id'
p1654
I4477673856
ssa(dp1655
g41
S"<class 'gpi.widgets.PushButton'>"
p1656
sg43
S'Write Mode'
p1657
sg45
(dp1658
S'outport'
p1659
I00
sS'quietval'
p1660
Nsg49
I00
sS'collapsed'
p1661
I00
sS'inport'
p1662
I00
sS'visible'
p1663
I01
sS'toggle'
p1664
I01
sS'button_title'
p1665
VWrite on New Filename
p1666
sS'id'
p1667
I4477674616
ssa(dp1668
g41
S"<class 'gpi.widgets.PushButton'>"
p1669
sg43
S'Write Now'
p1670
sg45
(dp1671
S'outport'
p1672
I00
sS'quietval'
p1673
Nsg49
I00
sS'collapsed'
p1674
I00
sS'inport'
p1675
I00
sS'visible'
p1676
I01
sS'toggle'
p1677
I00
sS'button_title'
p1678
VWrite Right Now
p1679
sS'id'
p1680
I4477675376
ssasg81
g50
ssg82
S'None'
p1681
sg43
g1148
sg85
(lp1682
F-45.0
aF63.33333333333333
asg87
(lp1683
(dp1684
g90
g91
sg92
I0
sg93
(lp1685
(dp1686
g96
(dp1687
g98
g91
sg99
I4477676136
sg100
I0
sg101
I4477670216
ssg102
(dp1688
g98
g104
sg99
I4477963616
sg100
I0
sg101
I4639927648
ssasg105
Nsg106
I65540
sg107
I100
sg108
I4477676136
sasg109
S'None'
p1689
sg111
g1157
sg108
I4477670216
sa(dp1690
g36
(dp1691
g38
(lp1692
(dp1693
g41
S"<class 'gpi.widgets.SaveFileBrowser'>"
p1694
sg43
S'File Browser'
p1695
sg45
(dp1696
S'outport'
p1697
I00
sS'quietval'
p1698
Nsg49
g50
sS'collapsed'
p1699
I00
sS'inport'
p1700
I00
sS'visible'
p1701
I01
sS'id'
p1702
I4477490600
ssa(dp1703
g41
S"<class 'gpi.widgets.PushButton'>"
p1704
sg43
S'Write Mode'
p1705
sg45
(dp1706
S'outport'
p1707
I00
sS'quietval'
p1708
Nsg49
I00
sS'collapsed'
p1709
I00
sS'inport'
p1710
I00
sS'visible'
p1711
I01
sS'toggle'
p1712
I01
sS'button_title'
p1713
VWrite on New Filename
p1714
sS'id'
p1715
I4477491208
ssa(dp1716
g41
S"<class 'gpi.widgets.PushButton'>"
p1717
sg43
S'Write Now'
p1718
sg45
(dp1719
S'outport'
p1720
I00
sS'quietval'
p1721
Nsg49
I00
sS'collapsed'
p1722
I00
sS'inport'
p1723
I00
sS'visible'
p1724
I01
sS'toggle'
p1725
I00
sS'button_title'
p1726
VWrite Right Now
p1727
sS'id'
p1728
I4477491968
ssasg81
g50
ssg82
S'None'
p1729
sg43
g269
sg85
(lp1730
F-330.0
aF-26.66666666666667
asg87
(lp1731
(dp1732
g90
g91
sg92
I0
sg93
(lp1733
(dp1734
g96
(dp1735
g98
g91
sg99
I4477492728
sg100
I0
sg101
I4639456152
ssg102
(dp1736
g98
g529
sg99
I4478083608
sg100
I0
sg101
I4478038248
ssasg105
Nsg106
I65540
sg107
I100
sg108
I4477492728
sasg109
S'None'
p1737
sg111
g278
sg108
I4639456152
sa(dp1738
g36
(dp1739
g38
(lp1740
(dp1741
g41
S"<class 'gpi.widgets.SaveFileBrowser'>"
p1742
sg43
S'File Browser'
p1743
sg45
(dp1744
S'outport'
p1745
I00
sS'quietval'
p1746
Nsg49
g50
sS'collapsed'
p1747
I00
sS'inport'
p1748
I00
sS'visible'
p1749
I01
sS'id'
p1750
I4662032088
ssa(dp1751
g41
S"<class 'gpi.widgets.PushButton'>"
p1752
sg43
S'Write Mode'
p1753
sg45
(dp1754
S'outport'
p1755
I00
sS'quietval'
p1756
Nsg49
I00
sS'collapsed'
p1757
I00
sS'inport'
p1758
I00
sS'visible'
p1759
I01
sS'toggle'
p1760
I01
sS'button_title'
p1761
VWrite on New Filename
p1762
sS'id'
p1763
I4662032696
ssa(dp1764
g41
S"<class 'gpi.widgets.PushButton'>"
p1765
sg43
S'Write Now'
p1766
sg45
(dp1767
S'outport'
p1768
I00
sS'quietval'
p1769
Nsg49
I00
sS'collapsed'
p1770
I00
sS'inport'
p1771
I00
sS'visible'
p1772
I01
sS'toggle'
p1773
I00
sS'button_title'
p1774
VWrite Right Now
p1775
sS'id'
p1776
I4662033456
ssasg81
g50
ssg82
S'None'
p1777
sg43
g84
sg85
(lp1778
F-330.0
aF33.33333333333333
asg87
(lp1779
(dp1780
g90
g91
sg92
I0
sg93
(lp1781
(dp1782
g96
(dp1783
g98
g91
sg99
I4662034216
sg100
I0
sg101
I4662009032
ssg102
(dp1784
g98
g529
sg99
I4478083608
sg100
I0
sg101
I4478038248
ssasg105
Nsg106
I65540
sg107
I100
sg108
I4662034216
sasg109
S'None'
p1785
sg111
g112
sg108
I4662009032
sa(dp1786
g36
(dp1787
g38
(lp1788
(dp1789
g41
S"<class 'gpi.widgets.SaveFileBrowser'>"
p1790
sg43
S'File Browser'
p1791
sg45
(dp1792
S'outport'
p1793
I00
sS'quietval'
p1794
Nsg49
g50
sS'collapsed'
p1795
I00
sS'inport'
p1796
I00
sS'visible'
p1797
I01
sS'id'
p1798
I4661879472
ssa(dp1799
g41
S"<class 'gpi.widgets.PushButton'>"
p1800
sg43
S'Write Mode'
p1801
sg45
(dp1802
S'outport'
p1803
I00
sS'quietval'
p1804
Nsg49
I00
sS'collapsed'
p1805
I00
sS'inport'
p1806
I00
sS'visible'
p1807
I01
sS'toggle'
p1808
I01
sS'button_title'
p1809
VWrite on New Filename
p1810
sS'id'
p1811
I4661880080
ssa(dp1812
g41
S"<class 'gpi.widgets.PushButton'>"
p1813
sg43
S'Write Now'
p1814
sg45
(dp1815
S'outport'
p1816
I00
sS'quietval'
p1817
Nsg49
I00
sS'collapsed'
p1818
I00
sS'inport'
p1819
I00
sS'visible'
p1820
I01
sS'toggle'
p1821
I00
sS'button_title'
p1822
VWrite Right Now
p1823
sS'id'
p1824
I4661880840
ssasg81
g50
ssg82
S'None'
p1825
sg43
g84
sg85
(lp1826
F140.0
aF93.33333333333333
asg87
(lp1827
(dp1828
g90
g91
sg92
I0
sg93
(lp1829
(dp1830
g96
(dp1831
g98
g91
sg99
I4661881600
sg100
I0
sg101
I4661844128
ssg102
(dp1832
g98
g104
sg99
I4478166440
sg100
I0
sg101
I4478138224
ssasg105
Nsg106
I65540
sg107
I100
sg108
I4661881600
sasg109
S'None'
p1833
sg111
g112
sg108
I4661844128
sa(dp1834
g36
(dp1835
g38
(lp1836
(dp1837
g41
S"<class 'gpi.widgets.SaveFileBrowser'>"
p1838
sg43
S'File Browser'
p1839
sg45
(dp1840
S'outport'
p1841
I00
sS'quietval'
p1842
Nsg49
g50
sS'collapsed'
p1843
I00
sS'inport'
p1844
I00
sS'visible'
p1845
I01
sS'id'
p1846
I4477615456
ssa(dp1847
g41
S"<class 'gpi.widgets.StringBox'>"
p1848
sg43
S'set-name'
p1849
sg45
(dp1850
S'maskedval'
p1851
S'x\x9cK/\xc8LI,I\x04\x00\x0b\x81\x02\xdb'
p1852
sS'outport'
p1853
I00
sS'quietval'
p1854
Nsg49
S'gpidata'
p1855
sS'collapsed'
p1856
I00
sS'mask'
p1857
I00
sS'inport'
p1858
I00
sS'visible'
p1859
I01
sS'id'
p1860
I4477644880
ssa(dp1861
g41
S"<class 'gpi.widgets.PushButton'>"
p1862
sg43
S'compress (GZIP)'
p1863
sg45
(dp1864
S'outport'
p1865
I00
sS'quietval'
p1866
Nsg49
I00
sS'collapsed'
p1867
I00
sS'inport'
p1868
I00
sS'visible'
p1869
I01
sS'toggle'
p1870
I01
sS'button_title'
p1871
g471
sS'id'
p1872
I4477645336
ssa(dp1873
g41
S"<class 'gpi.widgets.PushButton'>"
p1874
sg43
S'Write Mode'
p1875
sg45
(dp1876
S'outport'
p1877
I00
sS'quietval'
p1878
Nsg49
I00
sS'collapsed'
p1879
I00
sS'inport'
p1880
I00
sS'visible'
p1881
I01
sS'toggle'
p1882
I01
sS'button_title'
p1883
VWrite on New Filename
p1884
sS'id'
p1885
I4477646096
ssa(dp1886
g41
S"<class 'gpi.widgets.PushButton'>"
p1887
sg43
S'Write Now'
p1888
sg45
(dp1889
S'outport'
p1890
I00
sS'quietval'
p1891
Nsg49
I00
sS'collapsed'
p1892
I00
sS'inport'
p1893
I00
sS'visible'
p1894
I01
sS'toggle'
p1895
I00
sS'button_title'
p1896
VWrite Right Now
p1897
sS'id'
p1898
I4477646856
ssasg81
g50
ssg82
S'None'
p1899
sg43
g1148
sg85
(lp1900
F45.0
aF3.3333333333333286
asg87
(lp1901
(dp1902
g90
g91
sg92
I0
sg93
(lp1903
(dp1904
g96
(dp1905
g98
g91
sg99
I4477647616
sg100
I0
sg101
I4477613024
ssg102
(dp1906
g98
g104
sg99
I4639924912
sg100
I0
sg101
I4639804768
ssasg105
Nsg106
I65540
sg107
I100
sg108
I4477647616
sasg109
S'None'
p1907
sg111
g1157
sg108
I4477613024
sa(dp1908
g36
(dp1909
g38
(lp1910
(dp1911
g41
S"<class 'gpi.widgets.SaveFileBrowser'>"
p1912
sg43
S'File Browser'
p1913
sg45
(dp1914
S'outport'
p1915
I00
sS'quietval'
p1916
Nsg49
g50
sS'collapsed'
p1917
I00
sS'inport'
p1918
I00
sS'visible'
p1919
I01
sS'id'
p1920
I4639401536
ssa(dp1921
g41
S"<class 'gpi.widgets.PushButton'>"
p1922
sg43
S'Write Mode'
p1923
sg45
(dp1924
S'outport'
p1925
I00
sS'quietval'
p1926
Nsg49
I00
sS'collapsed'
p1927
I00
sS'inport'
p1928
I00
sS'visible'
p1929
I01
sS'toggle'
p1930
I01
sS'button_title'
p1931
VWrite on New Filename
p1932
sS'id'
p1933
I4639402144
ssa(dp1934
g41
S"<class 'gpi.widgets.PushButton'>"
p1935
sg43
S'Write Now'
p1936
sg45
(dp1937
S'outport'
p1938
I00
sS'quietval'
p1939
Nsg49
I00
sS'collapsed'
p1940
I00
sS'inport'
p1941
I00
sS'visible'
p1942
I01
sS'toggle'
p1943
I00
sS'button_title'
p1944
VWrite Right Now
p1945
sS'id'
p1946
I4639402904
ssasg81
g50
ssg82
S'None'
p1947
sg43
g269
sg85
(lp1948
F45.0
aF33.33333333333333
asg87
(lp1949
(dp1950
g90
g91
sg92
I0
sg93
(lp1951
(dp1952
g96
(dp1953
g98
g91
sg99
I4639403664
sg100
I0
sg101
I4639530032
ssg102
(dp1954
g98
g104
sg99
I4639924912
sg100
I0
sg101
I4639804768
ssasg105
Nsg106
I65540
sg107
I100
sg108
I4639403664
sasg109
S'None'
p1955
sg111
g278
sg108
I4639530032
sa(dp1956
g36
(dp1957
g38
(lp1958
(dp1959
g41
S"<class 'gpi.widgets.SaveFileBrowser'>"
p1960
sg43
S'File Browser'
p1961
sg45
(dp1962
S'outport'
p1963
I00
sS'quietval'
p1964
Nsg49
g50
sS'collapsed'
p1965
I00
sS'inport'
p1966
I00
sS'visible'
p1967
I01
sS'id'
p1968
I4661382648
ssa(dp1969
g41
S"<class 'gpi.widgets.PushButton'>"
p1970
sg43
S'Write Mode'
p1971
sg45
(dp1972
S'outport'
p1973
I00
sS'quietval'
p1974
Nsg49
I00
sS'collapsed'
p1975
I00
sS'inport'
p1976
I00
sS'visible'
p1977
I01
sS'toggle'
p1978
I01
sS'button_title'
p1979
VWrite on New Filename
p1980
sS'id'
p1981
I4661399784
ssa(dp1982
g41
S"<class 'gpi.widgets.PushButton'>"
p1983
sg43
S'Write Now'
p1984
sg45
(dp1985
S'outport'
p1986
I00
sS'quietval'
p1987
Nsg49
I00
sS'collapsed'
p1988
I00
sS'inport'
p1989
I00
sS'visible'
p1990
I01
sS'toggle'
p1991
I00
sS'button_title'
p1992
VWrite Right Now
p1993
sS'id'
p1994
I4661400544
ssasg81
g50
ssg82
S'None'
p1995
sg43
g153
sg85
(lp1996
F-140.0
aF3.3333333333333286
asg87
(lp1997
(dp1998
g90
g91
sg92
I0
sg93
(lp1999
(dp2000
g96
(dp2001
g98
g91
sg99
I4661401304
sg100
I0
sg101
I4661380216
ssg102
(dp2002
g98
g104
sg99
I4477995928
sg100
I0
sg101
I4574751944
ssasg105
Nsg106
I65540
sg107
I100
sg108
I4661401304
sasg109
S'None'
p2003
sg111
g162
sg108
I4661380216
sa(dp2004
g36
(dp2005
g38
(lp2006
(dp2007
g41
S"<class 'gpi.widgets.SaveFileBrowser'>"
p2008
sg43
S'File Browser'
p2009
sg45
(dp2010
S'outport'
p2011
I00
sS'quietval'
p2012
Nsg49
g50
sS'collapsed'
p2013
I00
sS'inport'
p2014
I00
sS'visible'
p2015
I01
sS'id'
p2016
I4477586936
ssa(dp2017
g41
S"<class 'gpi.widgets.StringBox'>"
p2018
sg43
S'set-name'
p2019
sg45
(dp2020
S'maskedval'
p2021
S'x\x9cK/\xc8LI,I\x04\x00\x0b\x81\x02\xdb'
p2022
sS'outport'
p2023
I00
sS'quietval'
p2024
Nsg49
S'gpidata'
p2025
sS'collapsed'
p2026
I00
sS'mask'
p2027
I00
sS'inport'
p2028
I00
sS'visible'
p2029
I01
sS'id'
p2030
I4477604072
ssa(dp2031
g41
S"<class 'gpi.widgets.PushButton'>"
p2032
sg43
S'compress (GZIP)'
p2033
sg45
(dp2034
S'outport'
p2035
I00
sS'quietval'
p2036
Nsg49
I00
sS'collapsed'
p2037
I00
sS'inport'
p2038
I00
sS'visible'
p2039
I01
sS'toggle'
p2040
I01
sS'button_title'
p2041
g471
sS'id'
p2042
I4477604528
ssa(dp2043
g41
S"<class 'gpi.widgets.PushButton'>"
p2044
sg43
S'Write Mode'
p2045
sg45
(dp2046
S'outport'
p2047
I00
sS'quietval'
p2048
Nsg49
I00
sS'collapsed'
p2049
I00
sS'inport'
p2050
I00
sS'visible'
p2051
I01
sS'toggle'
p2052
I01
sS'button_title'
p2053
VWrite on New Filename
p2054
sS'id'
p2055
I4477605288
ssa(dp2056
g41
S"<class 'gpi.widgets.PushButton'>"
p2057
sg43
S'Write Now'
p2058
sg45
(dp2059
S'outport'
p2060
I00
sS'quietval'
p2061
Nsg49
I00
sS'collapsed'
p2062
I00
sS'inport'
p2063
I00
sS'visible'
p2064
I01
sS'toggle'
p2065
I00
sS'button_title'
p2066
VWrite Right Now
p2067
sS'id'
p2068
I4477606048
ssasg81
g50
ssg82
S'None'
p2069
sg43
g1148
sg85
(lp2070
F140.0
aF-26.66666666666667
asg87
(lp2071
(dp2072
g90
g91
sg92
I0
sg93
(lp2073
(dp2074
g96
(dp2075
g98
g91
sg99
I4477606808
sg100
I0
sg101
I4477584504
ssg102
(dp2076
g98
g104
sg99
I4478166440
sg100
I0
sg101
I4478138224
ssasg105
Nsg106
I65540
sg107
I100
sg108
I4477606808
sasg109
S'None'
p2077
sg111
g1157
sg108
I4477584504
sa(dp2078
g36
(dp2079
g38
(lp2080
(dp2081
g41
S"<class 'gpi.widgets.SaveFileBrowser'>"
p2082
sg43
S'File Browser'
p2083
sg45
(dp2084
S'outport'
p2085
I00
sS'quietval'
p2086
Nsg49
g50
sS'collapsed'
p2087
I00
sS'inport'
p2088
I00
sS'visible'
p2089
I01
sS'id'
p2090
I4662000688
ssa(dp2091
g41
S"<class 'gpi.widgets.PushButton'>"
p2092
sg43
S'Write Mode'
p2093
sg45
(dp2094
S'outport'
p2095
I00
sS'quietval'
p2096
Nsg49
I00
sS'collapsed'
p2097
I00
sS'inport'
p2098
I00
sS'visible'
p2099
I01
sS'toggle'
p2100
I01
sS'button_title'
p2101
VWrite on New Filename
p2102
sS'id'
p2103
I4662001296
ssa(dp2104
g41
S"<class 'gpi.widgets.PushButton'>"
p2105
sg43
S'Write Now'
p2106
sg45
(dp2107
S'outport'
p2108
I00
sS'quietval'
p2109
Nsg49
I00
sS'collapsed'
p2110
I00
sS'inport'
p2111
I00
sS'visible'
p2112
I01
sS'toggle'
p2113
I00
sS'button_title'
p2114
VWrite Right Now
p2115
sS'id'
p2116
I4662006296
ssasg81
g50
ssg82
S'None'
p2117
sg43
g84
sg85
(lp2118
F-235.0
aF33.33333333333333
asg87
(lp2119
(dp2120
g90
g91
sg92
I0
sg93
(lp2121
(dp2122
g96
(dp2123
g98
g91
sg99
I4662007056
sg100
I0
sg101
I4661998256
ssg102
(dp2124
g98
g104
sg99
I4478035824
sg100
I0
sg101
I4478002752
ssasg105
Nsg106
I65540
sg107
I100
sg108
I4662007056
sasg109
S'None'
p2125
sg111
g112
sg108
I4661998256
sa(dp2126
g36
(dp2127
g38
(lp2128
(dp2129
g41
S"<class 'gpi.widgets.TextBox'>"
p2130
sg43
S'I/O Info:'
p2131
sg45
(dp2132
S'outport'
p2133
I00
sS'quietval'
p2134
Nsg49
g50
sS'collapsed'
p2135
I00
sS'inport'
p2136
I00
sS'visible'
p2137
I01
sS'wordwrap'
p2138
I00
sS'id'
p2139
I4478165376
ssa(dp2140
g41
S"<class 'gpi.widgets.OpenFileBrowser'>"
p2141
sg43
S'File Browser'
p2142
sg45
(dp2143
S'outport'
p2144
I00
sS'quietval'
p2145
Nsg49
g50
sS'collapsed'
p2146
I00
sS'inport'
p2147
I00
sS'visible'
p2148
I01
sS'id'
p2149
I4478165832
ssasg81
g50
ssg82
S'0.0983319282532'
p2150
sg43
S'ReadPickled'
p2151
sg85
(lp2152
F140.0
aF-86.66666666666667
asg87
(lp2153
(dp2154
g90
g104
sg92
I0
sg93
(lp2155
(dp2156
g96
(dp2157
g98
g91
sg99
I4639528056
sg100
I0
sg101
I4639506664
ssg102
(dp2158
g98
g104
sg99
I4478166440
sg100
I0
sg101
I4478138224
ssa(dp2159
g96
(dp2160
g98
g91
sg99
I4477606808
sg100
I0
sg101
I4477584504
ssg102
(dp2161
g98
g104
sg99
I4478166440
sg100
I0
sg101
I4478138224
ssa(dp2162
g96
(dp2163
g98
g91
sg99
I4643216888
sg100
I0
sg101
I4643195800
ssg102
(dp2164
g98
g104
sg99
I4478166440
sg100
I0
sg101
I4478138224
ssa(dp2165
g96
(dp2166
g98
g91
sg99
I4661299056
sg100
I0
sg101
I4661273872
ssg102
(dp2167
g98
g104
sg99
I4478166440
sg100
I0
sg101
I4478138224
ssa(dp2168
g96
(dp2169
g98
g91
sg99
I4661881600
sg100
I0
sg101
I4661844128
ssg102
(dp2170
g98
g104
sg99
I4478166440
sg100
I0
sg101
I4478138224
ssa(dp2171
g96
(dp2172
g98
g91
sg99
I4662165136
sg100
I0
sg101
I4662139952
ssg102
(dp2173
g98
g104
sg99
I4478166440
sg100
I0
sg101
I4478138224
ssasg105
Nsg106
I65541
sg107
Nsg108
I4478166440
sasg109
S'0.0'
p2174
sg111
S'core.fileIO.ReadPickled'
p2175
sg108
I4478138224
sg227
S'0.0983319282532'
p2176
sa(dp2177
g36
(dp2178
g38
(lp2179
(dp2180
g41
S"<class 'gpi.widgets.TextBox'>"
p2181
sg43
S'I/O Info:'
p2182
sg45
(dp2183
S'outport'
p2184
I00
sS'quietval'
p2185
Nsg49
g50
sS'collapsed'
p2186
I00
sS'inport'
p2187
I00
sS'visible'
p2188
I01
sS'wordwrap'
p2189
I00
sS'id'
p2190
I4477993344
ssa(dp2191
g41
S"<class 'gpi.widgets.OpenFileBrowser'>"
p2192
sg43
S'File Browser'
p2193
sg45
(dp2194
S'outport'
p2195
I00
sS'quietval'
p2196
Nsg49
g50
sS'collapsed'
p2197
I00
sS'inport'
p2198
I00
sS'visible'
p2199
I01
sS'id'
p2200
I4477993800
ssa(dp2201
g41
S"<class 'gpi.widgets.PushButton'>"
p2202
sg43
S'Gray Scale'
p2203
sg45
(dp2204
S'outport'
p2205
I00
sS'quietval'
p2206
Nsg49
I00
sS'collapsed'
p2207
I00
sS'inport'
p2208
I00
sS'visible'
p2209
I01
sS'toggle'
p2210
I01
sS'button_title'
p2211
g471
sS'id'
p2212
I4477994408
ssa(dp2213
g41
S"<class 'gpi.widgets.PushButton'>"
p2214
sg43
S'Swap Colors (RGB -> BGR)'
p2215
sg45
(dp2216
S'outport'
p2217
I00
sS'quietval'
p2218
Nsg49
I00
sS'collapsed'
p2219
I00
sS'inport'
p2220
I00
sS'visible'
p2221
I01
sS'toggle'
p2222
I01
sS'button_title'
p2223
VRGB
p2224
sS'id'
p2225
I4477995168
ssasg81
g50
ssg82
S'0.0973980426788'
p2226
sg43
S'ReadImage'
p2227
sg85
(lp2228
F-140.0
aF-86.66666666666667
asg87
(lp2229
(dp2230
g90
g104
sg92
I0
sg93
(lp2231
(dp2232
g96
(dp2233
g98
g91
sg99
I4639802792
sg100
I0
sg101
I4639481640
ssg102
(dp2234
g98
g104
sg99
I4477995928
sg100
I0
sg101
I4574751944
ssa(dp2235
g96
(dp2236
g98
g91
sg99
I4477525344
sg100
I0
sg101
I4477494848
ssg102
(dp2237
g98
g104
sg99
I4477995928
sg100
I0
sg101
I4574751944
ssa(dp2238
g96
(dp2239
g98
g91
sg99
I4643315040
sg100
I0
sg101
I4643285760
ssg102
(dp2240
g98
g104
sg99
I4477995928
sg100
I0
sg101
I4574751944
ssa(dp2241
g96
(dp2242
g98
g91
sg99
I4661401304
sg100
I0
sg101
I4661380216
ssg102
(dp2243
g98
g104
sg99
I4477995928
sg100
I0
sg101
I4574751944
ssa(dp2244
g96
(dp2245
g98
g91
sg99
I4661971560
sg100
I0
sg101
I4661946376
ssg102
(dp2246
g98
g104
sg99
I4477995928
sg100
I0
sg101
I4574751944
ssa(dp2247
g96
(dp2248
g98
g91
sg99
I4662259192
sg100
I0
sg101
I4662225816
ssg102
(dp2249
g98
g104
sg99
I4477995928
sg100
I0
sg101
I4574751944
ssasg105
Nsg106
I65541
sg107
Nsg108
I4477995928
sasg109
S'0.0'
p2250
sg111
S'core.fileIO.ReadImage'
p2251
sg108
I4574751944
sg227
S'0.0973980426788'
p2252
sa(dp2253
g36
(dp2254
g38
(lp2255
(dp2256
g41
S"<class 'gpi.widgets.SaveFileBrowser'>"
p2257
sg43
S'File Browser'
p2258
sg45
(dp2259
S'outport'
p2260
I00
sS'quietval'
p2261
Nsg49
g50
sS'collapsed'
p2262
I00
sS'inport'
p2263
I00
sS'visible'
p2264
I01
sS'id'
p2265
I4643277416
ssa(dp2266
g41
S"<class 'gpi.widgets.PushButton'>"
p2267
sg43
S'Write Mode'
p2268
sg45
(dp2269
S'outport'
p2270
I00
sS'quietval'
p2271
Nsg49
I00
sS'collapsed'
p2272
I00
sS'inport'
p2273
I00
sS'visible'
p2274
I01
sS'toggle'
p2275
I01
sS'button_title'
p2276
VWrite on New Filename
p2277
sS'id'
p2278
I4643278024
ssa(dp2279
g41
S"<class 'gpi.widgets.PushButton'>"
p2280
sg43
S'Write Now'
p2281
sg45
(dp2282
S'outport'
p2283
I00
sS'quietval'
p2284
Nsg49
I00
sS'collapsed'
p2285
I00
sS'inport'
p2286
I00
sS'visible'
p2287
I01
sS'toggle'
p2288
I00
sS'button_title'
p2289
VWrite Right Now
p2290
sS'id'
p2291
I4643283024
ssasg81
g50
ssg82
S'None'
p2292
sg43
g651
sg85
(lp2293
F-45.0
aF-56.66666666666667
asg87
(lp2294
(dp2295
g90
g91
sg92
I0
sg93
(lp2296
(dp2297
g96
(dp2298
g98
g91
sg99
I4643283784
sg100
I0
sg101
I4643274984
ssg102
(dp2299
g98
g104
sg99
I4477963616
sg100
I0
sg101
I4639927648
ssasg105
Nsg106
I65540
sg107
I100
sg108
I4643283784
sasg109
S'None'
p2300
sg111
g660
sg108
I4643274984
sa(dp2301
g36
(dp2302
g38
(lp2303
(dp2304
g41
S"<class 'gpi.widgets.SaveFileBrowser'>"
p2305
sg43
S'File Browser'
p2306
sg45
(dp2307
S'outport'
p2308
I00
sS'quietval'
p2309
Nsg49
g50
sS'collapsed'
p2310
I00
sS'inport'
p2311
I00
sS'visible'
p2312
I01
sS'id'
p2313
I4477554320
ssa(dp2314
g41
S"<class 'gpi.widgets.StringBox'>"
p2315
sg43
S'set-name'
p2316
sg45
(dp2317
S'maskedval'
p2318
S'x\x9cK/\xc8LI,I\x04\x00\x0b\x81\x02\xdb'
p2319
sS'outport'
p2320
I00
sS'quietval'
p2321
Nsg49
S'gpidata'
p2322
sS'collapsed'
p2323
I00
sS'mask'
p2324
I00
sS'inport'
p2325
I00
sS'visible'
p2326
I01
sS'id'
p2327
I4477571456
ssa(dp2328
g41
S"<class 'gpi.widgets.PushButton'>"
p2329
sg43
S'compress (GZIP)'
p2330
sg45
(dp2331
S'outport'
p2332
I00
sS'quietval'
p2333
Nsg49
I00
sS'collapsed'
p2334
I00
sS'inport'
p2335
I00
sS'visible'
p2336
I01
sS'toggle'
p2337
I01
sS'button_title'
p2338
g471
sS'id'
p2339
I4477571912
ssa(dp2340
g41
S"<class 'gpi.widgets.PushButton'>"
p2341
sg43
S'Write Mode'
p2342
sg45
(dp2343
S'outport'
p2344
I00
sS'quietval'
p2345
Nsg49
I00
sS'collapsed'
p2346
I00
sS'inport'
p2347
I00
sS'visible'
p2348
I01
sS'toggle'
p2349
I01
sS'button_title'
p2350
VWrite on New Filename
p2351
sS'id'
p2352
I4477572672
ssa(dp2353
g41
S"<class 'gpi.widgets.PushButton'>"
p2354
sg43
S'Write Now'
p2355
sg45
(dp2356
S'outport'
p2357
I00
sS'quietval'
p2358
Nsg49
I00
sS'collapsed'
p2359
I00
sS'inport'
p2360
I00
sS'visible'
p2361
I01
sS'toggle'
p2362
I00
sS'button_title'
p2363
VWrite Right Now
p2364
sS'id'
p2365
I4477573432
ssasg81
g50
ssg82
S'None'
p2366
sg43
g1148
sg85
(lp2367
F235.0
aF93.33333333333333
asg87
(lp2368
(dp2369
g90
g91
sg92
I0
sg93
(lp2370
(dp2371
g96
(dp2372
g98
g91
sg99
I4477574192
sg100
I0
sg101
I4477551888
ssg102
(dp2373
g98
g104
sg99
I4478213320
sg100
I0
sg101
I4478189648
ssasg105
Nsg106
I65540
sg107
I100
sg108
I4477574192
sasg109
S'None'
p2374
sg111
g1157
sg108
I4477551888
sa(dp2375
g36
(dp2376
g38
(lp2377
(dp2378
g41
S"<class 'gpi.widgets.SaveFileBrowser'>"
p2379
sg43
S'File Browser'
p2380
sg45
(dp2381
S'outport'
p2382
I00
sS'quietval'
p2383
Nsg49
g50
sS'collapsed'
p2384
I00
sS'inport'
p2385
I00
sS'visible'
p2386
I01
sS'id'
p2387
I4662111128
ssa(dp2388
g41
S"<class 'gpi.widgets.PushButton'>"
p2389
sg43
S'Write Mode'
p2390
sg45
(dp2391
S'outport'
p2392
I00
sS'quietval'
p2393
Nsg49
I00
sS'collapsed'
p2394
I00
sS'inport'
p2395
I00
sS'visible'
p2396
I01
sS'toggle'
p2397
I01
sS'button_title'
p2398
VWrite on New Filename
p2399
sS'id'
p2400
I4662111736
ssa(dp2401
g41
S"<class 'gpi.widgets.PushButton'>"
p2402
sg43
S'Write Now'
p2403
sg45
(dp2404
S'outport'
p2405
I00
sS'quietval'
p2406
Nsg49
I00
sS'collapsed'
p2407
I00
sS'inport'
p2408
I00
sS'visible'
p2409
I01
sS'toggle'
p2410
I00
sS'button_title'
p2411
VWrite Right Now
p2412
sS'id'
p2413
I4662137216
ssasg81
g50
ssg82
S'None'
p2414
sg43
g601
sg85
(lp2415
F235.0
aF-56.66666666666667
asg87
(lp2416
(dp2417
g90
g91
sg92
I0
sg93
(lp2418
(dp2419
g96
(dp2420
g98
g91
sg99
I4662137976
sg100
I0
sg101
I4662108696
ssg102
(dp2421
g98
g104
sg99
I4478213320
sg100
I0
sg101
I4478189648
ssasg105
Nsg106
I65540
sg107
I100
sg108
I4662137976
sasg109
S'None'
p2422
sg111
g610
sg108
I4662108696
sa(dp2423
g36
(dp2424
g38
(lp2425
(dp2426
g41
S"<class 'gpi.widgets.SaveFileBrowser'>"
p2427
sg43
S'File Browser'
p2428
sg45
(dp2429
S'outport'
p2430
I00
sS'quietval'
p2431
Nsg49
g50
sS'collapsed'
p2432
I00
sS'inport'
p2433
I00
sS'visible'
p2434
I01
sS'id'
p2435
I4639509704
ssa(dp2436
g41
S"<class 'gpi.widgets.PushButton'>"
p2437
sg43
S'Write Mode'
p2438
sg45
(dp2439
S'outport'
p2440
I00
sS'quietval'
p2441
Nsg49
I00
sS'collapsed'
p2442
I00
sS'inport'
p2443
I00
sS'visible'
p2444
I01
sS'toggle'
p2445
I01
sS'button_title'
p2446
VWrite on New Filename
p2447
sS'id'
p2448
I4639508032
ssa(dp2449
g41
S"<class 'gpi.widgets.PushButton'>"
p2450
sg43
S'Write Now'
p2451
sg45
(dp2452
S'outport'
p2453
I00
sS'quietval'
p2454
Nsg49
I00
sS'collapsed'
p2455
I00
sS'inport'
p2456
I00
sS'visible'
p2457
I01
sS'toggle'
p2458
I00
sS'button_title'
p2459
VWrite Right Now
p2460
sS'id'
p2461
I4639527296
ssasg81
g50
ssg82
S'None'
p2462
sg43
g269
sg85
(lp2463
F140.0
aF63.33333333333333
asg87
(lp2464
(dp2465
g90
g91
sg92
I0
sg93
(lp2466
(dp2467
g96
(dp2468
g98
g91
sg99
I4639528056
sg100
I0
sg101
I4639506664
ssg102
(dp2469
g98
g104
sg99
I4478166440
sg100
I0
sg101
I4478138224
ssasg105
Nsg106
I65540
sg107
I100
sg108
I4639528056
sasg109
S'None'
p2470
sg111
g278
sg108
I4639506664
sa(dp2471
g36
(dp2472
g38
(lp2473
(dp2474
g41
S"<class 'gpi.widgets.TextBox'>"
p2475
sg43
S'I/O Info:'
p2476
sg45
(dp2477
S'outport'
p2478
I00
sS'quietval'
p2479
Nsg49
g50
sS'collapsed'
p2480
I00
sS'inport'
p2481
I00
sS'visible'
p2482
I01
sS'wordwrap'
p2483
I00
sS'id'
p2484
I4639923704
ssa(dp2485
g41
S"<class 'gpi.widgets.OpenFileBrowser'>"
p2486
sg43
S'File Browser'
p2487
sg45
(dp2488
S'outport'
p2489
I00
sS'quietval'
p2490
Nsg49
g50
sS'collapsed'
p2491
I00
sS'inport'
p2492
I00
sS'visible'
p2493
I01
sS'id'
p2494
I4639924304
ssasg81
g50
ssg82
S'0.0884640216827'
p2495
sg43
S'ReadCSV'
p2496
sg85
(lp2497
F45.0
aF-86.66666666666667
asg87
(lp2498
(dp2499
g90
g104
sg92
I0
sg93
(lp2500
(dp2501
g96
(dp2502
g98
g91
sg99
I4639403664
sg100
I0
sg101
I4639530032
ssg102
(dp2503
g98
g104
sg99
I4639924912
sg100
I0
sg101
I4639804768
ssa(dp2504
g96
(dp2505
g98
g91
sg99
I4477647616
sg100
I0
sg101
I4477613024
ssg102
(dp2506
g98
g104
sg99
I4639924912
sg100
I0
sg101
I4639804768
ssa(dp2507
g96
(dp2508
g98
g91
sg99
I4643252384
sg100
I0
sg101
I4643223104
ssg102
(dp2509
g98
g104
sg99
I4639924912
sg100
I0
sg101
I4639804768
ssa(dp2510
g96
(dp2511
g98
g91
sg99
I4661346840
sg100
I0
sg101
I4661301032
ssg102
(dp2512
g98
g104
sg99
I4639924912
sg100
I0
sg101
I4639804768
ssa(dp2513
g96
(dp2514
g98
g91
sg99
I4661913000
sg100
I0
sg101
I4661908296
ssg102
(dp2515
g98
g104
sg99
I4639924912
sg100
I0
sg101
I4639804768
ssa(dp2516
g96
(dp2517
g98
g91
sg99
I4662171960
sg100
I0
sg101
I4662167256
ssg102
(dp2518
g98
g104
sg99
I4639924912
sg100
I0
sg101
I4639804768
ssasg105
Nsg106
I65541
sg107
Nsg108
I4639924912
sasg109
S'0.0'
p2519
sg111
S'core.fileIO.ReadCSV'
p2520
sg108
I4639804768
sg227
S'0.0884640216827'
p2521
sa(dp2522
g36
(dp2523
g38
(lp2524
(dp2525
g41
S"<class 'gpi.widgets.SaveFileBrowser'>"
p2526
sg43
S'File Browser'
p2527
sg45
(dp2528
S'outport'
p2529
I00
sS'quietval'
p2530
Nsg49
g50
sS'collapsed'
p2531
I00
sS'inport'
p2532
I00
sS'visible'
p2533
I01
sS'id'
p2534
I4643214760
ssa(dp2535
g41
S"<class 'gpi.widgets.PushButton'>"
p2536
sg43
S'Write Mode'
p2537
sg45
(dp2538
S'outport'
p2539
I00
sS'quietval'
p2540
Nsg49
I00
sS'collapsed'
p2541
I00
sS'inport'
p2542
I00
sS'visible'
p2543
I01
sS'toggle'
p2544
I01
sS'button_title'
p2545
VWrite on New Filename
p2546
sS'id'
p2547
I4643215368
ssa(dp2548
g41
S"<class 'gpi.widgets.PushButton'>"
p2549
sg43
S'Write Now'
p2550
sg45
(dp2551
S'outport'
p2552
I00
sS'quietval'
p2553
Nsg49
I00
sS'collapsed'
p2554
I00
sS'inport'
p2555
I00
sS'visible'
p2556
I01
sS'toggle'
p2557
I00
sS'button_title'
p2558
VWrite Right Now
p2559
sS'id'
p2560
I4643216128
ssasg81
g50
ssg82
S'None'
p2561
sg43
g651
sg85
(lp2562
F140.0
aF-56.66666666666667
asg87
(lp2563
(dp2564
g90
g91
sg92
I0
sg93
(lp2565
(dp2566
g96
(dp2567
g98
g91
sg99
I4643216888
sg100
I0
sg101
I4643195800
ssg102
(dp2568
g98
g104
sg99
I4478166440
sg100
I0
sg101
I4478138224
ssasg105
Nsg106
I65540
sg107
I100
sg108
I4643216888
sasg109
S'None'
p2569
sg111
g660
sg108
I4643195800
sa(dp2570
g36
(dp2571
g38
(lp2572
(dp2573
g41
S"<class 'gpi.widgets.SaveFileBrowser'>"
p2574
sg43
S'File Browser'
p2575
sg45
(dp2576
S'outport'
p2577
I00
sS'quietval'
p2578
Nsg49
g50
sS'collapsed'
p2579
I00
sS'inport'
p2580
I00
sS'visible'
p2581
I01
sS'id'
p2582
I4477522000
ssa(dp2583
g41
S"<class 'gpi.widgets.StringBox'>"
p2584
sg43
S'set-name'
p2585
sg45
(dp2586
S'maskedval'
p2587
S'x\x9cK/\xc8LI,I\x04\x00\x0b\x81\x02\xdb'
p2588
sS'outport'
p2589
I00
sS'quietval'
p2590
Nsg49
S'gpidata'
p2591
sS'collapsed'
p2592
I00
sS'mask'
p2593
I00
sS'inport'
p2594
I00
sS'visible'
p2595
I01
sS'id'
p2596
I4477522608
ssa(dp2597
g41
S"<class 'gpi.widgets.PushButton'>"
p2598
sg43
S'compress (GZIP)'
p2599
sg45
(dp2600
S'outport'
p2601
I00
sS'quietval'
p2602
Nsg49
I00
sS'collapsed'
p2603
I00
sS'inport'
p2604
I00
sS'visible'
p2605
I01
sS'toggle'
p2606
I01
sS'button_title'
p2607
g471
sS'id'
p2608
I4477523064
ssa(dp2609
g41
S"<class 'gpi.widgets.PushButton'>"
p2610
sg43
S'Write Mode'
p2611
sg45
(dp2612
S'outport'
p2613
I00
sS'quietval'
p2614
Nsg49
I00
sS'collapsed'
p2615
I00
sS'inport'
p2616
I00
sS'visible'
p2617
I01
sS'toggle'
p2618
I01
sS'button_title'
p2619
VWrite on New Filename
p2620
sS'id'
p2621
I4477523824
ssa(dp2622
g41
S"<class 'gpi.widgets.PushButton'>"
p2623
sg43
S'Write Now'
p2624
sg45
(dp2625
S'outport'
p2626
I00
sS'quietval'
p2627
Nsg49
I00
sS'collapsed'
p2628
I00
sS'inport'
p2629
I00
sS'visible'
p2630
I01
sS'toggle'
p2631
I00
sS'button_title'
p2632
VWrite Right Now
p2633
sS'id'
p2634
I4477524584
ssasg81
g50
ssg82
S'None'
p2635
sg43
g1148
sg85
(lp2636
F-140.0
aF-26.66666666666667
asg87
(lp2637
(dp2638
g90
g91
sg92
I0
sg93
(lp2639
(dp2640
g96
(dp2641
g98
g91
sg99
I4477525344
sg100
I0
sg101
I4477494848
ssg102
(dp2642
g98
g104
sg99
I4477995928
sg100
I0
sg101
I4574751944
ssasg105
Nsg106
I65540
sg107
I100
sg108
I4477525344
sasg109
S'None'
p2643
sg111
g1157
sg108
I4477494848
sa(dp2644
g36
(dp2645
g38
(lp2646
(dp2647
g41
S"<class 'gpi.widgets.SaveFileBrowser'>"
p2648
sg43
S'File Browser'
p2649
sg45
(dp2650
S'outport'
p2651
I00
sS'quietval'
p2652
Nsg49
g50
sS'collapsed'
p2653
I00
sS'inport'
p2654
I00
sS'visible'
p2655
I01
sS'id'
p2656
I4477529896
ssa(dp2657
g41
S"<class 'gpi.widgets.StringBox'>"
p2658
sg43
S'set-name'
p2659
sg45
(dp2660
S'maskedval'
p2661
S'x\x9cK/\xc8LI,I\x04\x00\x0b\x81\x02\xdb'
p2662
sS'outport'
p2663
I00
sS'quietval'
p2664
Nsg49
S'gpidata'
p2665
sS'collapsed'
p2666
I00
sS'mask'
p2667
I00
sS'inport'
p2668
I00
sS'visible'
p2669
I01
sS'id'
p2670
I4477542936
ssa(dp2671
g41
S"<class 'gpi.widgets.PushButton'>"
p2672
sg43
S'compress (GZIP)'
p2673
sg45
(dp2674
S'outport'
p2675
I00
sS'quietval'
p2676
Nsg49
I00
sS'collapsed'
p2677
I00
sS'inport'
p2678
I00
sS'visible'
p2679
I01
sS'toggle'
p2680
I01
sS'button_title'
p2681
g471
sS'id'
p2682
I4477543392
ssa(dp2683
g41
S"<class 'gpi.widgets.PushButton'>"
p2684
sg43
S'Write Mode'
p2685
sg45
(dp2686
S'outport'
p2687
I00
sS'quietval'
p2688
Nsg49
I00
sS'collapsed'
p2689
I00
sS'inport'
p2690
I00
sS'visible'
p2691
I01
sS'toggle'
p2692
I01
sS'button_title'
p2693
VWrite on New Filename
p2694
sS'id'
p2695
I4477544152
ssa(dp2696
g41
S"<class 'gpi.widgets.PushButton'>"
p2697
sg43
S'Write Now'
p2698
sg45
(dp2699
S'outport'
p2700
I00
sS'quietval'
p2701
Nsg49
I00
sS'collapsed'
p2702
I00
sS'inport'
p2703
I00
sS'visible'
p2704
I01
sS'toggle'
p2705
I00
sS'button_title'
p2706
VWrite Right Now
p2707
sS'id'
p2708
I4477544912
ssasg81
g50
ssg82
S'None'
p2709
sg43
g1148
sg85
(lp2710
F330.0
aF33.33333333333333
asg87
(lp2711
(dp2712
g90
g91
sg92
I0
sg93
(lp2713
(dp2714
g96
(dp2715
g98
g91
sg99
I4477545672
sg100
I0
sg101
I4477527464
ssg102
(dp2716
g98
g104
sg99
I4478131400
sg100
I0
sg101
I4478086800
ssasg105
Nsg106
I65540
sg107
I100
sg108
I4477545672
sasg109
S'None'
p2717
sg111
g1157
sg108
I4477527464
sa(dp2718
g36
(dp2719
g38
(lp2720
(dp2721
g41
S"<class 'gpi.widgets.SaveFileBrowser'>"
p2722
sg43
S'File Browser'
p2723
sg45
(dp2724
S'outport'
p2725
I00
sS'quietval'
p2726
Nsg49
g50
sS'collapsed'
p2727
I00
sS'inport'
p2728
I00
sS'visible'
p2729
I01
sS'id'
p2730
I4662319720
ssa(dp2731
g41
S"<class 'gpi.widgets.PushButton'>"
p2732
sg43
S'Write Mode'
p2733
sg45
(dp2734
S'outport'
p2735
I00
sS'quietval'
p2736
Nsg49
I00
sS'collapsed'
p2737
I00
sS'inport'
p2738
I00
sS'visible'
p2739
I01
sS'toggle'
p2740
I01
sS'button_title'
p2741
VWrite on New Filename
p2742
sS'id'
p2743
I4662320328
ssa(dp2744
g41
S"<class 'gpi.widgets.PushButton'>"
p2745
sg43
S'Write Now'
p2746
sg45
(dp2747
S'outport'
p2748
I00
sS'quietval'
p2749
Nsg49
I00
sS'collapsed'
p2750
I00
sS'inport'
p2751
I00
sS'visible'
p2752
I01
sS'toggle'
p2753
I00
sS'button_title'
p2754
VWrite Right Now
p2755
sS'id'
p2756
I4662325328
ssasg81
g50
ssg82
S'None'
p2757
sg43
g601
sg85
(lp2758
F-330.0
aF3.3333333333333286
asg87
(lp2759
(dp2760
g90
g91
sg92
I0
sg93
(lp2761
(dp2762
g96
(dp2763
g98
g91
sg99
I4662326088
sg100
I0
sg101
I4662317288
ssg102
(dp2764
g98
g529
sg99
I4478083608
sg100
I0
sg101
I4478038248
ssasg105
Nsg106
I65540
sg107
I100
sg108
I4662326088
sasg109
S'None'
p2765
sg111
g610
sg108
I4662317288
sa(dp2766
g36
(dp2767
g38
(lp2768
(dp2769
g41
S"<class 'gpi.widgets.SaveFileBrowser'>"
p2770
sg43
S'File Browser'
p2771
sg45
(dp2772
S'outport'
p2773
I00
sS'quietval'
p2774
Nsg49
g50
sS'collapsed'
p2775
I00
sS'inport'
p2776
I00
sS'visible'
p2777
I01
sS'id'
p2778
I4661933936
ssa(dp2779
g41
S"<class 'gpi.widgets.PushButton'>"
p2780
sg43
S'Write Mode'
p2781
sg45
(dp2782
S'outport'
p2783
I00
sS'quietval'
p2784
Nsg49
I00
sS'collapsed'
p2785
I00
sS'inport'
p2786
I00
sS'visible'
p2787
I01
sS'toggle'
p2788
I01
sS'button_title'
p2789
VWrite on New Filename
p2790
sS'id'
p2791
I4661934544
ssa(dp2792
g41
S"<class 'gpi.widgets.PushButton'>"
p2793
sg43
S'Write Now'
p2794
sg45
(dp2795
S'outport'
p2796
I00
sS'quietval'
p2797
Nsg49
I00
sS'collapsed'
p2798
I00
sS'inport'
p2799
I00
sS'visible'
p2800
I01
sS'toggle'
p2801
I00
sS'button_title'
p2802
VWrite Right Now
p2803
sS'id'
p2804
I4661935304
ssasg81
g50
ssg82
S'None'
p2805
sg43
g84
sg85
(lp2806
F-45.0
aF-26.66666666666667
asg87
(lp2807
(dp2808
g90
g91
sg92
I0
sg93
(lp2809
(dp2810
g96
(dp2811
g98
g91
sg99
I4661944400
sg100
I0
sg101
I4661914976
ssg102
(dp2812
g98
g104
sg99
I4477963616
sg100
I0
sg101
I4639927648
ssasg105
Nsg106
I65540
sg107
I100
sg108
I4661944400
sasg109
S'None'
p2813
sg111
g112
sg108
I4661914976
sa(dp2814
g36
(dp2815
g38
(lp2816
(dp2817
g41
S"<class 'gpi.widgets.SaveFileBrowser'>"
p2818
sg43
S'File Browser'
p2819
sg45
(dp2820
S'outport'
p2821
I00
sS'quietval'
p2822
Nsg49
g50
sS'collapsed'
p2823
I00
sS'inport'
p2824
I00
sS'visible'
p2825
I01
sS'id'
p2826
I4661839880
ssa(dp2827
g41
S"<class 'gpi.widgets.PushButton'>"
p2828
sg43
S'Write Mode'
p2829
sg45
(dp2830
S'outport'
p2831
I00
sS'quietval'
p2832
Nsg49
I00
sS'collapsed'
p2833
I00
sS'inport'
p2834
I00
sS'visible'
p2835
I01
sS'toggle'
p2836
I01
sS'button_title'
p2837
VWrite on New Filename
p2838
sS'id'
p2839
I4661840488
ssa(dp2840
g41
S"<class 'gpi.widgets.PushButton'>"
p2841
sg43
S'Write Now'
p2842
sg45
(dp2843
S'outport'
p2844
I00
sS'quietval'
p2845
Nsg49
I00
sS'collapsed'
p2846
I00
sS'inport'
p2847
I00
sS'visible'
p2848
I01
sS'toggle'
p2849
I00
sS'button_title'
p2850
VWrite Right Now
p2851
sS'id'
p2852
I4661841248
ssasg81
g50
ssg82
S'None'
p2853
sg43
g84
sg85
(lp2854
F235.0
aF33.33333333333333
asg87
(lp2855
(dp2856
g90
g91
sg92
I0
sg93
(lp2857
(dp2858
g96
(dp2859
g98
g91
sg99
I4661842152
sg100
I0
sg101
I4661820920
ssg102
(dp2860
g98
g104
sg99
I4478213320
sg100
I0
sg101
I4478189648
ssasg105
Nsg106
I65540
sg107
I100
sg108
I4661842152
sasg109
S'None'
p2861
sg111
g112
sg108
I4661820920
sa(dp2862
g36
(dp2863
g38
(lp2864
(dp2865
g41
S"<class 'gpi.widgets.TextBox'>"
p2866
sg43
S'I/O Info:'
p2867
sg45
(dp2868
S'outport'
p2869
I00
sS'quietval'
p2870
Nsg49
g50
sS'collapsed'
p2871
I00
sS'inport'
p2872
I00
sS'visible'
p2873
I01
sS'wordwrap'
p2874
I00
sS'id'
p2875
I4478034000
ssa(dp2876
g41
S"<class 'gpi.widgets.OpenFileBrowser'>"
p2877
sg43
S'File Browser'
p2878
sg45
(dp2879
S'outport'
p2880
I00
sS'quietval'
p2881
Nsg49
g50
sS'collapsed'
p2882
I00
sS'inport'
p2883
I00
sS'visible'
p2884
I01
sS'id'
p2885
I4478034456
ssa(dp2886
g41
S"<class 'gpi.widgets.PushButton'>"
p2887
sg43
S'Squeeze'
p2888
sg45
(dp2889
S'outport'
p2890
I00
sS'quietval'
p2891
Nsg49
I00
sS'collapsed'
p2892
I00
sS'inport'
p2893
I00
sS'visible'
p2894
I01
sS'toggle'
p2895
I01
sS'button_title'
p2896
g471
sS'id'
p2897
I4478035064
ssasg81
g50
ssg82
S'0.0396780967712'
p2898
sg43
S'ReadNPY'
p2899
sg85
(lp2900
F-235.0
aF-86.66666666666667
asg87
(lp2901
(dp2902
g90
g104
sg92
I0
sg93
(lp2903
(dp2904
g96
(dp2905
g98
g91
sg99
I4639454176
sg100
I0
sg101
I4639445376
ssg102
(dp2906
g98
g104
sg99
I4478035824
sg100
I0
sg101
I4478002752
ssa(dp2907
g96
(dp2908
g98
g91
sg99
I4643129808
sg100
I0
sg101
I4643115696
ssg102
(dp2909
g98
g104
sg99
I4478035824
sg100
I0
sg101
I4478002752
ssa(dp2910
g96
(dp2911
g98
g91
sg99
I4643350536
sg100
I0
sg101
I4643317160
ssg102
(dp2912
g98
g104
sg99
I4478035824
sg100
I0
sg101
I4478002752
ssa(dp2913
g96
(dp2914
g98
g91
sg99
I4661432704
sg100
I0
sg101
I4661403280
ssg102
(dp2915
g98
g104
sg99
I4478035824
sg100
I0
sg101
I4478002752
ssa(dp2916
g96
(dp2917
g98
g91
sg99
I4662007056
sg100
I0
sg101
I4661998256
ssg102
(dp2918
g98
g104
sg99
I4478035824
sg100
I0
sg101
I4478002752
ssa(dp2919
g96
(dp2920
g98
g91
sg99
I4662298784
sg100
I0
sg101
I4662273600
ssg102
(dp2921
g98
g104
sg99
I4478035824
sg100
I0
sg101
I4478002752
ssasg105
Nsg106
I65541
sg107
Nsg108
I4478035824
sasg109
S'0.0'
p2922
sg111
S'core.fileIO.ReadNPY'
p2923
sg108
I4478002752
sg227
S'0.0396780967712'
p2924
sa(dp2925
g36
(dp2926
g38
(lp2927
(dp2928
g41
S"<class 'gpi.widgets.SaveFileBrowser'>"
p2929
sg43
S'File Browser'
p2930
sg45
(dp2931
S'outport'
p2932
I00
sS'quietval'
p2933
Nsg49
g50
sS'collapsed'
p2934
I00
sS'inport'
p2935
I00
sS'visible'
p2936
I01
sS'id'
p2937
I4661276304
ssa(dp2938
g41
S"<class 'gpi.widgets.PushButton'>"
p2939
sg43
S'Write Mode'
p2940
sg45
(dp2941
S'outport'
p2942
I00
sS'quietval'
p2943
Nsg49
I00
sS'collapsed'
p2944
I00
sS'inport'
p2945
I00
sS'visible'
p2946
I01
sS'toggle'
p2947
I01
sS'button_title'
p2948
VWrite on New Filename
p2949
sS'id'
p2950
I4661297536
ssa(dp2951
g41
S"<class 'gpi.widgets.PushButton'>"
p2952
sg43
S'Write Now'
p2953
sg45
(dp2954
S'outport'
p2955
I00
sS'quietval'
p2956
Nsg49
I00
sS'collapsed'
p2957
I00
sS'inport'
p2958
I00
sS'visible'
p2959
I01
sS'toggle'
p2960
I00
sS'button_title'
p2961
VWrite Right Now
p2962
sS'id'
p2963
I4661298296
ssasg81
g50
ssg82
S'None'
p2964
sg43
g153
sg85
(lp2965
F140.0
aF33.33333333333333
asg87
(lp2966
(dp2967
g90
g91
sg92
I0
sg93
(lp2968
(dp2969
g96
(dp2970
g98
g91
sg99
I4661299056
sg100
I0
sg101
I4661273872
ssg102
(dp2971
g98
g104
sg99
I4478166440
sg100
I0
sg101
I4478138224
ssasg105
Nsg106
I65540
sg107
I100
sg108
I4661299056
sasg109
S'None'
p2972
sg111
g162
sg108
I4661273872
sa(dp2973
g36
(dp2974
g38
(lp2975
(dp2976
g41
S"<class 'gpi.widgets.SaveFileBrowser'>"
p2977
sg43
S'File Browser'
p2978
sg45
(dp2979
S'outport'
p2980
I00
sS'quietval'
p2981
Nsg49
g50
sS'collapsed'
p2982
I00
sS'inport'
p2983
I00
sS'visible'
p2984
I01
sS'id'
p2985
I4662296656
ssa(dp2986
g41
S"<class 'gpi.widgets.PushButton'>"
p2987
sg43
S'Write Mode'
p2988
sg45
(dp2989
S'outport'
p2990
I00
sS'quietval'
p2991
Nsg49
I00
sS'collapsed'
p2992
I00
sS'inport'
p2993
I00
sS'visible'
p2994
I01
sS'toggle'
p2995
I01
sS'button_title'
p2996
VWrite on New Filename
p2997
sS'id'
p2998
I4662297264
ssa(dp2999
g41
S"<class 'gpi.widgets.PushButton'>"
p3000
sg43
S'Write Now'
p3001
sg45
(dp3002
S'outport'
p3003
I00
sS'quietval'
p3004
Nsg49
I00
sS'collapsed'
p3005
I00
sS'inport'
p3006
I00
sS'visible'
p3007
I01
sS'toggle'
p3008
I00
sS'button_title'
p3009
VWrite Right Now
p3010
sS'id'
p3011
I4662298024
ssasg81
g50
ssg82
S'None'
p3012
sg43
g601
sg85
(lp3013
F-235.0
aF-56.66666666666667
asg87
(lp3014
(dp3015
g90
g91
sg92
I0
sg93
(lp3016
(dp3017
g96
(dp3018
g98
g91
sg99
I4662298784
sg100
I0
sg101
I4662273600
ssg102
(dp3019
g98
g104
sg99
I4478035824
sg100
I0
sg101
I4478002752
ssasg105
Nsg106
I65540
sg107
I100
sg108
I4662298784
sasg109
S'None'
p3020
sg111
g610
sg108
I4662273600
sa(dp3021
g36
(dp3022
g38
(lp3023
(dp3024
g41
S"<class 'gpi.widgets.OpenFileBrowser'>"
p3025
sg43
S'File Browser'
p3026
sg45
(dp3027
S'outport'
p3028
I00
sS'quietval'
p3029
Nsg49
g50
sS'collapsed'
p3030
I00
sS'inport'
p3031
I00
sS'visible'
p3032
I01
sS'id'
p3033
I4478130336
ssa(dp3034
g41
S"<class 'gpi.widgets.TextBox'>"
p3035
sg43
S'info'
p3036
sg45
(dp3037
S'outport'
p3038
I00
sS'quietval'
p3039
Nsg49
S'1: v1raw  2: v2raw  3: v1  4: v2 \n5: ppu  6: resp  7: gx  8: gy  9: gz 10: mark'
p3040
sS'collapsed'
p3041
I00
sS'inport'
p3042
I00
sS'visible'
p3043
I01
sS'wordwrap'
p3044
I00
sS'id'
p3045
I4478130944
ssasg81
g50
ssg82
S'0.0992348194122'
p3046
sg43
S'ReadPhysioLog'
p3047
sg85
(lp3048
F330.0
aF-86.66666666666667
asg87
(lp3049
(dp3050
g90
g104
sg92
I0
sg93
(lp3051
(dp3052
g96
(dp3053
g98
g91
sg99
I4477427496
sg100
I0
sg101
I4639570080
ssg102
(dp3054
g98
g104
sg99
I4478131400
sg100
I0
sg101
I4478086800
ssa(dp3055
g96
(dp3056
g98
g91
sg99
I4477545672
sg100
I0
sg101
I4477527464
ssg102
(dp3057
g98
g104
sg99
I4478131400
sg100
I0
sg101
I4478086800
ssa(dp3058
g96
(dp3059
g98
g91
sg99
I4661248688
sg100
I0
sg101
I4661239888
ssg102
(dp3060
g98
g104
sg99
I4478131400
sg100
I0
sg101
I4478086800
ssa(dp3061
g96
(dp3062
g98
g91
sg99
I4661818944
sg100
I0
sg101
I4661470176
ssg102
(dp3063
g98
g104
sg99
I4478131400
sg100
I0
sg101
I4478086800
ssa(dp3064
g96
(dp3065
g98
g91
sg99
I4662061520
sg100
I0
sg101
I4662036336
ssg102
(dp3066
g98
g104
sg99
I4478131400
sg100
I0
sg101
I4478086800
ssasg105
Nsg106
I65541
sg107
Nsg108
I4478131400
sasg109
S'0.0'
p3067
sg111
S'core.fileIO.ReadPhysioLog'
p3068
sg108
I4478086800
sg227
S'0.0992348194122'
p3069
sa(dp3070
g36
(dp3071
g38
(lp3072
(dp3073
g41
S"<class 'gpi.widgets.SaveFileBrowser'>"
p3074
sg43
S'File Browser'
p3075
sg45
(dp3076
S'outport'
p3077
I00
sS'quietval'
p3078
Nsg49
g50
sS'collapsed'
p3079
I00
sS'inport'
p3080
I00
sS'visible'
p3081
I01
sS'id'
p3082
I4639412456
ssa(dp3083
g41
S"<class 'gpi.widgets.PushButton'>"
p3084
sg43
S'Write Mode'
p3085
sg45
(dp3086
S'outport'
p3087
I00
sS'quietval'
p3088
Nsg49
I00
sS'collapsed'
p3089
I00
sS'inport'
p3090
I00
sS'visible'
p3091
I01
sS'toggle'
p3092
I01
sS'button_title'
p3093
VWrite on New Filename
p3094
sS'id'
p3095
I4639413064
ssa(dp3096
g41
S"<class 'gpi.widgets.PushButton'>"
p3097
sg43
S'Write Now'
p3098
sg45
(dp3099
S'outport'
p3100
I00
sS'quietval'
p3101
Nsg49
I00
sS'collapsed'
p3102
I00
sS'inport'
p3103
I00
sS'visible'
p3104
I01
sS'toggle'
p3105
I00
sS'button_title'
p3106
VWrite Right Now
p3107
sS'id'
p3108
I4639413824
ssasg81
g50
ssg82
S'None'
p3109
sg43
g269
sg85
(lp3110
F-45.0
aF3.3333333333333286
asg87
(lp3111
(dp3112
g90
g91
sg92
I0
sg93
(lp3113
(dp3114
g96
(dp3115
g98
g91
sg99
I4639414584
sg100
I0
sg101
I4639565528
ssg102
(dp3116
g98
g104
sg99
I4477963616
sg100
I0
sg101
I4639927648
ssasg105
Nsg106
I65540
sg107
I100
sg108
I4639414584
sasg109
S'None'
p3117
sg111
g278
sg108
I4639565528
sa(dp3118
g36
(dp3119
g38
(lp3120
(dp3121
g41
S"<class 'gpi.widgets.SaveFileBrowser'>"
p3122
sg43
S'File Browser'
p3123
sg45
(dp3124
S'outport'
p3125
I00
sS'quietval'
p3126
Nsg49
g50
sS'collapsed'
p3127
I00
sS'inport'
p3128
I00
sS'visible'
p3129
I01
sS'id'
p3130
I4639250592
ssa(dp3131
g41
S"<class 'gpi.widgets.PushButton'>"
p3132
sg43
S'Write Mode'
p3133
sg45
(dp3134
S'outport'
p3135
I00
sS'quietval'
p3136
Nsg49
I00
sS'collapsed'
p3137
I00
sS'inport'
p3138
I00
sS'visible'
p3139
I01
sS'toggle'
p3140
I01
sS'button_title'
p3141
VWrite on New Filename
p3142
sS'id'
p3143
I4639251504
ssa(dp3144
g41
S"<class 'gpi.widgets.PushButton'>"
p3145
sg43
S'Write Now'
p3146
sg45
(dp3147
S'outport'
p3148
I00
sS'quietval'
p3149
Nsg49
I00
sS'collapsed'
p3150
I00
sS'inport'
p3151
I00
sS'visible'
p3152
I01
sS'toggle'
p3153
I00
sS'button_title'
p3154
VWrite Right Now
p3155
sS'id'
p3156
I4639252264
ssasg81
g50
ssg82
S'None'
p3157
sg43
g269
sg85
(lp3158
F-140.0
aF63.33333333333333
asg87
(lp3159
(dp3160
g90
g91
sg92
I0
sg93
(lp3161
(dp3162
g96
(dp3163
g98
g91
sg99
I4639802792
sg100
I0
sg101
I4639481640
ssg102
(dp3164
g98
g104
sg99
I4477995928
sg100
I0
sg101
I4574751944
ssasg105
Nsg106
I65540
sg107
I100
sg108
I4639802792
sasg109
S'None'
p3165
sg111
g278
sg108
I4639481640
sa(dp3166
g36
(dp3167
g38
(lp3168
(dp3169
g41
S"<class 'gpi.widgets.SaveFileBrowser'>"
p3170
sg43
S'File Browser'
p3171
sg45
(dp3172
S'outport'
p3173
I00
sS'quietval'
p3174
Nsg49
g50
sS'collapsed'
p3175
I00
sS'inport'
p3176
I00
sS'visible'
p3177
I01
sS'id'
p3178
I4661472608
ssa(dp3179
g41
S"<class 'gpi.widgets.PushButton'>"
p3180
sg43
S'Write Mode'
p3181
sg45
(dp3182
S'outport'
p3183
I00
sS'quietval'
p3184
Nsg49
I00
sS'collapsed'
p3185
I00
sS'inport'
p3186
I00
sS'visible'
p3187
I01
sS'toggle'
p3188
I01
sS'button_title'
p3189
VWrite on New Filename
p3190
sS'id'
p3191
I4661817424
ssa(dp3192
g41
S"<class 'gpi.widgets.PushButton'>"
p3193
sg43
S'Write Now'
p3194
sg45
(dp3195
S'outport'
p3196
I00
sS'quietval'
p3197
Nsg49
I00
sS'collapsed'
p3198
I00
sS'inport'
p3199
I00
sS'visible'
p3200
I01
sS'toggle'
p3201
I00
sS'button_title'
p3202
VWrite Right Now
p3203
sS'id'
p3204
I4661818184
ssasg81
g50
ssg82
S'None'
p3205
sg43
g84
sg85
(lp3206
F330.0
aF-26.66666666666667
asg87
(lp3207
(dp3208
g90
g91
sg92
I0
sg93
(lp3209
(dp3210
g96
(dp3211
g98
g91
sg99
I4661818944
sg100
I0
sg101
I4661470176
ssg102
(dp3212
g98
g104
sg99
I4478131400
sg100
I0
sg101
I4478086800
ssasg105
Nsg106
I65540
sg107
I100
sg108
I4661818944
sasg109
S'None'
p3213
sg111
g112
sg108
I4661470176
sa(dp3214
g36
(dp3215
g38
(lp3216
(dp3217
g41
S"<class 'gpi.widgets.SaveFileBrowser'>"
p3218
sg43
S'File Browser'
p3219
sg45
(dp3220
S'outport'
p3221
I00
sS'quietval'
p3222
Nsg49
g50
sS'collapsed'
p3223
I00
sS'inport'
p3224
I00
sS'visible'
p3225
I01
sS'id'
p3226
I4639359360
ssa(dp3227
g41
S"<class 'gpi.widgets.PushButton'>"
p3228
sg43
S'Write Mode'
p3229
sg45
(dp3230
S'outport'
p3231
I00
sS'quietval'
p3232
Nsg49
I00
sS'collapsed'
p3233
I00
sS'inport'
p3234
I00
sS'visible'
p3235
I01
sS'toggle'
p3236
I01
sS'button_title'
p3237
VWrite on New Filename
p3238
sS'id'
p3239
I4639359968
ssa(dp3240
g41
S"<class 'gpi.widgets.PushButton'>"
p3241
sg43
S'Write Now'
p3242
sg45
(dp3243
S'outport'
p3244
I00
sS'quietval'
p3245
Nsg49
I00
sS'collapsed'
p3246
I00
sS'inport'
p3247
I00
sS'visible'
p3248
I01
sS'toggle'
p3249
I00
sS'button_title'
p3250
VWrite Right Now
p3251
sS'id'
p3252
I4639360728
ssasg81
g50
ssg82
S'None'
p3253
sg43
g269
sg85
(lp3254
F235.0
aF63.33333333333333
asg87
(lp3255
(dp3256
g90
g91
sg92
I0
sg93
(lp3257
(dp3258
g96
(dp3259
g98
g91
sg99
I4639361488
sg100
I0
sg101
I4639373168
ssg102
(dp3260
g98
g104
sg99
I4478213320
sg100
I0
sg101
I4478189648
ssasg105
Nsg106
I65540
sg107
I100
sg108
I4639361488
sasg109
S'None'
p3261
sg111
g278
sg108
I4639373168
sa(dp3262
g36
(dp3263
g38
(lp3264
(dp3265
g41
S"<class 'gpi.widgets.SaveFileBrowser'>"
p3266
sg43
S'File Browser'
p3267
sg45
(dp3268
S'outport'
p3269
I00
sS'quietval'
p3270
Nsg49
g50
sS'collapsed'
p3271
I00
sS'inport'
p3272
I00
sS'visible'
p3273
I01
sS'id'
p3274
I4662059392
ssa(dp3275
g41
S"<class 'gpi.widgets.PushButton'>"
p3276
sg43
S'Write Mode'
p3277
sg45
(dp3278
S'outport'
p3279
I00
sS'quietval'
p3280
Nsg49
I00
sS'collapsed'
p3281
I00
sS'inport'
p3282
I00
sS'visible'
p3283
I01
sS'toggle'
p3284
I01
sS'button_title'
p3285
VWrite on New Filename
p3286
sS'id'
p3287
I4662060000
ssa(dp3288
g41
S"<class 'gpi.widgets.PushButton'>"
p3289
sg43
S'Write Now'
p3290
sg45
(dp3291
S'outport'
p3292
I00
sS'quietval'
p3293
Nsg49
I00
sS'collapsed'
p3294
I00
sS'inport'
p3295
I00
sS'visible'
p3296
I01
sS'toggle'
p3297
I00
sS'button_title'
p3298
VWrite Right Now
p3299
sS'id'
p3300
I4662060760
ssasg81
g50
ssg82
S'None'
p3301
sg43
g601
sg85
(lp3302
F330.0
aF63.33333333333333
asg87
(lp3303
(dp3304
g90
g91
sg92
I0
sg93
(lp3305
(dp3306
g96
(dp3307
g98
g91
sg99
I4662061520
sg100
I0
sg101
I4662036336
ssg102
(dp3308
g98
g104
sg99
I4478131400
sg100
I0
sg101
I4478086800
ssasg105
Nsg106
I65540
sg107
I100
sg108
I4662061520
sasg109
S'None'
p3309
sg111
g610
sg108
I4662036336
sassS'WALLTIME'
p3310
S'0.00101900100708'
p3311
s.