(dp0
S'HEADER'
p1
S'This is a GPI Network File'
p2
sS'GPI_VERSION'
p3
S'0.2'
p4
sS'PLATFORM'
p5
(dp6
S'OSX'
p7
S'10.8.5'
p8
sS'PYTHON_VERSION'
p9
S'2.7.6'
p10
sS'PYTHON'
p11
S'CPython'
p12
sS'TOTAL_PHYMEM'
p13
L17179869184L
sS'NUM_CPUS'
p14
I8
sS'HOSTNAME'
p15
S'tron.local'
p16
sg5
S'Darwin-12.5.0-x86_64-i386-64bit'
p17
sS'TOTAL_PHYMEM_STR'
p18
S'16.00 GB'
p19
sS'OS'
p20
S'Darwin'
p21
ssS'DATETIME'
p22
S'Tue Apr  1 17:19:34 2014'
p23
sS'NETWORK_VERSION'
p24
S'2'
p25
sS'layouts'
p26
(lp27
sS'TOTAL_PMEM'
p28
S'364542792'
p29
sS'nodes'
p30
(dp31
S'macroNodes'
p32
(lp33
(dp34
S'collapse'
p35
I01
sS'sink_settings'
p36
(dp37
S'widget_settings'
p38
(dp39
S'parms'
p40
(lp41
sS'label'
p42
S''
p43
ssS'avgwalltime'
p44
S'0.00640654563904'
p45
sS'name'
p46
S'__GPIMacroNode__'
p47
sS'pos'
p48
(lp49
F43.7423469387755
aF-16.270408163265287
asS'id'
p50
I4663800952
sS'stdwalltime'
p51
S'0.00407006854714'
p52
sS'ports'
p53
(lp54
(dp55
S'connections'
p56
(lp57
(dp58
S'dest'
p59
(dp60
S'portName'
p61
S'in1'
p62
sS'portNum'
p63
I0
sS'portID'
p64
I4663813392
sS'nodeID'
p65
I4663800952
ssS'src'
p66
(dp67
g61
S'out'
p68
sg63
I0
sg64
I4636570136
sg65
I4636502328
ssasS'portnum'
p69
I0
sS'porttitle'
p70
g62
sS'widgetTitle'
p71
NsS'porttype'
p72
I65540
sS'obligation'
p73
I200
sg50
I4663813392
sa(dp74
g56
(lp75
sg69
I1
sg70
S'in2'
p76
sg71
Nsg72
I65540
sg73
I200
sg50
I4663813696
sa(dp77
g56
(lp78
sg69
I2
sg70
S'in3'
p79
sg71
Nsg72
I65540
sg73
I200
sg50
I4663814000
sa(dp80
g56
(lp81
sg69
I3
sg70
S'in4'
p82
sg71
Nsg72
I65540
sg73
I200
sg50
I4663814304
sa(dp83
g56
(lp84
sg69
I4
sg70
S'in5'
p85
sg71
Nsg72
I65540
sg73
I200
sg50
I4663814608
sa(dp86
g56
(lp87
sg69
I5
sg70
S'in6'
p88
sg71
Nsg72
I65540
sg73
I200
sg50
I4663814912
sa(dp89
g56
(lp90
sg69
I6
sg70
S'in7'
p91
sg71
Nsg72
I65540
sg73
I200
sg50
I4663815216
sa(dp92
g56
(lp93
sg69
I7
sg70
S'in8'
p94
sg71
Nsg72
I65540
sg73
I200
sg50
I4663815520
sa(dp95
g56
(lp96
sg69
I8
sg70
S'in9'
p97
sg71
Nsg72
I65540
sg73
I200
sg50
I4663815824
sa(dp98
g56
(lp99
sg69
I9
sg70
S'in10'
p100
sg71
Nsg72
I65540
sg73
I200
sg50
I4663861328
sa(dp101
g56
(lp102
sg69
I10
sg70
S'in11'
p103
sg71
Nsg72
I65540
sg73
I200
sg50
I4663861632
sa(dp104
g56
(lp105
sg69
I11
sg70
S'in12'
p106
sg71
Nsg72
I65540
sg73
I200
sg50
I4663861936
sa(dp107
g56
(lp108
sg69
I12
sg70
S'in13'
p109
sg71
Nsg72
I65540
sg73
I200
sg50
I4663862240
sa(dp110
g56
(lp111
sg69
I13
sg70
S'in14'
p112
sg71
Nsg72
I65540
sg73
I200
sg50
I4663862544
sa(dp113
g56
(lp114
sg69
I14
sg70
S'in15'
p115
sg71
Nsg72
I65540
sg73
I200
sg50
I4663862848
sa(dp116
g56
(lp117
sg69
I15
sg70
S'in16'
p118
sg71
Nsg72
I65540
sg73
I200
sg50
I4663863152
sa(dp119
g56
(lp120
(dp121
g59
(dp122
g61
S'in'
p123
sg63
I0
sg64
I4638970544
sg65
I4638943696
ssg66
(dp124
g61
S'out1'
p125
sg63
I0
sg64
I4663813544
sg65
I4663800952
ssasg69
I0
sg70
g125
sg71
Nsg72
I65541
sg73
Nsg50
I4663813544
sa(dp126
g56
(lp127
sg69
I1
sg70
S'out2'
p128
sg71
Nsg72
I65541
sg73
Nsg50
I4663813848
sa(dp129
g56
(lp130
sg69
I2
sg70
S'out3'
p131
sg71
Nsg72
I65541
sg73
Nsg50
I4663814152
sa(dp132
g56
(lp133
sg69
I3
sg70
S'out4'
p134
sg71
Nsg72
I65541
sg73
Nsg50
I4663814456
sa(dp135
g56
(lp136
sg69
I4
sg70
S'out5'
p137
sg71
Nsg72
I65541
sg73
Nsg50
I4663814760
sa(dp138
g56
(lp139
sg69
I5
sg70
S'out6'
p140
sg71
Nsg72
I65541
sg73
Nsg50
I4663815064
sa(dp141
g56
(lp142
sg69
I6
sg70
S'out7'
p143
sg71
Nsg72
I65541
sg73
Nsg50
I4663815368
sa(dp144
g56
(lp145
sg69
I7
sg70
S'out8'
p146
sg71
Nsg72
I65541
sg73
Nsg50
I4663815672
sa(dp147
g56
(lp148
sg69
I8
sg70
S'out9'
p149
sg71
Nsg72
I65541
sg73
Nsg50
I4663815976
sa(dp150
g56
(lp151
sg69
I9
sg70
S'out10'
p152
sg71
Nsg72
I65541
sg73
Nsg50
I4663861480
sa(dp153
g56
(lp154
sg69
I10
sg70
S'out11'
p155
sg71
Nsg72
I65541
sg73
Nsg50
I4663861784
sa(dp156
g56
(lp157
sg69
I11
sg70
S'out12'
p158
sg71
Nsg72
I65541
sg73
Nsg50
I4663862088
sa(dp159
g56
(lp160
sg69
I12
sg70
S'out13'
p161
sg71
Nsg72
I65541
sg73
Nsg50
I4663862392
sa(dp162
g56
(lp163
sg69
I13
sg70
S'out14'
p164
sg71
Nsg72
I65541
sg73
Nsg50
I4663862696
sa(dp165
g56
(lp166
sg69
I14
sg70
S'out15'
p167
sg71
Nsg72
I65541
sg73
Nsg50
I4663863000
sa(dp168
g56
(lp169
sg69
I15
sg70
S'out16'
p170
sg71
Nsg72
I65541
sg73
Nsg50
I4663863304
sasS'walltime'
p171
S'0.00972700119019'
p172
ssg42
S'Coil Images'
p173
sS'nodes_rel_pos'
p174
(dp175
S'4636005192'
p176
(lp177
F42.5
aF122.00000000000001
asS'4639042912'
p178
(lp179
F42.5
aF32.000000000000014
asS'4639099496'
p180
(lp181
F42.5
aF62.000000000000014
asS'4636502328'
p182
(lp183
F42.5
aF152.0
asS'4638973128'
p184
(lp185
F42.5
aF92.00000000000001
assS'layoutWindow'
p186
(dp187
g26
(dp188
S'top'
p189
(dp190
S'layoutType'
p191
S'vbox'
p192
sS'wdgids'
p193
(lp194
I4636374592
asg42
g189
sssS'config'
p195
I0
ssS'face_settings'
p196
(dp197
g38
(dp198
g40
(lp199
sg42
g43
ssg44
S'3.50475311279e-05'
p200
sg46
g47
sg48
(lp201
F-78.7576530612245
aF-8.770408163265287
asg50
I4663863456
sg51
S'0.0'
p202
sg53
(lp203
(dp204
g56
(lp205
(dp206
g59
(dp207
g61
g123
sg63
I0
sg64
I4638970544
sg65
I4638943696
ssg66
(dp208
g61
g125
sg63
I0
sg64
I4663813544
sg65
I4663800952
ssasg69
I0
sg70
g125
sg71
Nsg72
I65541
sg73
Nsg50
I4663813544
sasg171
S'3.50475311279e-05'
p209
ssS'rel_jaw_pos'
p210
(lp211
F-16.5
aF199.0
asg50
I4639059088
sS'src_settings'
p212
(dp213
g38
(dp214
g40
(lp215
sg42
g43
ssg44
S'0.000532150268555'
p216
sg46
g47
sg48
(lp217
F43.7423469387755
aF-16.270408163265287
asg50
I4663738448
sg51
S'0.0'
p218
sg53
(lp219
(dp220
g56
(lp221
sg69
I0
sg70
S'in1'
p222
sg71
Nsg72
I65540
sg73
I200
sg50
I4663763176
sa(dp223
g56
(lp224
sg69
I1
sg70
S'in2'
p225
sg71
Nsg72
I65540
sg73
I200
sg50
I4663763480
sa(dp226
g56
(lp227
sg69
I2
sg70
S'in3'
p228
sg71
Nsg72
I65540
sg73
I200
sg50
I4663763784
sa(dp229
g56
(lp230
sg69
I3
sg70
S'in4'
p231
sg71
Nsg72
I65540
sg73
I200
sg50
I4663764088
sa(dp232
g56
(lp233
sg69
I4
sg70
S'in5'
p234
sg71
Nsg72
I65540
sg73
I200
sg50
I4663764392
sa(dp235
g56
(lp236
sg69
I5
sg70
S'in6'
p237
sg71
Nsg72
I65540
sg73
I200
sg50
I4663764696
sa(dp238
g56
(lp239
sg69
I6
sg70
S'in7'
p240
sg71
Nsg72
I65540
sg73
I200
sg50
I4663765000
sa(dp241
g56
(lp242
sg69
I7
sg70
S'in8'
p243
sg71
Nsg72
I65540
sg73
I200
sg50
I4663765304
sa(dp244
g56
(lp245
sg69
I8
sg70
S'in9'
p246
sg71
Nsg72
I65540
sg73
I200
sg50
I4663765608
sa(dp247
g56
(lp248
sg69
I9
sg70
S'in10'
p249
sg71
Nsg72
I65540
sg73
I200
sg50
I4663765912
sa(dp250
g56
(lp251
sg69
I10
sg70
S'in11'
p252
sg71
Nsg72
I65540
sg73
I200
sg50
I4663766216
sa(dp253
g56
(lp254
sg69
I11
sg70
S'in12'
p255
sg71
Nsg72
I65540
sg73
I200
sg50
I4663766520
sa(dp256
g56
(lp257
sg69
I12
sg70
S'in13'
p258
sg71
Nsg72
I65540
sg73
I200
sg50
I4663766824
sa(dp259
g56
(lp260
sg69
I13
sg70
S'in14'
p261
sg71
Nsg72
I65540
sg73
I200
sg50
I4663800040
sa(dp262
g56
(lp263
sg69
I14
sg70
S'in15'
p264
sg71
Nsg72
I65540
sg73
I200
sg50
I4663800344
sa(dp265
g56
(lp266
sg69
I15
sg70
S'in16'
p267
sg71
Nsg72
I65540
sg73
I200
sg50
I4663800648
sa(dp268
g56
(lp269
sg69
I0
sg70
S'out1'
p270
sg71
Nsg72
I65541
sg73
Nsg50
I4663763328
sa(dp271
g56
(lp272
sg69
I1
sg70
S'out2'
p273
sg71
Nsg72
I65541
sg73
Nsg50
I4663763632
sa(dp274
g56
(lp275
sg69
I2
sg70
S'out3'
p276
sg71
Nsg72
I65541
sg73
Nsg50
I4663763936
sa(dp277
g56
(lp278
sg69
I3
sg70
S'out4'
p279
sg71
Nsg72
I65541
sg73
Nsg50
I4663764240
sa(dp280
g56
(lp281
sg69
I4
sg70
S'out5'
p282
sg71
Nsg72
I65541
sg73
Nsg50
I4663764544
sa(dp283
g56
(lp284
sg69
I5
sg70
S'out6'
p285
sg71
Nsg72
I65541
sg73
Nsg50
I4663764848
sa(dp286
g56
(lp287
sg69
I6
sg70
S'out7'
p288
sg71
Nsg72
I65541
sg73
Nsg50
I4663765152
sa(dp289
g56
(lp290
sg69
I7
sg70
S'out8'
p291
sg71
Nsg72
I65541
sg73
Nsg50
I4663765456
sa(dp292
g56
(lp293
sg69
I8
sg70
S'out9'
p294
sg71
Nsg72
I65541
sg73
Nsg50
I4663765760
sa(dp295
g56
(lp296
sg69
I9
sg70
S'out10'
p297
sg71
Nsg72
I65541
sg73
Nsg50
I4663766064
sa(dp298
g56
(lp299
sg69
I10
sg70
S'out11'
p300
sg71
Nsg72
I65541
sg73
Nsg50
I4663766368
sa(dp301
g56
(lp302
sg69
I11
sg70
S'out12'
p303
sg71
Nsg72
I65541
sg73
Nsg50
I4663766672
sa(dp304
g56
(lp305
sg69
I12
sg70
S'out13'
p306
sg71
Nsg72
I65541
sg73
Nsg50
I4663799888
sa(dp307
g56
(lp308
sg69
I13
sg70
S'out14'
p309
sg71
Nsg72
I65541
sg73
Nsg50
I4663800192
sa(dp310
g56
(lp311
sg69
I14
sg70
S'out15'
p312
sg71
Nsg72
I65541
sg73
Nsg50
I4663800496
sa(dp313
g56
(lp314
sg69
I15
sg70
S'out16'
p315
sg71
Nsg72
I65541
sg73
Nsg50
I4663800800
sasg171
S'0.000532150268555'
p316
ssasg30
(lp317
(dp318
g38
(dp319
g40
(lp320
sg42
g43
ssg44
S'0.000532150268555'
p321
sg46
g47
sg48
(lp322
F43.7423469387755
aF-16.270408163265287
asg53
(lp323
(dp324
g70
g222
sg69
I0
sg56
(lp325
sg71
Nsg72
I65540
sg73
I200
sg50
I4663763176
sa(dp326
g70
g225
sg69
I1
sg56
(lp327
sg71
Nsg72
I65540
sg73
I200
sg50
I4663763480
sa(dp328
g70
g228
sg69
I2
sg56
(lp329
sg71
Nsg72
I65540
sg73
I200
sg50
I4663763784
sa(dp330
g70
g231
sg69
I3
sg56
(lp331
sg71
Nsg72
I65540
sg73
I200
sg50
I4663764088
sa(dp332
g70
g234
sg69
I4
sg56
(lp333
sg71
Nsg72
I65540
sg73
I200
sg50
I4663764392
sa(dp334
g70
g237
sg69
I5
sg56
(lp335
sg71
Nsg72
I65540
sg73
I200
sg50
I4663764696
sa(dp336
g70
g240
sg69
I6
sg56
(lp337
sg71
Nsg72
I65540
sg73
I200
sg50
I4663765000
sa(dp338
g70
g243
sg69
I7
sg56
(lp339
sg71
Nsg72
I65540
sg73
I200
sg50
I4663765304
sa(dp340
g70
g246
sg69
I8
sg56
(lp341
sg71
Nsg72
I65540
sg73
I200
sg50
I4663765608
sa(dp342
g70
g249
sg69
I9
sg56
(lp343
sg71
Nsg72
I65540
sg73
I200
sg50
I4663765912
sa(dp344
g70
g252
sg69
I10
sg56
(lp345
sg71
Nsg72
I65540
sg73
I200
sg50
I4663766216
sa(dp346
g70
g255
sg69
I11
sg56
(lp347
sg71
Nsg72
I65540
sg73
I200
sg50
I4663766520
sa(dp348
g70
g258
sg69
I12
sg56
(lp349
sg71
Nsg72
I65540
sg73
I200
sg50
I4663766824
sa(dp350
g70
g261
sg69
I13
sg56
(lp351
sg71
Nsg72
I65540
sg73
I200
sg50
I4663800040
sa(dp352
g70
g264
sg69
I14
sg56
(lp353
sg71
Nsg72
I65540
sg73
I200
sg50
I4663800344
sa(dp354
g70
g267
sg69
I15
sg56
(lp355
sg71
Nsg72
I65540
sg73
I200
sg50
I4663800648
sa(dp356
g70
g270
sg69
I0
sg56
(lp357
sg71
Nsg72
I65541
sg73
Nsg50
I4663763328
sa(dp358
g70
g273
sg69
I1
sg56
(lp359
sg71
Nsg72
I65541
sg73
Nsg50
I4663763632
sa(dp360
g70
g276
sg69
I2
sg56
(lp361
sg71
Nsg72
I65541
sg73
Nsg50
I4663763936
sa(dp362
g70
g279
sg69
I3
sg56
(lp363
sg71
Nsg72
I65541
sg73
Nsg50
I4663764240
sa(dp364
g70
g282
sg69
I4
sg56
(lp365
sg71
Nsg72
I65541
sg73
Nsg50
I4663764544
sa(dp366
g70
g285
sg69
I5
sg56
(lp367
sg71
Nsg72
I65541
sg73
Nsg50
I4663764848
sa(dp368
g70
g288
sg69
I6
sg56
(lp369
sg71
Nsg72
I65541
sg73
Nsg50
I4663765152
sa(dp370
g70
g291
sg69
I7
sg56
(lp371
sg71
Nsg72
I65541
sg73
Nsg50
I4663765456
sa(dp372
g70
g294
sg69
I8
sg56
(lp373
sg71
Nsg72
I65541
sg73
Nsg50
I4663765760
sa(dp374
g70
g297
sg69
I9
sg56
(lp375
sg71
Nsg72
I65541
sg73
Nsg50
I4663766064
sa(dp376
g70
g300
sg69
I10
sg56
(lp377
sg71
Nsg72
I65541
sg73
Nsg50
I4663766368
sa(dp378
g70
g303
sg69
I11
sg56
(lp379
sg71
Nsg72
I65541
sg73
Nsg50
I4663766672
sa(dp380
g70
g306
sg69
I12
sg56
(lp381
sg71
Nsg72
I65541
sg73
Nsg50
I4663799888
sa(dp382
g70
g309
sg69
I13
sg56
(lp383
sg71
Nsg72
I65541
sg73
Nsg50
I4663800192
sa(dp384
g70
g312
sg69
I14
sg56
(lp385
sg71
Nsg72
I65541
sg73
Nsg50
I4663800496
sa(dp386
g70
g315
sg69
I15
sg56
(lp387
sg71
Nsg72
I65541
sg73
Nsg50
I4663800800
sasg51
S'0.0'
p388
sg50
I4663738448
sg171
S'0.000532150268555'
p389
sa(dp390
g38
(dp391
g40
(lp392
(dp393
S'type'
p394
S"<class '/opt/gpi/lib/core/math/GPI/FFT_NUMPY_GPI.FFTW_GROUP'>"
p395
sg46
S'Dimension[-1]'
p396
sS'kwargs'
p397
(dp398
S'outport'
p399
I00
sS'quietval'
p400
NsS'val'
p401
(dp402
S'length'
p403
I480
sS'in_len'
p404
I480
sS'compute'
p405
I01
ssS'collapsed'
p406
I00
sS'inport'
p407
I00
sS'visible'
p408
I01
sS'id'
p409
I4639138936
ssa(dp410
g394
S"<class '/opt/gpi/lib/core/math/GPI/FFT_NUMPY_GPI.FFTW_GROUP'>"
p411
sg46
S'Dimension[-2]'
p412
sg397
(dp413
S'outport'
p414
I00
sS'quietval'
p415
Nsg401
(dp416
g403
I178
sg404
I178
sg405
I00
ssS'collapsed'
p417
I00
sS'inport'
p418
I00
sS'visible'
p419
I01
sS'id'
p420
I4639140912
ssa(dp421
g394
S"<class '/opt/gpi/lib/core/math/GPI/FFT_NUMPY_GPI.FFTW_GROUP'>"
p422
sg46
S'Dimension[-3]'
p423
sg397
(dp424
S'outport'
p425
I00
sS'quietval'
p426
Nsg401
(dp427
g403
I3
sg404
I3
sg405
I00
ssS'collapsed'
p428
I00
sS'inport'
p429
I00
sS'visible'
p430
I01
sS'id'
p431
I4639143032
ssa(dp432
g394
S"<class '/opt/gpi/lib/core/math/GPI/FFT_NUMPY_GPI.FFTW_GROUP'>"
p433
sg46
S'Dimension[-4]'
p434
sg397
(dp435
S'outport'
p436
I00
sS'quietval'
p437
Nsg401
(dp438
g403
I2
sg404
I2
sg405
I00
ssS'collapsed'
p439
I00
sS'inport'
p440
I00
sS'visible'
p441
I01
sS'id'
p442
I4639145008
ssa(dp443
g394
S"<class '/opt/gpi/lib/core/math/GPI/FFT_NUMPY_GPI.FFTW_GROUP'>"
p444
sg46
S'Dimension[-5]'
p445
sg397
(dp446
S'outport'
p447
I00
sS'quietval'
p448
Nsg401
(dp449
g403
I12
sg404
I12
sg405
I00
ssS'collapsed'
p450
I00
sS'inport'
p451
I00
sS'visible'
p452
I01
sS'id'
p453
I4639151224
ssa(dp454
g394
S"<class '/opt/gpi/lib/core/math/GPI/FFT_NUMPY_GPI.FFTW_GROUP'>"
p455
sg46
S'Dimension[-6]'
p456
sg397
(dp457
S'outport'
p458
I00
sS'quietval'
p459
Nsg401
(dp460
g403
I1
sg404
I1
sg405
I00
ssS'collapsed'
p461
I00
sS'inport'
p462
I00
sS'visible'
p463
I00
sS'id'
p464
I4639153200
ssa(dp465
g394
S"<class '/opt/gpi/lib/core/math/GPI/FFT_NUMPY_GPI.FFTW_GROUP'>"
p466
sg46
S'Dimension[-7]'
p467
sg397
(dp468
S'outport'
p469
I00
sS'quietval'
p470
Nsg401
(dp471
g403
I1
sg404
I1
sg405
I00
ssS'collapsed'
p472
I00
sS'inport'
p473
I00
sS'visible'
p474
I00
sS'id'
p475
I4639155320
ssa(dp476
g394
S"<class '/opt/gpi/lib/core/math/GPI/FFT_NUMPY_GPI.FFTW_GROUP'>"
p477
sg46
S'Dimension[-8]'
p478
sg397
(dp479
S'outport'
p480
I00
sS'quietval'
p481
Nsg401
(dp482
g403
I1
sg404
I1
sg405
I00
ssS'collapsed'
p483
I00
sS'inport'
p484
I00
sS'visible'
p485
I00
sS'id'
p486
I4639157296
ssa(dp487
g394
S"<class '/opt/gpi/lib/core/math/GPI/FFT_NUMPY_GPI.FFTW_GROUP'>"
p488
sg46
S'Dimension[-9]'
p489
sg397
(dp490
S'outport'
p491
I00
sS'quietval'
p492
Nsg401
(dp493
g403
I1
sg404
I1
sg405
I00
ssS'collapsed'
p494
I00
sS'inport'
p495
I00
sS'visible'
p496
I00
sS'id'
p497
I4639159416
ssa(dp498
g394
S"<class 'gpi.widgets.PushButton'>"
p499
sg46
g405
sg397
(dp500
S'outport'
p501
I00
sS'quietval'
p502
Nsg401
I01
sS'collapsed'
p503
I00
sS'inport'
p504
I00
sS'visible'
p505
I01
sS'toggle'
p506
I01
sS'button_title'
p507
V
p508
sS'id'
p509
I4639161392
ssa(dp510
g394
S"<class 'gpi.widgets.PushButton'>"
p511
sg46
S'direction'
p512
sg397
(dp513
S'outport'
p514
I00
sS'quietval'
p515
Nsg401
I00
sS'collapsed'
p516
I00
sS'inport'
p517
I00
sS'visible'
p518
I01
sS'toggle'
p519
I01
sS'button_title'
p520
VFORWARD
p521
sS'id'
p522
I4639162152
ssasg42
g43
ssg44
S'1.13493406773'
p523
sg46
S'FFT_NUMPY'
p524
sg48
(lp525
F43.7423469387755
aF-16.270408163265287
asg53
(lp526
(dp527
g70
g123
sg69
I0
sg56
(lp528
(dp529
g59
(dp530
g61
g123
sg64
I4663714480
sg63
I0
sg65
I4639099496
ssg66
(dp531
g61
S'data'
p532
sg64
I4639092368
sg63
I0
sg65
I4639042912
ssasg71
Nsg72
I65540
sg73
I100
sg50
I4663714480
sa(dp533
g70
g68
sg69
I0
sg56
(lp534
(dp535
g59
(dp536
g61
g123
sg64
I4639040784
sg63
I0
sg65
I4638973128
ssg66
(dp537
g61
g68
sg64
I4663714632
sg63
I0
sg65
I4639099496
ssasg71
Nsg72
I65541
sg73
Nsg50
I4663714632
sasg51
S'1.13493406773'
p538
sS'key'
p539
S'core.math.FFT_NUMPY'
p540
sg50
I4639099496
sg171
S'2.26986813545'
p541
sa(dp542
g38
(dp543
g40
(lp544
sg42
g43
ssg44
S'0.00640654563904'
p545
sg46
g47
sg48
(lp546
F43.7423469387755
aF-16.270408163265287
asg53
(lp547
(dp548
g70
g62
sg69
I0
sg56
(lp549
(dp550
g59
(dp551
g61
g62
sg64
I4663813392
sg63
I0
sg65
I4663800952
ssg66
(dp552
g61
g68
sg64
I4636570136
sg63
I0
sg65
I4636502328
ssasg71
Nsg72
I65540
sg73
I200
sg50
I4663813392
sa(dp553
g70
g76
sg69
I1
sg56
(lp554
sg71
Nsg72
I65540
sg73
I200
sg50
I4663813696
sa(dp555
g70
g79
sg69
I2
sg56
(lp556
sg71
Nsg72
I65540
sg73
I200
sg50
I4663814000
sa(dp557
g70
g82
sg69
I3
sg56
(lp558
sg71
Nsg72
I65540
sg73
I200
sg50
I4663814304
sa(dp559
g70
g85
sg69
I4
sg56
(lp560
sg71
Nsg72
I65540
sg73
I200
sg50
I4663814608
sa(dp561
g70
g88
sg69
I5
sg56
(lp562
sg71
Nsg72
I65540
sg73
I200
sg50
I4663814912
sa(dp563
g70
g91
sg69
I6
sg56
(lp564
sg71
Nsg72
I65540
sg73
I200
sg50
I4663815216
sa(dp565
g70
g94
sg69
I7
sg56
(lp566
sg71
Nsg72
I65540
sg73
I200
sg50
I4663815520
sa(dp567
g70
g97
sg69
I8
sg56
(lp568
sg71
Nsg72
I65540
sg73
I200
sg50
I4663815824
sa(dp569
g70
g100
sg69
I9
sg56
(lp570
sg71
Nsg72
I65540
sg73
I200
sg50
I4663861328
sa(dp571
g70
g103
sg69
I10
sg56
(lp572
sg71
Nsg72
I65540
sg73
I200
sg50
I4663861632
sa(dp573
g70
g106
sg69
I11
sg56
(lp574
sg71
Nsg72
I65540
sg73
I200
sg50
I4663861936
sa(dp575
g70
g109
sg69
I12
sg56
(lp576
sg71
Nsg72
I65540
sg73
I200
sg50
I4663862240
sa(dp577
g70
g112
sg69
I13
sg56
(lp578
sg71
Nsg72
I65540
sg73
I200
sg50
I4663862544
sa(dp579
g70
g115
sg69
I14
sg56
(lp580
sg71
Nsg72
I65540
sg73
I200
sg50
I4663862848
sa(dp581
g70
g118
sg69
I15
sg56
(lp582
sg71
Nsg72
I65540
sg73
I200
sg50
I4663863152
sa(dp583
g70
g125
sg69
I0
sg56
(lp584
(dp585
g59
(dp586
g61
g123
sg64
I4638970544
sg63
I0
sg65
I4638943696
ssg66
(dp587
g61
g125
sg64
I4663813544
sg63
I0
sg65
I4663800952
ssasg71
Nsg72
I65541
sg73
Nsg50
I4663813544
sa(dp588
g70
g128
sg69
I1
sg56
(lp589
sg71
Nsg72
I65541
sg73
Nsg50
I4663813848
sa(dp590
g70
g131
sg69
I2
sg56
(lp591
sg71
Nsg72
I65541
sg73
Nsg50
I4663814152
sa(dp592
g70
g134
sg69
I3
sg56
(lp593
sg71
Nsg72
I65541
sg73
Nsg50
I4663814456
sa(dp594
g70
g137
sg69
I4
sg56
(lp595
sg71
Nsg72
I65541
sg73
Nsg50
I4663814760
sa(dp596
g70
g140
sg69
I5
sg56
(lp597
sg71
Nsg72
I65541
sg73
Nsg50
I4663815064
sa(dp598
g70
g143
sg69
I6
sg56
(lp599
sg71
Nsg72
I65541
sg73
Nsg50
I4663815368
sa(dp600
g70
g146
sg69
I7
sg56
(lp601
sg71
Nsg72
I65541
sg73
Nsg50
I4663815672
sa(dp602
g70
g149
sg69
I8
sg56
(lp603
sg71
Nsg72
I65541
sg73
Nsg50
I4663815976
sa(dp604
g70
g152
sg69
I9
sg56
(lp605
sg71
Nsg72
I65541
sg73
Nsg50
I4663861480
sa(dp606
g70
g155
sg69
I10
sg56
(lp607
sg71
Nsg72
I65541
sg73
Nsg50
I4663861784
sa(dp608
g70
g158
sg69
I11
sg56
(lp609
sg71
Nsg72
I65541
sg73
Nsg50
I4663862088
sa(dp610
g70
g161
sg69
I12
sg56
(lp611
sg71
Nsg72
I65541
sg73
Nsg50
I4663862392
sa(dp612
g70
g164
sg69
I13
sg56
(lp613
sg71
Nsg72
I65541
sg73
Nsg50
I4663862696
sa(dp614
g70
g167
sg69
I14
sg56
(lp615
sg71
Nsg72
I65541
sg73
Nsg50
I4663863000
sa(dp616
g70
g170
sg69
I15
sg56
(lp617
sg71
Nsg72
I65541
sg73
Nsg50
I4663863304
sasg51
S'0.00407006854714'
p618
sg50
I4663800952
sg171
S'0.00972700119019'
p619
sa(dp620
g38
(dp621
g40
(lp622
sg42
g43
ssg44
S'3.50475311279e-05'
p623
sg46
g47
sg48
(lp624
F-78.7576530612245
aF-8.770408163265287
asg53
(lp625
(dp626
g70
g125
sg69
I0
sg56
(lp627
(dp628
g59
(dp629
g61
g123
sg64
I4638970544
sg63
I0
sg65
I4638943696
ssg66
(dp630
g61
g125
sg64
I4663813544
sg63
I0
sg65
I4663800952
ssasg71
Nsg72
I65541
sg73
Nsg50
I4663813544
sasg51
S'0.0'
p631
sg50
I4663863456
sg171
S'3.50475311279e-05'
p632
sa(dp633
g38
(dp634
g40
(lp635
(dp636
g394
S"<class '/opt/gpi/lib/core/math/GPI/FFT_NUMPY_GPI.FFTW_GROUP'>"
p637
sg46
S'Dimension[-1]'
p638
sg397
(dp639
S'outport'
p640
I00
sS'quietval'
p641
Nsg401
(dp642
g403
I240
sg404
I480
sg405
I01
ssS'collapsed'
p643
I00
sS'inport'
p644
I00
sS'visible'
p645
I01
sS'id'
p646
I4639012568
ssa(dp647
g394
S"<class '/opt/gpi/lib/core/math/GPI/FFT_NUMPY_GPI.FFTW_GROUP'>"
p648
sg46
S'Dimension[-2]'
p649
sg397
(dp650
S'outport'
p651
I00
sS'quietval'
p652
Nsg401
(dp653
g403
I178
sg404
I178
sg405
I00
ssS'collapsed'
p654
I00
sS'inport'
p655
I00
sS'visible'
p656
I01
sS'id'
p657
I4639014544
ssa(dp658
g394
S"<class '/opt/gpi/lib/core/math/GPI/FFT_NUMPY_GPI.FFTW_GROUP'>"
p659
sg46
S'Dimension[-3]'
p660
sg397
(dp661
S'outport'
p662
I00
sS'quietval'
p663
Nsg401
(dp664
g403
I3
sg404
I3
sg405
I00
ssS'collapsed'
p665
I00
sS'inport'
p666
I00
sS'visible'
p667
I01
sS'id'
p668
I4639016664
ssa(dp669
g394
S"<class '/opt/gpi/lib/core/math/GPI/FFT_NUMPY_GPI.FFTW_GROUP'>"
p670
sg46
S'Dimension[-4]'
p671
sg397
(dp672
S'outport'
p673
I00
sS'quietval'
p674
Nsg401
(dp675
g403
I2
sg404
I2
sg405
I00
ssS'collapsed'
p676
I00
sS'inport'
p677
I00
sS'visible'
p678
I01
sS'id'
p679
I4639018640
ssa(dp680
g394
S"<class '/opt/gpi/lib/core/math/GPI/FFT_NUMPY_GPI.FFTW_GROUP'>"
p681
sg46
S'Dimension[-5]'
p682
sg397
(dp683
S'outport'
p684
I00
sS'quietval'
p685
Nsg401
(dp686
g403
I12
sg404
I12
sg405
I00
ssS'collapsed'
p687
I00
sS'inport'
p688
I00
sS'visible'
p689
I01
sS'id'
p690
I4639020760
ssa(dp691
g394
S"<class '/opt/gpi/lib/core/math/GPI/FFT_NUMPY_GPI.FFTW_GROUP'>"
p692
sg46
S'Dimension[-6]'
p693
sg397
(dp694
S'outport'
p695
I00
sS'quietval'
p696
Nsg401
(dp697
g403
I1
sg404
I1
sg405
I00
ssS'collapsed'
p698
I00
sS'inport'
p699
I00
sS'visible'
p700
I00
sS'id'
p701
I4639022736
ssa(dp702
g394
S"<class '/opt/gpi/lib/core/math/GPI/FFT_NUMPY_GPI.FFTW_GROUP'>"
p703
sg46
S'Dimension[-7]'
p704
sg397
(dp705
S'outport'
p706
I00
sS'quietval'
p707
Nsg401
(dp708
g403
I1
sg404
I1
sg405
I00
ssS'collapsed'
p709
I00
sS'inport'
p710
I00
sS'visible'
p711
I00
sS'id'
p712
I4639024856
ssa(dp713
g394
S"<class '/opt/gpi/lib/core/math/GPI/FFT_NUMPY_GPI.FFTW_GROUP'>"
p714
sg46
S'Dimension[-8]'
p715
sg397
(dp716
S'outport'
p717
I00
sS'quietval'
p718
Nsg401
(dp719
g403
I1
sg404
I1
sg405
I00
ssS'collapsed'
p720
I00
sS'inport'
p721
I00
sS'visible'
p722
I00
sS'id'
p723
I4639026832
ssa(dp724
g394
S"<class '/opt/gpi/lib/core/math/GPI/FFT_NUMPY_GPI.FFTW_GROUP'>"
p725
sg46
S'Dimension[-9]'
p726
sg397
(dp727
S'outport'
p728
I00
sS'quietval'
p729
Nsg401
(dp730
g403
I1
sg404
I1
sg405
I00
ssS'collapsed'
p731
I00
sS'inport'
p732
I00
sS'visible'
p733
I00
sS'id'
p734
I4639037144
ssa(dp735
g394
S"<class 'gpi.widgets.PushButton'>"
p736
sg46
g405
sg397
(dp737
S'outport'
p738
I00
sS'quietval'
p739
Nsg401
I01
sS'collapsed'
p740
I00
sS'inport'
p741
I00
sS'visible'
p742
I01
sS'toggle'
p743
I01
sS'button_title'
p744
g508
sS'id'
p745
I4639039120
ssa(dp746
g394
S"<class 'gpi.widgets.PushButton'>"
p747
sg46
g512
sg397
(dp748
S'outport'
p749
I00
sS'quietval'
p750
Nsg401
I01
sS'collapsed'
p751
I00
sS'inport'
p752
I00
sS'visible'
p753
I01
sS'toggle'
p754
I01
sS'button_title'
p755
VFORWARD
p756
sS'id'
p757
I4639040024
ssasg42
g43
ssg44
S'0.850013971329'
p758
sg46
g524
sg48
(lp759
F43.7423469387755
aF-16.270408163265287
asg53
(lp760
(dp761
g70
g123
sg69
I0
sg56
(lp762
(dp763
g59
(dp764
g61
g123
sg64
I4639040784
sg63
I0
sg65
I4638973128
ssg66
(dp765
g61
g68
sg64
I4663714632
sg63
I0
sg65
I4639099496
ssasg71
Nsg72
I65540
sg73
I100
sg50
I4639040784
sa(dp766
g70
g68
sg69
I0
sg56
(lp767
(dp768
g59
(dp769
g61
g123
sg64
I4636420560
sg63
I0
sg65
I4636005192
ssg66
(dp770
g61
g68
sg64
I4639040936
sg63
I0
sg65
I4638973128
ssasg71
Nsg72
I65541
sg73
Nsg50
I4639040936
sasg51
S'0.850013971329'
p771
sg539
g540
sg50
I4638973128
sg171
S'1.70002794266'
p772
sa(dp773
g38
(dp774
g40
(lp775
(dp776
g394
S"<class 'gpi.widgets.ExclusivePushButtons'>"
p777
sg46
S'R I M P'
p778
sg397
(dp779
S'outport'
p780
I00
sS'quietval'
p781
Nsg401
I2
sS'collapsed'
p782
I00
sS'inport'
p783
I00
sS'visible'
p784
I01
sS'id'
p785
I4638962656
ssa(dp786
g394
S"<class 'gpi.widgets.ExclusivePushButtons'>"
p787
sg46
S'Units'
p788
sg397
(dp789
S'outport'
p790
I00
sS'quietval'
p791
Nsg401
I1
sS'collapsed'
p792
I00
sS'inport'
p793
I00
sS'visible'
p794
I00
sS'id'
p795
I4638963568
ssa(dp796
g394
S"<class 'gpi.widgets.PushButton'>"
p797
sg46
S'UnWrap'
p798
sg397
(dp799
S'outport'
p800
I00
sS'quietval'
p801
Nsg401
I00
sS'collapsed'
p802
I00
sS'inport'
p803
I00
sS'visible'
p804
I00
sS'toggle'
p805
I01
sS'button_title'
p806
g508
sS'id'
p807
I4638964328
ssa(dp808
g394
S"<class 'gpi.widgets.Slider'>"
p809
sg46
S'UnWrap Dimension'
p810
sg397
(dp811
S'outport'
p812
I00
sS'quietval'
p813
Nsg401
I0
sS'min'
p814
I-3
sS'max'
p815
I2
sS'collapsed'
p816
I00
sS'inport'
p817
I00
sS'visible'
p818
I00
sS'id'
p819
I4638965088
ssasg42
S'Mag'
p820
ssg44
S'0.459528803825'
p821
sg46
S'RIMP'
p822
sg48
(lp823
F-78.72193877551022
aF24.658163265306158
asg53
(lp824
(dp825
g70
g123
sg69
I0
sg56
(lp826
(dp827
g59
(dp828
g61
g123
sg64
I4638970544
sg63
I0
sg65
I4638943696
ssg66
(dp829
g61
g125
sg64
I4663813544
sg63
I0
sg65
I4663800952
ssasg71
Nsg72
I65540
sg73
I100
sg50
I4638970544
sa(dp830
g70
g68
sg69
I0
sg56
(lp831
(dp832
g59
(dp833
g61
g123
sg64
I4636500048
sg63
I0
sg65
I4636472136
ssg66
(dp834
g61
g68
sg64
I4638970696
sg63
I0
sg65
I4638943696
ssasg71
Nsg72
I65541
sg73
Nsg50
I4638970696
sasg51
S'0.207015179707'
p835
sg539
S'core.math.RIMP'
p836
sg50
I4638943696
sg171
S'0.572401046753'
p837
sa(dp838
g38
(dp839
g40
(lp840
(dp841
g394
S"<class '/opt/gpi/lib/core/math/GPI/FFT_NUMPY_GPI.FFTW_GROUP'>"
p842
sg46
S'Dimension[-1]'
p843
sg397
(dp844
S'outport'
p845
I00
sS'quietval'
p846
Nsg401
(dp847
g403
I480
sg404
I240
sg405
I01
ssS'collapsed'
p848
I00
sS'inport'
p849
I00
sS'visible'
p850
I01
sS'id'
p851
I4636549960
ssa(dp852
g394
S"<class '/opt/gpi/lib/core/math/GPI/FFT_NUMPY_GPI.FFTW_GROUP'>"
p853
sg46
S'Dimension[-2]'
p854
sg397
(dp855
S'outport'
p856
I00
sS'quietval'
p857
Nsg401
(dp858
g403
I480
sg404
I178
sg405
I01
ssS'collapsed'
p859
I00
sS'inport'
p860
I00
sS'visible'
p861
I01
sS'id'
p862
I4636551936
ssa(dp863
g394
S"<class '/opt/gpi/lib/core/math/GPI/FFT_NUMPY_GPI.FFTW_GROUP'>"
p864
sg46
S'Dimension[-3]'
p865
sg397
(dp866
S'outport'
p867
I00
sS'quietval'
p868
Nsg401
(dp869
g403
I12
sg404
I12
sg405
I00
ssS'collapsed'
p870
I00
sS'inport'
p871
I00
sS'visible'
p872
I01
sS'id'
p873
I4636554056
ssa(dp874
g394
S"<class '/opt/gpi/lib/core/math/GPI/FFT_NUMPY_GPI.FFTW_GROUP'>"
p875
sg46
S'Dimension[-4]'
p876
sg397
(dp877
S'outport'
p878
I00
sS'quietval'
p879
Nsg401
(dp880
g403
I1
sg404
I1
sg405
I00
ssS'collapsed'
p881
I00
sS'inport'
p882
I00
sS'visible'
p883
I00
sS'id'
p884
I4636556032
ssa(dp885
g394
S"<class '/opt/gpi/lib/core/math/GPI/FFT_NUMPY_GPI.FFTW_GROUP'>"
p886
sg46
S'Dimension[-5]'
p887
sg397
(dp888
S'outport'
p889
I00
sS'quietval'
p890
Nsg401
(dp891
g403
I1
sg404
I1
sg405
I00
ssS'collapsed'
p892
I00
sS'inport'
p893
I00
sS'visible'
p894
I00
sS'id'
p895
I4636558152
ssa(dp896
g394
S"<class '/opt/gpi/lib/core/math/GPI/FFT_NUMPY_GPI.FFTW_GROUP'>"
p897
sg46
S'Dimension[-6]'
p898
sg397
(dp899
S'outport'
p900
I00
sS'quietval'
p901
Nsg401
(dp902
g403
I1
sg404
I1
sg405
I00
ssS'collapsed'
p903
I00
sS'inport'
p904
I00
sS'visible'
p905
I00
sS'id'
p906
I4636560128
ssa(dp907
g394
S"<class '/opt/gpi/lib/core/math/GPI/FFT_NUMPY_GPI.FFTW_GROUP'>"
p908
sg46
S'Dimension[-7]'
p909
sg397
(dp910
S'outport'
p911
I00
sS'quietval'
p912
Nsg401
(dp913
g403
I1
sg404
I1
sg405
I00
ssS'collapsed'
p914
I00
sS'inport'
p915
I00
sS'visible'
p916
I00
sS'id'
p917
I4636562248
ssa(dp918
g394
S"<class '/opt/gpi/lib/core/math/GPI/FFT_NUMPY_GPI.FFTW_GROUP'>"
p919
sg46
S'Dimension[-8]'
p920
sg397
(dp921
S'outport'
p922
I00
sS'quietval'
p923
Nsg401
(dp924
g403
I1
sg404
I1
sg405
I00
ssS'collapsed'
p925
I00
sS'inport'
p926
I00
sS'visible'
p927
I00
sS'id'
p928
I4636564224
ssa(dp929
g394
S"<class '/opt/gpi/lib/core/math/GPI/FFT_NUMPY_GPI.FFTW_GROUP'>"
p930
sg46
S'Dimension[-9]'
p931
sg397
(dp932
S'outport'
p933
I00
sS'quietval'
p934
Nsg401
(dp935
g403
I1
sg404
I1
sg405
I00
ssS'collapsed'
p936
I00
sS'inport'
p937
I00
sS'visible'
p938
I00
sS'id'
p939
I4636566344
ssa(dp940
g394
S"<class 'gpi.widgets.PushButton'>"
p941
sg46
g405
sg397
(dp942
S'outport'
p943
I00
sS'quietval'
p944
Nsg401
I01
sS'collapsed'
p945
I00
sS'inport'
p946
I00
sS'visible'
p947
I01
sS'toggle'
p948
I01
sS'button_title'
p949
g508
sS'id'
p950
I4636568320
ssa(dp951
g394
S"<class 'gpi.widgets.PushButton'>"
p952
sg46
g512
sg397
(dp953
S'outport'
p954
I00
sS'quietval'
p955
Nsg401
I00
sS'collapsed'
p956
I00
sS'inport'
p957
I00
sS'visible'
p958
I01
sS'toggle'
p959
I01
sS'button_title'
p960
VFORWARD
p961
sS'id'
p962
I4636569080
ssasg42
g43
ssg44
S'1.0764939785'
p963
sg46
g524
sg48
(lp964
F43.7423469387755
aF-16.270408163265287
asg53
(lp965
(dp966
g70
g123
sg69
I0
sg56
(lp967
(dp968
g59
(dp969
g61
g123
sg64
I4636569984
sg63
I0
sg65
I4636502328
ssg66
(dp970
g61
g68
sg64
I4636420712
sg63
I0
sg65
I4636005192
ssasg71
Nsg72
I65540
sg73
I100
sg50
I4636569984
sa(dp971
g70
g68
sg69
I0
sg56
(lp972
(dp973
g59
(dp974
g61
g62
sg64
I4663813392
sg63
I0
sg65
I4663800952
ssg66
(dp975
g61
g68
sg64
I4636570136
sg63
I0
sg65
I4636502328
ssasg71
Nsg72
I65541
sg73
Nsg50
I4636570136
sasg51
S'0.482114520614'
p976
sg539
g540
sg50
I4636502328
sg171
S'1.29201889038'
p977
sa(dp978
g38
(dp979
g40
(lp980
(dp981
g394
S"<class 'gpi.widgets.TextBox'>"
p982
sg46
S'Status'
p983
sg397
(dp984
S'outport'
p985
I00
sS'quietval'
p986
Nsg401
S'Ready'
p987
sS'collapsed'
p988
I00
sS'inport'
p989
I00
sS'visible'
p990
I01
sS'wordwrap'
p991
I00
sS'id'
p992
I4636474568
ssa(dp993
g394
S"<class 'gpi.widgets.TextBox'>"
p994
sg46
S'Info'
p995
sg397
(dp996
S'outport'
p997
I00
sS'quietval'
p998
Nsg401
S'input: (12, 480, 480)\noutput: (480, 480)'
p999
sS'collapsed'
p1000
I00
sS'inport'
p1001
I00
sS'visible'
p1002
I01
sS'wordwrap'
p1003
I00
sS'id'
p1004
I4636475024
ssa(dp1005
g394
S"<class 'gpi.widgets.ExclusiveRadioButtons'>"
p1006
sg46
S'Operation'
p1007
sg397
(dp1008
S'outport'
p1009
I00
sS'quietval'
p1010
Nsg401
I5
sS'collapsed'
p1011
I00
sS'inport'
p1012
I00
sS'visible'
p1013
I01
sS'id'
p1014
I4636483816
ssa(dp1015
g394
S"<class 'gpi.widgets.PushButton'>"
p1016
sg46
S'Compute'
p1017
sg397
(dp1018
S'outport'
p1019
I00
sS'quietval'
p1020
Nsg401
I01
sS'collapsed'
p1021
I00
sS'inport'
p1022
I00
sS'visible'
p1023
I01
sS'toggle'
p1024
I01
sS'button_title'
p1025
g508
sS'id'
p1026
I4636485944
ssa(dp1027
g394
S"<class 'gpi.widgets.PushButton'>"
p1028
sg46
S'Collapse All'
p1029
sg397
(dp1030
S'outport'
p1031
I00
sS'quietval'
p1032
Nsg401
I00
sS'collapsed'
p1033
I00
sS'inport'
p1034
I00
sS'visible'
p1035
I01
sS'toggle'
p1036
I01
sS'button_title'
p1037
g508
sS'id'
p1038
I4636486704
ssa(dp1039
g394
S"<class 'gpi.widgets.ExclusivePushButtons'>"
p1040
sg46
S'Dimension'
p1041
sg397
(dp1042
S'outport'
p1043
I00
sS'quietval'
p1044
Nsg401
I2
sS'collapsed'
p1045
I00
sS'inport'
p1046
I00
sS'visible'
p1047
I01
sS'id'
p1048
I4636487464
ssa(dp1049
g394
S"<class 'gpi.widgets.PushButton'>"
p1050
sg46
S'Span Entire Dimension'
p1051
sg397
(dp1052
S'outport'
p1053
I00
sS'quietval'
p1054
Nsg401
I01
sS'collapsed'
p1055
I00
sS'inport'
p1056
I00
sS'visible'
p1057
I01
sS'toggle'
p1058
I01
sS'button_title'
p1059
g508
sS'id'
p1060
I4636492616
ssa(dp1061
g394
S"<class 'gpi.widgets.Slider'>"
p1062
sg46
S'Dimension Start_Index'
p1063
sg397
(dp1064
S'outport'
p1065
I00
sS'quietval'
p1066
Nsg401
I0
sS'min'
p1067
I0
sS'max'
p1068
I12
sS'collapsed'
p1069
I00
sS'inport'
p1070
I00
sS'visible'
p1071
I00
sS'id'
p1072
I4636493376
ssa(dp1073
g394
S"<class 'gpi.widgets.Slider'>"
p1074
sg46
S'Dimension Stop_Index'
p1075
sg397
(dp1076
S'outport'
p1077
I00
sS'quietval'
p1078
Nsg401
I0
sS'min'
p1079
I0
sS'max'
p1080
I12
sS'collapsed'
p1081
I00
sS'inport'
p1082
I00
sS'visible'
p1083
I00
sS'id'
p1084
I4636494592
ssasg42
g43
ssg44
S'0.123922983805'
p1085
sg46
S'Collapse'
p1086
sg48
(lp1087
F-78.72193877551022
aF54.65816326530616
asg53
(lp1088
(dp1089
g70
g123
sg69
I0
sg56
(lp1090
(dp1091
g59
(dp1092
g61
g123
sg64
I4636500048
sg63
I0
sg65
I4636472136
ssg66
(dp1093
g61
g68
sg64
I4638970696
sg63
I0
sg65
I4638943696
ssasg71
Nsg72
I65540
sg73
I100
sg50
I4636500048
sa(dp1094
g70
S'out1'
p1095
sg69
I0
sg56
(lp1096
(dp1097
g59
(dp1098
g61
g123
sg64
I4638941568
sg63
I0
sg65
I4636572112
ssg66
(dp1099
g61
g1095
sg64
I4636500200
sg63
I0
sg65
I4636472136
ssasg71
Nsg72
I65541
sg73
Nsg50
I4636500200
sa(dp1100
g70
S'out2'
p1101
sg69
I1
sg56
(lp1102
sg71
Nsg72
I65541
sg73
Nsg50
I4636500352
sasg51
S'0.0562120715406'
p1103
sg539
S'core.math.Collapse'
p1104
sg50
I4636472136
sg171
S'0.146818876266'
p1105
sa(dp1106
g38
(dp1107
g40
(lp1108
(dp1109
g394
S"<class 'gpi.widgets.TextBox'>"
p1110
sg46
S'I/O Info:'
p1111
sg397
(dp1112
S'outport'
p1113
I00
sS'quietval'
p1114
Nsg401
S"created: 13/02/2014\naccessed: 01/04/2014\nmodified: 13/02/2014\nUID: 501\nGID: 80\nfile size (bytes): 51102720\nStandard Data Info:\n  dim labels: ['ch' 'avg' 'loc' 'py' 'samp']\n  dimensions: [12, 2, 3, 178, 480]\n  type: complex64\nNoise Data Info:\n  dim labels: ['ch' 'samp']\n  dimensions: [12, 19680]\n  type: complex64\nHeader Type: '.list'\n"
p1115
sS'collapsed'
p1116
I00
sS'inport'
p1117
I00
sS'visible'
p1118
I01
sS'wordwrap'
p1119
I00
sS'id'
p1120
I4639065968
ssa(dp1121
g394
S"<class 'gpi.widgets.OpenFileBrowser'>"
p1122
sg46
S'File Browser'
p1123
sg397
(dp1124
S'outport'
p1125
I00
sS'quietval'
p1126
Nsg401
S'/opt/gpi/doc/Examples/FFE_MS.data'
p1127
sS'collapsed'
p1128
I00
sS'inport'
p1129
I00
sS'visible'
p1130
I01
sS'id'
p1131
I4639066424
ssa(dp1132
g394
S"<class 'gpi.widgets.PushButton'>"
p1133
sg46
S'ky chop'
p1134
sg397
(dp1135
S'outport'
p1136
I00
sS'quietval'
p1137
Nsg401
I01
sS'collapsed'
p1138
I00
sS'inport'
p1139
I00
sS'visible'
p1140
I01
sS'toggle'
p1141
I01
sS'button_title'
p1142
VON
p1143
sS'id'
p1144
I4639067032
ssa(dp1145
g394
S"<class 'gpi.widgets.PushButton'>"
p1146
sg46
S'kz chop'
p1147
sg397
(dp1148
S'outport'
p1149
I00
sS'quietval'
p1150
Nsg401
I00
sS'collapsed'
p1151
I00
sS'inport'
p1152
I00
sS'visible'
p1153
I01
sS'toggle'
p1154
I01
sS'button_title'
p1155
VOFF
p1156
sS'id'
p1157
I4639067792
ssa(dp1158
g394
S"<class 'gpi.widgets.PushButton'>"
p1159
sg46
S'PROPELLER'
p1160
sg397
(dp1161
S'outport'
p1162
I00
sS'quietval'
p1163
Nsg401
I00
sS'collapsed'
p1164
I00
sS'inport'
p1165
I00
sS'visible'
p1166
I01
sS'toggle'
p1167
I01
sS'button_title'
p1168
VOFF
p1169
sS'id'
p1170
I4639072792
ssa(dp1171
g394
S"<class 'gpi.widgets.PushButton'>"
p1172
sg46
S'Apply Corrections'
p1173
sg397
(dp1174
S'outport'
p1175
I00
sS'quietval'
p1176
Nsg401
I01
sS'collapsed'
p1177
I00
sS'inport'
p1178
I00
sS'visible'
p1179
I00
sS'toggle'
p1180
I01
sS'button_title'
p1181
VON
p1182
sS'id'
p1183
I4639073552
ssa(dp1184
g394
S"<class 'gpi.widgets.ExclusivePushButtons'>"
p1185
sg46
S'Re-scale Type'
p1186
sg397
(dp1187
S'outport'
p1188
I00
sS'quietval'
p1189
Nsg401
I0
sS'collapsed'
p1190
I00
sS'inport'
p1191
I00
sS'visible'
p1192
I00
sS'id'
p1193
I4639074312
ssa(dp1194
g394
S"<class 'gpi.widgets.ExclusiveRadioButtons'>"
p1195
sg46
S'Execution Type'
p1196
sg397
(dp1197
S'outport'
p1198
I00
sS'quietval'
p1199
Nsg401
I1
sS'collapsed'
p1200
I01
sS'inport'
p1201
I00
sS'visible'
p1202
I01
sS'id'
p1203
I4639075072
ssa(dp1204
g394
S"<class 'gpi.widgets.PushButton'>"
p1205
sg46
S'Read Param Only'
p1206
sg397
(dp1207
S'outport'
p1208
I00
sS'quietval'
p1209
Nsg401
I00
sS'collapsed'
p1210
I00
sS'inport'
p1211
I00
sS'visible'
p1212
I01
sS'toggle'
p1213
I01
sS'button_title'
p1214
VOFF
p1215
sS'id'
p1216
I4639075832
ssa(dp1217
g394
S"<class 'gpi.widgets.PushButton'>"
p1218
sg46
S'Data Downsampling'
p1219
sg397
(dp1220
S'outport'
p1221
I00
sS'quietval'
p1222
Nsg401
I00
sS'collapsed'
p1223
I00
sS'inport'
p1224
I00
sS'visible'
p1225
I01
sS'toggle'
p1226
I01
sS'button_title'
p1227
VOFF
p1228
sS'id'
p1229
I4639084928
ssa(dp1230
g394
S"<class 'gpi.widgets.ExclusiveRadioButtons'>"
p1231
sg46
S'Downsampling Mode'
p1232
sg397
(dp1233
S'outport'
p1234
I00
sS'quietval'
p1235
Nsg401
I1
sS'collapsed'
p1236
I00
sS'inport'
p1237
I00
sS'visible'
p1238
I00
sS'id'
p1239
I4639085688
ssa(dp1240
g394
S"<class 'gpi.widgets.SpinBox'>"
p1241
sg46
S'Padding Width'
p1242
sg397
(dp1243
S'outport'
p1244
I00
sS'quietval'
p1245
Nsg401
I64
sS'min'
p1246
I0
sS'max'
p1247
I256
sS'collapsed'
p1248
I01
sS'wrapping'
p1249
I00
sS'immediate'
p1250
I00
sS'label'
p1251
g508
sS'singlestep'
p1252
I2
sS'visible'
p1253
I00
sS'inport'
p1254
I00
sS'id'
p1255
I4639086448
ssa(dp1256
g394
S"<class 'gpi.widgets.Slider'>"
p1257
sg46
S'Average Window Width'
p1258
sg397
(dp1259
S'outport'
p1260
I00
sS'quietval'
p1261
Nsg401
I1
sS'min'
p1262
I1
sS'max'
p1263
I16
sS'collapsed'
p1264
I01
sS'inport'
p1265
I00
sS'visible'
p1266
I00
sS'id'
p1267
I4639087360
ssa(dp1268
g394
S"<class 'gpi.widgets.Slider'>"
p1269
sg46
S'Hanning Filter Width (%)'
p1270
sg397
(dp1271
S'outport'
p1272
I00
sS'quietval'
p1273
Nsg401
I100
sS'min'
p1274
I0
sS'max'
p1275
I100
sS'collapsed'
p1276
I01
sS'inport'
p1277
I00
sS'visible'
p1278
I00
sS'id'
p1279
I4639088720
ssa(dp1280
g394
S"<class 'gpi.widgets.Slider'>"
p1281
sg46
S'Hanning Filter Window (%)'
p1282
sg397
(dp1283
S'outport'
p1284
I00
sS'quietval'
p1285
Nsg401
I100
sS'min'
p1286
I0
sS'max'
p1287
I100
sS'collapsed'
p1288
I01
sS'inport'
p1289
I00
sS'visible'
p1290
I00
sS'id'
p1291
I4639089936
ssa(dp1292
g394
S"<class 'gpi.widgets.Slider'>"
p1293
sg46
S'Retained Data Length'
p1294
sg397
(dp1295
S'outport'
p1296
I00
sS'quietval'
p1297
Nsg401
I16
sS'min'
p1298
I0
sS'max'
p1299
I64
sS'collapsed'
p1300
I01
sS'inport'
p1301
I00
sS'visible'
p1302
I00
sS'id'
p1303
I4639091152
ssasg42
g43
ssg44
S'0.63795264562'
p1304
sg46
S'ReadPhilips'
p1305
sg48
(lp1306
F43.7423469387755
aF-16.270408163265287
asg53
(lp1307
(dp1308
g70
g532
sg69
I0
sg56
(lp1309
(dp1310
g59
(dp1311
g61
g123
sg64
I4663714480
sg63
I0
sg65
I4639099496
ssg66
(dp1312
g61
g532
sg64
I4639092368
sg63
I0
sg65
I4639042912
ssasg71
Nsg72
I65541
sg73
Nsg50
I4639092368
sa(dp1313
g70
S'noise'
p1314
sg69
I1
sg56
(lp1315
sg71
Nsg72
I65541
sg73
Nsg50
I4639092520
sa(dp1316
g70
S'phc'
p1317
sg69
I2
sg56
(lp1318
sg71
Nsg72
I65541
sg73
Nsg50
I4639096912
sa(dp1319
g70
S'user_parms'
p1320
sg69
I3
sg56
(lp1321
sg71
Nsg72
I65541
sg73
Nsg50
I4639097064
sa(dp1322
g70
S'header'
p1323
sg69
I4
sg56
(lp1324
sg71
Nsg72
I65541
sg73
Nsg50
I4639097216
sasg51
S'0.734336299737'
p1325
sg539
S'core.fileIO.ReadPhilips'
p1326
sg50
I4639042912
sg171
S'1.66660284996'
p1327
sa(dp1328
g38
(dp1329
g40
(lp1330
(dp1331
g394
S"<class 'gpi.widgets.TextBox'>"
p1332
sg46
S'I/O Info:'
p1333
sg397
(dp1334
S'outport'
p1335
I00
sS'quietval'
p1336
Nsg401
S'input: (12, 2, 3, 178, 240)\noutput: (12, 178, 240)'
p1337
sS'collapsed'
p1338
I00
sS'inport'
p1339
I00
sS'visible'
p1340
I01
sS'wordwrap'
p1341
I00
sS'id'
p1342
I4636007624
ssa(dp1343
g394
S"<class '/opt/gpi/lib/core/shapers/GPI/Reduce_GPI.ReduceSliders'>"
p1344
sg46
S'Dimension[-1]'
p1345
sg397
(dp1346
S'outport'
p1347
I00
sS'quietval'
p1348
Nsg401
(dp1349
S'width'
p1350
I240
sS'ceiling'
p1351
I240
sS'selection'
p1352
I3
sS'center'
p1353
I121
sS'floor'
p1354
I1
ssS'min'
p1355
I1
sS'max'
p1356
I240
sS'collapsed'
p1357
I00
sS'inport'
p1358
I00
sS'visible'
p1359
I01
sS'id'
p1360
I4636008080
ssa(dp1361
g394
S"<class '/opt/gpi/lib/core/shapers/GPI/Reduce_GPI.ReduceSliders'>"
p1362
sg46
S'Dimension[-2]'
p1363
sg397
(dp1364
S'outport'
p1365
I00
sS'quietval'
p1366
Nsg401
(dp1367
g1350
I178
sg1351
I178
sg1352
I3
sg1353
I90
sg1354
I1
ssS'min'
p1368
I1
sS'max'
p1369
I178
sS'collapsed'
p1370
I00
sS'inport'
p1371
I00
sS'visible'
p1372
I01
sS'id'
p1373
I4636369584
ssa(dp1374
g394
S"<class '/opt/gpi/lib/core/shapers/GPI/Reduce_GPI.ReduceSliders'>"
p1375
sg46
S'Dimension[-3]'
p1376
sg397
(dp1377
S'outport'
p1378
I00
sS'quietval'
p1379
Nsg401
(dp1380
g1350
I1
sg1351
I1
sg1352
I2
sg1353
I1
sg1354
I1
ssS'min'
p1381
I1
sS'max'
p1382
I3
sS'collapsed'
p1383
I00
sS'inport'
p1384
I00
sS'visible'
p1385
I01
sS'id'
p1386
I4636374592
ssa(dp1387
g394
S"<class '/opt/gpi/lib/core/shapers/GPI/Reduce_GPI.ReduceSliders'>"
p1388
sg46
S'Dimension[-4]'
p1389
sg397
(dp1390
S'outport'
p1391
I00
sS'quietval'
p1392
Nsg401
(dp1393
g1350
I1
sg1351
I1
sg1352
I2
sg1353
I1
sg1354
I1
ssS'min'
p1394
I1
sS'max'
p1395
I2
sS'collapsed'
p1396
I00
sS'inport'
p1397
I00
sS'visible'
p1398
I01
sS'id'
p1399
I4636379600
ssa(dp1400
g394
S"<class '/opt/gpi/lib/core/shapers/GPI/Reduce_GPI.ReduceSliders'>"
p1401
sg46
S'Dimension[-5]'
p1402
sg397
(dp1403
S'outport'
p1404
I00
sS'quietval'
p1405
Nsg401
(dp1406
g1350
I12
sg1351
I12
sg1352
I3
sg1353
I7
sg1354
I1
ssS'min'
p1407
I1
sS'max'
p1408
I12
sS'collapsed'
p1409
I00
sS'inport'
p1410
I00
sS'visible'
p1411
I01
sS'id'
p1412
I4636384608
ssa(dp1413
g394
S"<class '/opt/gpi/lib/core/shapers/GPI/Reduce_GPI.ReduceSliders'>"
p1414
sg46
S'Dimension[-6]'
p1415
sg397
(dp1416
S'outport'
p1417
I00
sS'quietval'
p1418
Nsg401
(dp1419
g1350
I100
sg1351
I100
sg1352
I3
sg1353
I51
sg1354
I1
ssS'min'
p1420
I1
sS'max'
p1421
I100
sS'collapsed'
p1422
I00
sS'inport'
p1423
I00
sS'visible'
p1424
I00
sS'id'
p1425
I4636393856
ssa(dp1426
g394
S"<class '/opt/gpi/lib/core/shapers/GPI/Reduce_GPI.ReduceSliders'>"
p1427
sg46
S'Dimension[-7]'
p1428
sg397
(dp1429
S'outport'
p1430
I00
sS'quietval'
p1431
Nsg401
(dp1432
g1350
I100
sg1351
I100
sg1352
I3
sg1353
I51
sg1354
I1
ssS'min'
p1433
I1
sS'max'
p1434
I100
sS'collapsed'
p1435
I00
sS'inport'
p1436
I00
sS'visible'
p1437
I00
sS'id'
p1438
I4636398864
ssa(dp1439
g394
S"<class '/opt/gpi/lib/core/shapers/GPI/Reduce_GPI.ReduceSliders'>"
p1440
sg46
S'Dimension[-8]'
p1441
sg397
(dp1442
S'outport'
p1443
I00
sS'quietval'
p1444
Nsg401
(dp1445
g1350
I100
sg1351
I100
sg1352
I3
sg1353
I51
sg1354
I1
ssS'min'
p1446
I1
sS'max'
p1447
I100
sS'collapsed'
p1448
I00
sS'inport'
p1449
I00
sS'visible'
p1450
I00
sS'id'
p1451
I4636403872
ssa(dp1452
g394
S"<class '/opt/gpi/lib/core/shapers/GPI/Reduce_GPI.ReduceSliders'>"
p1453
sg46
S'Dimension[-9]'
p1454
sg397
(dp1455
S'outport'
p1456
I00
sS'quietval'
p1457
Nsg401
(dp1458
g1350
I100
sg1351
I100
sg1352
I3
sg1353
I51
sg1354
I1
ssS'min'
p1459
I1
sS'max'
p1460
I100
sS'collapsed'
p1461
I00
sS'inport'
p1462
I00
sS'visible'
p1463
I00
sS'id'
p1464
I4636408880
ssa(dp1465
g394
S"<class '/opt/gpi/lib/core/shapers/GPI/Reduce_GPI.ReduceSliders'>"
p1466
sg46
S'Dimension[-10]'
p1467
sg397
(dp1468
S'outport'
p1469
I00
sS'quietval'
p1470
Nsg401
(dp1471
g1350
I100
sg1351
I100
sg1352
I3
sg1353
I51
sg1354
I1
ssS'min'
p1472
I1
sS'max'
p1473
I100
sS'collapsed'
p1474
I00
sS'inport'
p1475
I00
sS'visible'
p1476
I00
sS'id'
p1477
I4636414032
ssa(dp1478
g394
S"<class 'gpi.widgets.PushButton'>"
p1479
sg46
S'Mask'
p1480
sg397
(dp1481
S'outport'
p1482
I00
sS'quietval'
p1483
Nsg401
I00
sS'collapsed'
p1484
I00
sS'inport'
p1485
I00
sS'visible'
p1486
I01
sS'toggle'
p1487
I01
sS'button_title'
p1488
g508
sS'id'
p1489
I4636419040
ssa(dp1490
g394
S"<class 'gpi.widgets.PushButton'>"
p1491
sg46
g1017
sg397
(dp1492
S'outport'
p1493
I00
sS'quietval'
p1494
Nsg401
I01
sS'collapsed'
p1495
I00
sS'inport'
p1496
I00
sS'visible'
p1497
I01
sS'toggle'
p1498
I01
sS'button_title'
p1499
g508
sS'id'
p1500
I4636419800
ssasg42
g43
ssg44
S'0.212509950002'
p1501
sg46
S'Reduce'
p1502
sg48
(lp1503
F43.7423469387755
aF-16.270408163265287
asg53
(lp1504
(dp1505
g70
g123
sg69
I0
sg56
(lp1506
(dp1507
g59
(dp1508
g61
g123
sg64
I4636420560
sg63
I0
sg65
I4636005192
ssg66
(dp1509
g61
g68
sg64
I4639040936
sg63
I0
sg65
I4638973128
ssasg71
Nsg72
I65540
sg73
I100
sg50
I4636420560
sa(dp1510
g70
g68
sg69
I0
sg56
(lp1511
(dp1512
g59
(dp1513
g61
g123
sg64
I4636569984
sg63
I0
sg65
I4636502328
ssg66
(dp1514
g61
g68
sg64
I4636420712
sg63
I0
sg65
I4636005192
ssasg71
Nsg72
I65541
sg73
Nsg50
I4636420712
sa(dp1515
g70
S'mask'
p1516
sg69
I1
sg56
(lp1517
sg71
Nsg72
I65541
sg73
Nsg50
I4636420864
sasg51
S'0.0966762922177'
p1518
sg539
S'core.shapers.Reduce'
p1519
sg50
I4636005192
sg171
S'0.245193958282'
p1520
sa(dp1521
g38
(dp1522
g40
(lp1523
(dp1524
g394
S"<class 'gpi.widgets.ExclusivePushButtons'>"
p1525
sg46
S'Complex Display'
p1526
sg397
(dp1527
S'outport'
p1528
I00
sS'quietval'
p1529
Nsg401
I4
sS'collapsed'
p1530
I00
sS'inport'
p1531
I00
sS'visible'
p1532
I00
sS'id'
p1533
I4638917600
ssa(dp1534
g394
S"<class 'gpi.widgets.SpinBox'>"
p1535
sg46
S'Edge Pixels'
p1536
sg397
(dp1537
S'outport'
p1538
I00
sS'quietval'
p1539
Nsg401
I0
sS'min'
p1540
I0
sS'max'
p1541
I2147483647
sS'collapsed'
p1542
I00
sS'wrapping'
p1543
I00
sS'immediate'
p1544
I00
sS'label'
p1545
g508
sS'singlestep'
p1546
I1
sS'visible'
p1547
I00
sS'inport'
p1548
I00
sS'id'
p1549
I4638918664
ssa(dp1550
g394
S"<class 'gpi.widgets.SpinBox'>"
p1551
sg46
S'Black Pixels'
p1552
sg397
(dp1553
S'outport'
p1554
I00
sS'quietval'
p1555
Nsg401
I0
sS'min'
p1556
I0
sS'max'
p1557
I2147483647
sS'collapsed'
p1558
I00
sS'wrapping'
p1559
I00
sS'immediate'
p1560
I00
sS'label'
p1561
g508
sS'singlestep'
p1562
I1
sS'visible'
p1563
I00
sS'inport'
p1564
I00
sS'id'
p1565
I4638919576
ssa(dp1566
g394
S"<class 'gpi.widgets.DisplayBox'>"
p1567
sg46
S'Viewport:'
p1568
sg397
(dp1569
S'outport'
p1570
I00
sS'scale'
p1571
F1.0
sS'quietval'
p1572
Nsg401
NsS'collapsed'
p1573
I01
sS'interp'
p1574
I01
sS'inport'
p1575
I00
sS'visible'
p1576
I01
sS'noscroll'
p1577
I01
sS'points'
p1578
NsS'line'
p1579
NsS'id'
p1580
I4638920488
ssa(dp1581
g394
S"<class '/opt/gpi/lib/core/display/GPI/ImageDisplay_GPI.WindowLevel'>"
p1582
sg46
S'L W F C:'
p1583
sg397
(dp1584
S'outport'
p1585
I00
sS'quietval'
p1586
Nsg401
(dp1587
S'window'
p1588
I100
sg1354
I0
sg1351
I100
sS'level'
p1589
I50
ssS'min'
p1590
I0
sS'max'
p1591
I100
sS'collapsed'
p1592
I01
sS'inport'
p1593
I00
sS'visible'
p1594
I01
sS'id'
p1595
I4638923064
ssa(dp1596
g394
S"<class 'gpi.widgets.ExclusivePushButtons'>"
p1597
sg46
S'Scalar Display'
p1598
sg397
(dp1599
S'outport'
p1600
I00
sS'quietval'
p1601
Nsg401
I0
sS'collapsed'
p1602
I00
sS'inport'
p1603
I00
sS'visible'
p1604
I01
sS'id'
p1605
I4638936112
ssa(dp1606
g394
S"<class 'gpi.widgets.DoubleSpinBox'>"
p1607
sg46
S'Gamma'
p1608
sg397
(dp1609
S'outport'
p1610
I00
sS'quietval'
p1611
Nsg401
F1.0
sS'min'
p1612
F0.1
sS'max'
p1613
F10.0
sS'collapsed'
p1614
I00
sS'wrapping'
p1615
I00
sS'immediate'
p1616
I00
sS'label'
p1617
g508
sS'singlestep'
p1618
F0.05
sS'visible'
p1619
I01
sS'inport'
p1620
I00
sS'decimals'
p1621
I3
sS'id'
p1622
I4638936872
ssa(dp1623
g394
S"<class 'gpi.widgets.ExclusivePushButtons'>"
p1624
sg46
S'Zero Ref'
p1625
sg397
(dp1626
S'outport'
p1627
I00
sS'quietval'
p1628
Nsg401
I0
sS'collapsed'
p1629
I00
sS'inport'
p1630
I00
sS'visible'
p1631
I01
sS'id'
p1632
I4638937928
ssa(dp1633
g394
S"<class 'gpi.widgets.PushButton'>"
p1634
sg46
S'Fix Range'
p1635
sg397
(dp1636
S'outport'
p1637
I00
sS'quietval'
p1638
Nsg401
I00
sS'collapsed'
p1639
I00
sS'inport'
p1640
I00
sS'visible'
p1641
I01
sS'toggle'
p1642
I01
sS'button_title'
p1643
VAuto-Range On
p1644
sS'id'
p1645
I4638938840
ssa(dp1646
g394
S"<class 'gpi.widgets.DoubleSpinBox'>"
p1647
sg46
S'Range Min'
p1648
sg397
(dp1649
S'outport'
p1650
I00
sS'quietval'
p1651
Nsg401
F71.71
sS'min'
p1652
F-1.7976931348623157e+308
sS'max'
p1653
F1.7976931348623157e+308
sS'collapsed'
p1654
I00
sS'wrapping'
p1655
I00
sS'immediate'
p1656
I00
sS'label'
p1657
g508
sS'singlestep'
p1658
F1.0
sS'visible'
p1659
I01
sS'inport'
p1660
I00
sS'decimals'
p1661
I2
sS'id'
p1662
I4638939600
ssa(dp1663
g394
S"<class 'gpi.widgets.DoubleSpinBox'>"
p1664
sg46
S'Range Max'
p1665
sg397
(dp1666
S'outport'
p1667
I00
sS'quietval'
p1668
Nsg401
F13229.31
sS'min'
p1669
F-1.7976931348623157e+308
sS'max'
p1670
F1.7976931348623157e+308
sS'collapsed'
p1671
I00
sS'wrapping'
p1672
I00
sS'immediate'
p1673
I00
sS'label'
p1674
g508
sS'singlestep'
p1675
F1.0
sS'visible'
p1676
I01
sS'inport'
p1677
I00
sS'decimals'
p1678
I2
sS'id'
p1679
I4638940512
ssasg42
g43
ssg44
S'0.013079961141'
p1680
sg46
S'ImageDisplay'
p1681
sg48
(lp1682
F-78.72193877551022
aF84.65816326530616
asg53
(lp1683
(dp1684
g70
g123
sg69
I0
sg56
(lp1685
(dp1686
g59
(dp1687
g61
g123
sg64
I4638941568
sg63
I0
sg65
I4636572112
ssg66
(dp1688
g61
g1095
sg64
I4636500200
sg63
I0
sg65
I4636472136
ssasg71
Nsg72
I65540
sg73
I100
sg50
I4638941568
sa(dp1689
g70
g68
sg69
I0
sg56
(lp1690
sg71
Nsg72
I65541
sg73
Nsg50
I4638941720
sasg51
S'0.0075069842211'
p1691
sg539
S'core.display.ImageDisplay'
p1692
sg50
I4636572112
sg171
S'0.0127198696136'
p1693
sassS'WALLTIME'
p1694
S'2.40438199043'
p1695
s.