(dp0
S'HEADER'
p1
S'This is a GPI Network File'
p2
sS'GPI_VERSION'
p3
S'0.2'
p4
sS'PLATFORM'
p5
(dp6
S'OSX'
p7
S'10.8.5'
p8
sS'PYTHON_VERSION'
p9
S'2.7.6'
p10
sS'PYTHON'
p11
S'CPython'
p12
sS'TOTAL_PHYMEM'
p13
L17179869184L
sS'NUM_CPUS'
p14
I8
sS'HOSTNAME'
p15
S'tron.local'
p16
sg5
S'Darwin-12.5.0-x86_64-i386-64bit'
p17
sS'TOTAL_PHYMEM_STR'
p18
S'16.00 GB'
p19
sS'OS'
p20
S'Darwin'
p21
ssS'DATETIME'
p22
S'Tue Apr  1 17:30:05 2014'
p23
sS'NETWORK_VERSION'
p24
S'2'
p25
sS'layouts'
p26
(lp27
sS'TOTAL_PMEM'
p28
S'151356408'
p29
sS'nodes'
p30
(dp31
S'macroNodes'
p32
(lp33
sg30
(lp34
(dp35
S'widget_settings'
p36
(dp37
S'parms'
p38
(lp39
(dp40
S'type'
p41
S"<class 'gpi.widgets.Slider'>"
p42
sS'name'
p43
S'Dims per Set'
p44
sS'kwargs'
p45
(dp46
S'outport'
p47
I00
sS'quietval'
p48
NsS'val'
p49
I2
sS'min'
p50
I1
sS'max'
p51
I2
sS'collapsed'
p52
I00
sS'inport'
p53
I00
sS'visible'
p54
I01
sS'id'
p55
I4628342184
ssa(dp56
g41
S"<class 'gpi.widgets.SpinBox'>"
p57
sg43
S'Eff MTX XY'
p58
sg45
(dp59
S'outport'
p60
I00
sS'quietval'
p61
Nsg49
I300
sS'min'
p62
I5
sS'max'
p63
I2147483647
sS'collapsed'
p64
I00
sS'wrapping'
p65
I00
sS'immediate'
p66
I00
sS'label'
p67
V
p68
sS'singlestep'
p69
I1
sS'visible'
p70
I01
sS'inport'
p71
I00
sS'id'
p72
I4628343400
ssa(dp73
g41
S"<class 'gpi.widgets.SpinBox'>"
p74
sg43
S'Eff MTX Z'
p75
sg45
(dp76
S'outport'
p77
I00
sS'quietval'
p78
Nsg49
I240
sS'min'
p79
I5
sS'max'
p80
I2147483647
sS'collapsed'
p81
I00
sS'wrapping'
p82
I00
sS'immediate'
p83
I00
sS'label'
p84
g68
sS'singlestep'
p85
I1
sS'visible'
p86
I00
sS'inport'
p87
I00
sS'id'
p88
I4628344312
ssa(dp89
g41
S"<class 'gpi.widgets.DoubleSpinBox'>"
p90
sg43
S'dx (pixels)'
p91
sg45
(dp92
S'outport'
p93
I00
sS'quietval'
p94
Nsg49
F0.0
sS'min'
p95
F-1.7976931348623157e+308
sS'max'
p96
F1.7976931348623157e+308
sS'collapsed'
p97
I00
sS'wrapping'
p98
I00
sS'immediate'
p99
I00
sS'label'
p100
g68
sS'singlestep'
p101
F1.0
sS'visible'
p102
I01
sS'inport'
p103
I00
sS'decimals'
p104
I2
sS'id'
p105
I4628345368
ssa(dp106
g41
S"<class 'gpi.widgets.DoubleSpinBox'>"
p107
sg43
S'dy (pixels)'
p108
sg45
(dp109
S'outport'
p110
I00
sS'quietval'
p111
Nsg49
F-10.0
sS'min'
p112
F-1.7976931348623157e+308
sS'max'
p113
F1.7976931348623157e+308
sS'collapsed'
p114
I00
sS'wrapping'
p115
I00
sS'immediate'
p116
I00
sS'label'
p117
g68
sS'singlestep'
p118
F1.0
sS'visible'
p119
I01
sS'inport'
p120
I00
sS'decimals'
p121
I2
sS'id'
p122
I4628346280
ssa(dp123
g41
S"<class 'gpi.widgets.DoubleSpinBox'>"
p124
sg43
S'dz (pixels)'
p125
sg45
(dp126
S'outport'
p127
I00
sS'quietval'
p128
Nsg49
F0.0
sS'min'
p129
F-1.7976931348623157e+308
sS'max'
p130
F1.7976931348623157e+308
sS'collapsed'
p131
I00
sS'wrapping'
p132
I00
sS'immediate'
p133
I00
sS'label'
p134
g68
sS'singlestep'
p135
F1.0
sS'visible'
p136
I01
sS'inport'
p137
I00
sS'decimals'
p138
I2
sS'id'
p139
I4628347192
ssasS'label'
p140
S''
p141
ssS'avgwalltime'
p142
S'0.510990977287'
p143
sg43
S'Grid'
p144
sS'pos'
p145
(lp146
F12.222222222222229
aF17.555555555555543
asS'ports'
p147
(lp148
(dp149
S'porttitle'
p150
S'data'
p151
sS'portnum'
p152
I0
sS'connections'
p153
(lp154
(dp155
S'dest'
p156
(dp157
S'portName'
p158
g151
sS'portID'
p159
I4628348104
sS'portNum'
p160
I0
sS'nodeID'
p161
I4628310936
ssS'src'
p162
(dp163
g158
S'out'
p164
sg159
I4653682320
sg160
I0
sg161
I4653598576
ssasS'widgetTitle'
p165
NsS'porttype'
p166
I65540
sS'obligation'
p167
I200
sS'id'
p168
I4628348104
sa(dp169
g150
S'coords'
p170
sg152
I1
sg153
(lp171
(dp172
g156
(dp173
g158
g170
sg159
I4628348256
sg160
I1
sg161
I4628310936
ssg162
(dp174
g158
S'crds_out'
p175
sg159
I4628000400
sg160
I0
sg161
I4627935016
ssasg165
Nsg166
I65540
sg167
I100
sg168
I4628348256
sa(dp176
g150
S'weighting'
p177
sg152
I2
sg153
(lp178
(dp179
g156
(dp180
g158
g177
sg159
I4628348408
sg160
I2
sg161
I4628310936
ssg162
(dp181
g158
S'sdc'
p182
sg159
I4628272552
sg160
I0
sg161
I4628259656
ssasg165
Nsg166
I65540
sg167
I200
sg168
I4628348408
sa(dp183
g150
S'params_in'
p184
sg152
I3
sg153
(lp185
sg165
Nsg166
I65540
sg167
I200
sg168
I4628348560
sa(dp186
g150
g164
sg152
I0
sg153
(lp187
(dp188
g156
(dp189
g158
S'in'
p190
sg159
I4627932584
sg160
I0
sg161
I4627848544
ssg162
(dp191
g158
g164
sg159
I4628348712
sg160
I0
sg161
I4628310936
ssasg165
Nsg166
I65541
sg167
Nsg168
I4628348712
sasS'stdwalltime'
p192
S'0.510990977287'
p193
sS'key'
p194
S'core.gridding.Grid'
p195
sg168
I4628310936
sS'walltime'
p196
S'1.02198195457'
p197
sa(dp198
g36
(dp199
g38
(lp200
(dp201
g41
S"<class 'gpi.widgets.ExclusivePushButtons'>"
p202
sg43
S'Complex Display'
p203
sg45
(dp204
S'outport'
p205
I00
sS'quietval'
p206
Nsg49
I4
sS'collapsed'
p207
I00
sS'inport'
p208
I00
sS'visible'
p209
I01
sS'id'
p210
I4628038016
ssa(dp211
g41
S"<class 'gpi.widgets.SpinBox'>"
p212
sg43
S'Edge Pixels'
p213
sg45
(dp214
S'outport'
p215
I00
sS'quietval'
p216
Nsg49
I0
sS'min'
p217
I0
sS'max'
p218
I2147483647
sS'collapsed'
p219
I00
sS'wrapping'
p220
I00
sS'immediate'
p221
I00
sS'label'
p222
g68
sS'singlestep'
p223
I1
sS'visible'
p224
I01
sS'inport'
p225
I00
sS'id'
p226
I4628039080
ssa(dp227
g41
S"<class 'gpi.widgets.SpinBox'>"
p228
sg43
S'Black Pixels'
p229
sg45
(dp230
S'outport'
p231
I00
sS'quietval'
p232
Nsg49
I0
sS'min'
p233
I0
sS'max'
p234
I2147483647
sS'collapsed'
p235
I00
sS'wrapping'
p236
I00
sS'immediate'
p237
I00
sS'label'
p238
g68
sS'singlestep'
p239
I1
sS'visible'
p240
I01
sS'inport'
p241
I00
sS'id'
p242
I4628039992
ssa(dp243
g41
S"<class 'gpi.widgets.DisplayBox'>"
p244
sg43
S'Viewport:'
p245
sg45
(dp246
S'outport'
p247
I00
sS'scale'
p248
F2.0
sS'quietval'
p249
Nsg49
NsS'collapsed'
p250
I00
sS'interp'
p251
I01
sS'inport'
p252
I00
sS'visible'
p253
I01
sS'noscroll'
p254
I01
sS'points'
p255
NsS'line'
p256
NsS'id'
p257
I4628040904
ssa(dp258
g41
S"<class '/opt/gpi/lib/core/display/GPI/ImageDisplay_GPI.WindowLevel'>"
p259
sg43
S'L W F C:'
p260
sg45
(dp261
S'outport'
p262
I00
sS'quietval'
p263
Nsg49
(dp264
S'window'
p265
I100
sS'floor'
p266
I0
sS'ceiling'
p267
I100
sS'level'
p268
I50
ssS'min'
p269
I0
sS'max'
p270
I100
sS'collapsed'
p271
I01
sS'inport'
p272
I00
sS'visible'
p273
I01
sS'id'
p274
I4628055768
ssa(dp275
g41
S"<class 'gpi.widgets.ExclusivePushButtons'>"
p276
sg43
S'Scalar Display'
p277
sg45
(dp278
S'outport'
p279
I00
sS'quietval'
p280
Nsg49
I0
sS'collapsed'
p281
I00
sS'inport'
p282
I00
sS'visible'
p283
I00
sS'id'
p284
I4628060624
ssa(dp285
g41
S"<class 'gpi.widgets.DoubleSpinBox'>"
p286
sg43
S'Gamma'
p287
sg45
(dp288
S'outport'
p289
I00
sS'quietval'
p290
Nsg49
F1.5
sS'min'
p291
F0.1
sS'max'
p292
F10.0
sS'collapsed'
p293
I00
sS'wrapping'
p294
I00
sS'immediate'
p295
I00
sS'label'
p296
g68
sS'singlestep'
p297
F0.05
sS'visible'
p298
I01
sS'inport'
p299
I00
sS'decimals'
p300
I3
sS'id'
p301
I4628061384
ssa(dp302
g41
S"<class 'gpi.widgets.ExclusivePushButtons'>"
p303
sg43
S'Zero Ref'
p304
sg45
(dp305
S'outport'
p306
I00
sS'quietval'
p307
Nsg49
I0
sS'collapsed'
p308
I00
sS'inport'
p309
I00
sS'visible'
p310
I00
sS'id'
p311
I4628062440
ssa(dp312
g41
S"<class 'gpi.widgets.PushButton'>"
p313
sg43
S'Fix Range'
p314
sg45
(dp315
S'outport'
p316
I00
sS'quietval'
p317
Nsg49
I00
sS'collapsed'
p318
I00
sS'inport'
p319
I00
sS'visible'
p320
I01
sS'toggle'
p321
I01
sS'button_title'
p322
VAuto-Range On
p323
sS'id'
p324
I4628063352
ssa(dp325
g41
S"<class 'gpi.widgets.DoubleSpinBox'>"
p326
sg43
S'Range Min'
p327
sg45
(dp328
S'outport'
p329
I00
sS'quietval'
p330
Nsg49
F0.0
sS'min'
p331
F-1.7976931348623157e+308
sS'max'
p332
F1.7976931348623157e+308
sS'collapsed'
p333
I00
sS'wrapping'
p334
I00
sS'immediate'
p335
I00
sS'label'
p336
g68
sS'singlestep'
p337
F1.0
sS'visible'
p338
I00
sS'inport'
p339
I00
sS'decimals'
p340
I2
sS'id'
p341
I4628064112
ssa(dp342
g41
S"<class 'gpi.widgets.DoubleSpinBox'>"
p343
sg43
S'Range Max'
p344
sg45
(dp345
S'outport'
p346
I00
sS'quietval'
p347
Nsg49
F0.01
sS'min'
p348
F-1.7976931348623157e+308
sS'max'
p349
F1.7976931348623157e+308
sS'collapsed'
p350
I00
sS'wrapping'
p351
I00
sS'immediate'
p352
I00
sS'label'
p353
g68
sS'singlestep'
p354
F1.0
sS'visible'
p355
I01
sS'inport'
p356
I00
sS'decimals'
p357
I2
sS'id'
p358
I4628065024
ssasg140
g141
ssg142
S'0.0258705982795'
p359
sg43
S'ImageDisplay'
p360
sg145
(lp361
F12.222222222222229
aF137.55555555555554
asg147
(lp362
(dp363
g150
g190
sg152
I0
sg153
(lp364
(dp365
g156
(dp366
g158
g190
sg159
I4628065936
sg160
I0
sg161
I4628010864
ssg162
(dp367
g158
g164
sg159
I4628236904
sg160
I0
sg161
I4628149064
ssasg165
Nsg166
I65540
sg167
I100
sg168
I4628065936
sa(dp368
g150
g164
sg152
I0
sg153
(lp369
sg165
Nsg166
I65541
sg167
Nsg168
I4628066088
sasg192
S'0.00662854908894'
p370
sg194
S'core.display.ImageDisplay'
p371
sg168
I4628010864
sg196
S'0.0310399532318'
p372
sa(dp373
g36
(dp374
g38
(lp375
(dp376
g41
S"<class 'gpi.widgets.PushButton'>"
p377
sg43
S'computenow'
p378
sg45
(dp379
S'outport'
p380
I00
sS'quietval'
p381
Nsg49
I01
sS'collapsed'
p382
I00
sS'inport'
p383
I00
sS'visible'
p384
I01
sS'toggle'
p385
I01
sS'button_title'
p386
g68
sS'id'
p387
I4628262088
ssa(dp388
g41
S"<class 'gpi.widgets.Slider'>"
p389
sg43
S'Dims per Set'
p390
sg45
(dp391
S'outport'
p392
I00
sS'quietval'
p393
Nsg49
I2
sS'min'
p394
I1
sS'max'
p395
I2
sS'collapsed'
p396
I00
sS'inport'
p397
I00
sS'visible'
p398
I01
sS'id'
p399
I4628267088
ssa(dp400
g41
S"<class 'gpi.widgets.SpinBox'>"
p401
sg43
S'Iterations'
p402
sg45
(dp403
S'outport'
p404
I00
sS'quietval'
p405
Nsg49
I15
sS'min'
p406
I1
sS'max'
p407
I2147483647
sS'collapsed'
p408
I00
sS'wrapping'
p409
I00
sS'immediate'
p410
I00
sS'label'
p411
g68
sS'singlestep'
p412
I1
sS'visible'
p413
I01
sS'inport'
p414
I00
sS'id'
p415
I4628268304
ssa(dp416
g41
S"<class 'gpi.widgets.DoubleSpinBox'>"
p417
sg43
S'Effective MTX XY'
p418
sg45
(dp419
S'outport'
p420
I00
sS'quietval'
p421
Nsg49
F300.0
sS'min'
p422
F2.0
sS'max'
p423
F1.7976931348623157e+308
sS'collapsed'
p424
I00
sS'wrapping'
p425
I00
sS'immediate'
p426
I00
sS'label'
p427
g68
sS'singlestep'
p428
F1.0
sS'visible'
p429
I01
sS'inport'
p430
I00
sS'decimals'
p431
I2
sS'id'
p432
I4628269216
ssa(dp433
g41
S"<class 'gpi.widgets.DoubleSpinBox'>"
p434
sg43
S'Effective MTX Z'
p435
sg45
(dp436
S'outport'
p437
I00
sS'quietval'
p438
Nsg49
F300.0
sS'min'
p439
F2.0
sS'max'
p440
F1.7976931348623157e+308
sS'collapsed'
p441
I00
sS'wrapping'
p442
I00
sS'immediate'
p443
I00
sS'label'
p444
g68
sS'singlestep'
p445
F1.0
sS'visible'
p446
I00
sS'inport'
p447
I00
sS'decimals'
p448
I2
sS'id'
p449
I4628270128
ssa(dp450
g41
S"<class 'gpi.widgets.DoubleSpinBox'>"
p451
sg43
S'Taper'
p452
sg45
(dp453
S'outport'
p454
I00
sS'quietval'
p455
Nsg49
F0.1
sS'min'
p456
F0.0
sS'max'
p457
F1.0
sS'collapsed'
p458
I00
sS'wrapping'
p459
I00
sS'immediate'
p460
I00
sS'label'
p461
g68
sS'singlestep'
p462
F0.01
sS'visible'
p463
I01
sS'inport'
p464
I00
sS'decimals'
p465
I2
sS'id'
p466
I4628271184
ssasg140
g141
ssg142
S'1.37205934525'
p467
sg43
S'SDC'
p468
sg145
(lp469
F-75.77777777777777
aF-35.44444444444446
asg147
(lp470
(dp471
g150
S'crds'
p472
sg152
I0
sg153
(lp473
(dp474
g156
(dp475
g158
g472
sg159
I4628272096
sg160
I0
sg161
I4628259656
ssg162
(dp476
g158
g175
sg159
I4628000400
sg160
I0
sg161
I4627935016
ssasg165
Nsg166
I65540
sg167
I100
sg168
I4628272096
sa(dp477
g150
S'wates'
p478
sg152
I1
sg153
(lp479
sg165
Nsg166
I65540
sg167
I200
sg168
I4628272248
sa(dp480
g150
g184
sg152
I2
sg153
(lp481
sg165
Nsg166
I65540
sg167
I200
sg168
I4628272400
sa(dp482
g150
g182
sg152
I0
sg153
(lp483
(dp484
g156
(dp485
g158
g177
sg159
I4628348408
sg160
I2
sg161
I4628310936
ssg162
(dp486
g158
g182
sg159
I4628272552
sg160
I0
sg161
I4628259656
ssasg165
Nsg166
I65541
sg167
Nsg168
I4628272552
sasg192
S'1.52939372345'
p487
sg194
S'core.gridding.SDC'
p488
sg168
I4628259656
sg196
S'0.610105037689'
p489
sa(dp490
g36
(dp491
g38
(lp492
(dp493
g41
S"<class 'gpi.widgets.PushButton'>"
p494
sg43
S'compute'
p495
sg45
(dp496
S'outport'
p497
I00
sS'quietval'
p498
Nsg49
I01
sS'collapsed'
p499
I00
sS'inport'
p500
I00
sS'visible'
p501
I01
sS'toggle'
p502
I01
sS'button_title'
p503
g68
sS'id'
p504
I4627966264
ssa(dp505
g41
S"<class 'gpi.widgets.TextBox'>"
p506
sg43
S'Info:'
p507
sg45
(dp508
S'outport'
p509
I00
sS'quietval'
p510
Nsg49
S'Samples: 825\nTau (ms): 3.96\nTGrad (ms): 4.9216\nTotal interleaves: 79'
p511
sS'collapsed'
p512
I00
sS'inport'
p513
I00
sS'visible'
p514
I01
sS'wordwrap'
p515
I00
sS'id'
p516
I4627967024
ssa(dp517
g41
S"<class 'gpi.widgets.DoubleSpinBox'>"
p518
sg43
S'AD dwell time (us)'
p519
sg45
(dp520
S'outport'
p521
I00
sS'quietval'
p522
Nsg49
F4.8
sS'min'
p523
F0.1
sS'max'
p524
F1.7976931348623157e+308
sS'collapsed'
p525
I00
sS'wrapping'
p526
I00
sS'immediate'
p527
I00
sS'label'
p528
g68
sS'singlestep'
p529
F1.0
sS'visible'
p530
I01
sS'inport'
p531
I00
sS'decimals'
p532
I6
sS'id'
p533
I4627967480
ssa(dp534
g41
S"<class 'gpi.widgets.DoubleSpinBox'>"
p535
sg43
S'x delay (us)'
p536
sg45
(dp537
S'outport'
p538
I00
sS'quietval'
p539
Nsg49
F-9.0
sS'min'
p540
F-100.0
sS'max'
p541
F100.0
sS'collapsed'
p542
I00
sS'wrapping'
p543
I00
sS'immediate'
p544
I00
sS'label'
p545
g68
sS'singlestep'
p546
F1.0
sS'visible'
p547
I01
sS'inport'
p548
I00
sS'decimals'
p549
I2
sS'id'
p550
I4627968536
ssa(dp551
g41
S"<class 'gpi.widgets.DoubleSpinBox'>"
p552
sg43
S'y delay (us)'
p553
sg45
(dp554
S'outport'
p555
I00
sS'quietval'
p556
Nsg49
F-9.0
sS'min'
p557
F-100.0
sS'max'
p558
F100.0
sS'collapsed'
p559
I00
sS'wrapping'
p560
I00
sS'immediate'
p561
I00
sS'label'
p562
g68
sS'singlestep'
p563
F1.0
sS'visible'
p564
I01
sS'inport'
p565
I00
sS'decimals'
p566
I2
sS'id'
p567
I4627969448
ssa(dp568
g41
S"<class 'gpi.widgets.DoubleSpinBox'>"
p569
sg43
S'z delay (us)'
p570
sg45
(dp571
S'outport'
p572
I00
sS'quietval'
p573
Nsg49
F0.0
sS'min'
p574
F-100.0
sS'max'
p575
F100.0
sS'collapsed'
p576
I00
sS'wrapping'
p577
I00
sS'immediate'
p578
I00
sS'label'
p579
g68
sS'singlestep'
p580
F1.0
sS'visible'
p581
I01
sS'inport'
p582
I00
sS'decimals'
p583
I2
sS'id'
p584
I4627970360
ssa(dp585
g41
S"<class 'gpi.widgets.DoubleSpinBox'>"
p586
sg43
S'MaxSlw (mT/m/ms)'
p587
sg45
(dp588
S'outport'
p589
I00
sS'quietval'
p590
Nsg49
F139.998993
sS'min'
p591
F0.01
sS'max'
p592
F1.7976931348623157e+308
sS'collapsed'
p593
I00
sS'wrapping'
p594
I00
sS'immediate'
p595
I00
sS'label'
p596
g68
sS'singlestep'
p597
F1.0
sS'visible'
p598
I01
sS'inport'
p599
I00
sS'decimals'
p600
I6
sS'id'
p601
I4627971272
ssa(dp602
g41
S"<class 'gpi.widgets.DoubleSpinBox'>"
p603
sg43
S'MaxGrd (mT/m)'
p604
sg45
(dp605
S'outport'
p606
I00
sS'quietval'
p607
Nsg49
F20.249001
sS'min'
p608
F0.01
sS'max'
p609
F1.7976931348623157e+308
sS'collapsed'
p610
I00
sS'wrapping'
p611
I00
sS'immediate'
p612
I00
sS'label'
p613
g68
sS'singlestep'
p614
F1.0
sS'visible'
p615
I01
sS'inport'
p616
I00
sS'decimals'
p617
I6
sS'id'
p618
I4627980520
ssa(dp619
g41
S"<class 'gpi.widgets.DoubleSpinBox'>"
p620
sg43
S'Gam (kHz/mT/ms)'
p621
sg45
(dp622
S'outport'
p623
I00
sS'quietval'
p624
Nsg49
F42.577469
sS'min'
p625
F0.01
sS'max'
p626
F1.7976931348623157e+308
sS'collapsed'
p627
I00
sS'wrapping'
p628
I00
sS'immediate'
p629
I00
sS'label'
p630
g68
sS'singlestep'
p631
F1.0
sS'visible'
p632
I01
sS'inport'
p633
I00
sS'decimals'
p634
I6
sS'id'
p635
I4627981432
ssa(dp636
g41
S"<class 'gpi.widgets.DoubleSpinBox'>"
p637
sg43
S'Fov X-Y (cm)'
p638
sg45
(dp639
S'outport'
p640
I00
sS'quietval'
p641
Nsg49
F24.0
sS'min'
p642
F0.1
sS'max'
p643
F1.7976931348623157e+308
sS'collapsed'
p644
I00
sS'wrapping'
p645
I00
sS'immediate'
p646
I00
sS'label'
p647
g68
sS'singlestep'
p648
F1.0
sS'visible'
p649
I01
sS'inport'
p650
I00
sS'decimals'
p651
I6
sS'id'
p652
I4627982344
ssa(dp653
g41
S"<class 'gpi.widgets.DoubleSpinBox'>"
p654
sg43
S'Fov Z (cm)'
p655
sg45
(dp656
S'outport'
p657
I00
sS'quietval'
p658
Nsg49
F0.5
sS'min'
p659
F0.1
sS'max'
p660
F1.7976931348623157e+308
sS'collapsed'
p661
I00
sS'wrapping'
p662
I00
sS'immediate'
p663
I00
sS'label'
p664
g68
sS'singlestep'
p665
F1.0
sS'visible'
p666
I01
sS'inport'
p667
I00
sS'decimals'
p668
I6
sS'id'
p669
I4627983256
ssa(dp670
g41
S"<class 'gpi.widgets.DoubleSpinBox'>"
p671
sg43
S'ImgRes X-Y (cm)'
p672
sg45
(dp673
S'outport'
p674
I00
sS'quietval'
p675
Nsg49
F0.1
sS'min'
p676
F0.01
sS'max'
p677
F1.7976931348623157e+308
sS'collapsed'
p678
I00
sS'wrapping'
p679
I00
sS'immediate'
p680
I00
sS'label'
p681
g68
sS'singlestep'
p682
F0.01
sS'visible'
p683
I01
sS'inport'
p684
I00
sS'decimals'
p685
I6
sS'id'
p686
I4627984168
ssa(dp687
g41
S"<class 'gpi.widgets.DoubleSpinBox'>"
p688
sg43
S'ImgRes Z (cm)'
p689
sg45
(dp690
S'outport'
p691
I00
sS'quietval'
p692
Nsg49
F0.5
sS'min'
p693
F0.01
sS'max'
p694
F1.7976931348623157e+308
sS'collapsed'
p695
I00
sS'wrapping'
p696
I00
sS'immediate'
p697
I00
sS'label'
p698
g68
sS'singlestep'
p699
F0.01
sS'visible'
p700
I01
sS'inport'
p701
I00
sS'decimals'
p702
I6
sS'id'
p703
I4627985224
ssa(dp704
g41
S"<class 'gpi.widgets.ExclusivePushButtons'>"
p705
sg43
S'stype'
p706
sg45
(dp707
S'outport'
p708
I00
sS'quietval'
p709
Nsg49
I0
sS'collapsed'
p710
I00
sS'inport'
p711
I00
sS'visible'
p712
I01
sS'id'
p713
I4627986136
ssa(dp714
g41
S"<class 'gpi.widgets.DoubleSpinBox'>"
p715
sg43
S'# of Spiral Arms'
p716
sg45
(dp717
S'outport'
p718
I00
sS'quietval'
p719
Nsg49
F79.0
sS'min'
p720
F0.0
sS'max'
p721
F1.7976931348623157e+308
sS'collapsed'
p722
I00
sS'wrapping'
p723
I00
sS'immediate'
p724
I00
sS'label'
p725
g68
sS'singlestep'
p726
F1.0
sS'visible'
p727
I01
sS'inport'
p728
I00
sS'decimals'
p729
I2
sS'id'
p730
I4627986896
ssa(dp731
g41
S"<class 'gpi.widgets.DoubleSpinBox'>"
p732
sg43
S'usamp st (0 - 1)'
p733
sg45
(dp734
S'outport'
p735
I00
sS'quietval'
p736
Nsg49
F1.0
sS'min'
p737
F0.0
sS'max'
p738
F1.0
sS'collapsed'
p739
I00
sS'wrapping'
p740
I00
sS'immediate'
p741
I00
sS'label'
p742
g68
sS'singlestep'
p743
F0.01
sS'visible'
p744
I01
sS'inport'
p745
I00
sS'decimals'
p746
I2
sS'id'
p747
I4627987808
ssa(dp748
g41
S"<class 'gpi.widgets.DoubleSpinBox'>"
p749
sg43
S'usamp end (0 - 1)'
p750
sg45
(dp751
S'outport'
p752
I00
sS'quietval'
p753
Nsg49
F1.0
sS'min'
p754
F0.0
sS'max'
p755
F1.0
sS'collapsed'
p756
I00
sS'wrapping'
p757
I00
sS'immediate'
p758
I00
sS'label'
p759
g68
sS'singlestep'
p760
F0.01
sS'visible'
p761
I01
sS'inport'
p762
I00
sS'decimals'
p763
I2
sS'id'
p764
I4627988864
ssa(dp765
g41
S"<class 'gpi.widgets.DoubleSpinBox'>"
p766
sg43
S'max undersample'
p767
sg45
(dp768
S'outport'
p769
I00
sS'quietval'
p770
Nsg49
F1.0
sS'min'
p771
F0.0
sS'max'
p772
F100.0
sS'collapsed'
p773
I00
sS'wrapping'
p774
I00
sS'immediate'
p775
I00
sS'label'
p776
g68
sS'singlestep'
p777
F1.0
sS'visible'
p778
I01
sS'inport'
p779
I00
sS'decimals'
p780
I2
sS'id'
p781
I4627989776
ssa(dp782
g41
S"<class 'gpi.widgets.ExclusivePushButtons'>"
p783
sg43
S'ustype'
p784
sg45
(dp785
S'outport'
p786
I00
sS'quietval'
p787
Nsg49
I0
sS'collapsed'
p788
I00
sS'inport'
p789
I00
sS'visible'
p790
I01
sS'id'
p791
I4627990688
ssa(dp792
g41
S"<class 'gpi.widgets.DoubleSpinBox'>"
p793
sg43
S'Max G Freq (kHz)'
p794
sg45
(dp795
S'outport'
p796
I00
sS'quietval'
p797
Nsg49
F1.0
sS'min'
p798
F0.0
sS'max'
p799
F1.7976931348623157e+308
sS'collapsed'
p800
I00
sS'wrapping'
p801
I00
sS'immediate'
p802
I00
sS'label'
p803
g68
sS'singlestep'
p804
F1.0
sS'visible'
p805
I01
sS'inport'
p806
I00
sS'decimals'
p807
I2
sS'id'
p808
I4627991448
ssa(dp809
g41
S"<class 'gpi.widgets.DoubleSpinBox'>"
p810
sg43
S'T2 Match (ms)'
p811
sg45
(dp812
S'outport'
p813
I00
sS'quietval'
p814
Nsg49
F0.0
sS'min'
p815
F0.0
sS'max'
p816
F1.7976931348623157e+308
sS'collapsed'
p817
I00
sS'wrapping'
p818
I00
sS'immediate'
p819
I00
sS'label'
p820
g68
sS'singlestep'
p821
F1.0
sS'visible'
p822
I01
sS'inport'
p823
I00
sS'decimals'
p824
I2
sS'id'
p825
I4627992360
ssa(dp826
g41
S"<class 'gpi.widgets.DoubleSpinBox'>"
p827
sg43
S'Sloppy Sp. Per (0:off)'
p828
sg45
(dp829
S'outport'
p830
I00
sS'quietval'
p831
Nsg49
F0.0
sS'min'
p832
F0.0
sS'max'
p833
F1.7976931348623157e+308
sS'collapsed'
p834
I00
sS'wrapping'
p835
I00
sS'immediate'
p836
I00
sS'label'
p837
g68
sS'singlestep'
p838
F1.0
sS'visible'
p839
I01
sS'inport'
p840
I00
sS'decimals'
p841
I2
sS'id'
p842
I4627997512
ssa(dp843
g41
S"<class 'gpi.widgets.ExclusivePushButtons'>"
p844
sg43
S'gtype'
p845
sg45
(dp846
S'outport'
p847
I00
sS'quietval'
p848
Nsg49
I2
sS'collapsed'
p849
I00
sS'inport'
p850
I00
sS'visible'
p851
I01
sS'id'
p852
I4627998424
ssa(dp853
g41
S"<class 'gpi.widgets.ExclusivePushButtons'>"
p854
sg43
S'spinout'
p855
sg45
(dp856
S'outport'
p857
I00
sS'quietval'
p858
Nsg49
I0
sS'collapsed'
p859
I00
sS'inport'
p860
I00
sS'visible'
p861
I01
sS'id'
p862
I4627999336
ssasg140
g141
ssg142
S'0.101669708888'
p863
sg43
S'SpiralCoords'
p864
sg145
(lp865
F-60.77777777777777
aF-103.44444444444446
asg147
(lp866
(dp867
g150
g184
sg152
I0
sg153
(lp868
(dp869
g156
(dp870
g158
g184
sg159
I4628000248
sg160
I0
sg161
I4627935016
ssg162
(dp871
g158
S'user_parms'
p872
sg159
I4628122216
sg160
I3
sg161
I4628072304
ssasg165
Nsg166
I65540
sg167
I200
sg168
I4628000248
sa(dp873
g150
g175
sg152
I0
sg153
(lp874
(dp875
g156
(dp876
g158
g472
sg159
I4628272096
sg160
I0
sg161
I4628259656
ssg162
(dp877
g158
g175
sg159
I4628000400
sg160
I0
sg161
I4627935016
ssa(dp878
g156
(dp879
g158
g170
sg159
I4628348256
sg160
I1
sg161
I4628310936
ssg162
(dp880
g158
g175
sg159
I4628000400
sg160
I0
sg161
I4627935016
ssasg165
Nsg166
I65541
sg167
Nsg168
I4628000400
sa(dp881
g150
S'grd_out'
p882
sg152
I1
sg153
(lp883
sg165
Nsg166
I65541
sg167
Nsg168
I4628000552
sasg192
S'0.0720645419111'
p884
sg194
S'core.spiral.SpiralCoords'
p885
sg168
I4627935016
sg196
S'0.158620119095'
p886
sa(dp887
g36
(dp888
g38
(lp889
(dp890
g41
S"<class 'gpi.widgets.TextBox'>"
p891
sg43
S'I/O Info:'
p892
sg45
(dp893
S'outport'
p894
I00
sS'quietval'
p895
Nsg49
S'input: (20, 300, 300)\noutput: (300, 300)'
p896
sS'collapsed'
p897
I00
sS'inport'
p898
I00
sS'visible'
p899
I01
sS'wordwrap'
p900
I00
sS'id'
p901
I4628151496
ssa(dp902
g41
S"<class '/opt/gpi/lib/core/shapers/GPI/Reduce_GPI.ReduceSliders'>"
p903
sg43
S'Dimension[-1]'
p904
sg45
(dp905
S'outport'
p906
I00
sS'quietval'
p907
Nsg49
(dp908
S'width'
p909
I300
sg267
I300
sS'selection'
p910
I3
sS'center'
p911
I151
sg266
I1
ssS'min'
p912
I1
sS'max'
p913
I300
sS'collapsed'
p914
I00
sS'inport'
p915
I00
sS'visible'
p916
I01
sS'id'
p917
I4628151952
ssa(dp918
g41
S"<class '/opt/gpi/lib/core/shapers/GPI/Reduce_GPI.ReduceSliders'>"
p919
sg43
S'Dimension[-2]'
p920
sg45
(dp921
S'outport'
p922
I00
sS'quietval'
p923
Nsg49
(dp924
g909
I300
sg267
I300
sg910
I3
sg911
I151
sg266
I1
ssS'min'
p925
I1
sS'max'
p926
I300
sS'collapsed'
p927
I00
sS'inport'
p928
I00
sS'visible'
p929
I01
sS'id'
p930
I4628177584
ssa(dp931
g41
S"<class '/opt/gpi/lib/core/shapers/GPI/Reduce_GPI.ReduceSliders'>"
p932
sg43
S'Dimension[-3]'
p933
sg45
(dp934
S'outport'
p935
I00
sS'quietval'
p936
Nsg49
(dp937
g909
I1
sg267
I6
sg910
I2
sg911
I6
sg266
I6
ssS'min'
p938
I1
sS'max'
p939
I20
sS'collapsed'
p940
I00
sS'inport'
p941
I00
sS'visible'
p942
I01
sS'id'
p943
I4628182592
ssa(dp944
g41
S"<class '/opt/gpi/lib/core/shapers/GPI/Reduce_GPI.ReduceSliders'>"
p945
sg43
S'Dimension[-4]'
p946
sg45
(dp947
S'outport'
p948
I00
sS'quietval'
p949
Nsg49
(dp950
g909
I100
sg267
I100
sg910
I3
sg911
I51
sg266
I1
ssS'min'
p951
I1
sS'max'
p952
I100
sS'collapsed'
p953
I00
sS'inport'
p954
I00
sS'visible'
p955
I00
sS'id'
p956
I4628191696
ssa(dp957
g41
S"<class '/opt/gpi/lib/core/shapers/GPI/Reduce_GPI.ReduceSliders'>"
p958
sg43
S'Dimension[-5]'
p959
sg45
(dp960
S'outport'
p961
I00
sS'quietval'
p962
Nsg49
(dp963
g909
I100
sg267
I100
sg910
I3
sg911
I51
sg266
I1
ssS'min'
p964
I1
sS'max'
p965
I100
sS'collapsed'
p966
I00
sS'inport'
p967
I00
sS'visible'
p968
I00
sS'id'
p969
I4628204896
ssa(dp970
g41
S"<class '/opt/gpi/lib/core/shapers/GPI/Reduce_GPI.ReduceSliders'>"
p971
sg43
S'Dimension[-6]'
p972
sg45
(dp973
S'outport'
p974
I00
sS'quietval'
p975
Nsg49
(dp976
g909
I100
sg267
I100
sg910
I3
sg911
I51
sg266
I1
ssS'min'
p977
I1
sS'max'
p978
I100
sS'collapsed'
p979
I00
sS'inport'
p980
I00
sS'visible'
p981
I00
sS'id'
p982
I4628210048
ssa(dp983
g41
S"<class '/opt/gpi/lib/core/shapers/GPI/Reduce_GPI.ReduceSliders'>"
p984
sg43
S'Dimension[-7]'
p985
sg45
(dp986
S'outport'
p987
I00
sS'quietval'
p988
Nsg49
(dp989
g909
I100
sg267
I100
sg910
I3
sg911
I51
sg266
I1
ssS'min'
p990
I1
sS'max'
p991
I100
sS'collapsed'
p992
I00
sS'inport'
p993
I00
sS'visible'
p994
I00
sS'id'
p995
I4628215056
ssa(dp996
g41
S"<class '/opt/gpi/lib/core/shapers/GPI/Reduce_GPI.ReduceSliders'>"
p997
sg43
S'Dimension[-8]'
p998
sg45
(dp999
S'outport'
p1000
I00
sS'quietval'
p1001
Nsg49
(dp1002
g909
I100
sg267
I100
sg910
I3
sg911
I51
sg266
I1
ssS'min'
p1003
I1
sS'max'
p1004
I100
sS'collapsed'
p1005
I00
sS'inport'
p1006
I00
sS'visible'
p1007
I00
sS'id'
p1008
I4628220064
ssa(dp1009
g41
S"<class '/opt/gpi/lib/core/shapers/GPI/Reduce_GPI.ReduceSliders'>"
p1010
sg43
S'Dimension[-9]'
p1011
sg45
(dp1012
S'outport'
p1013
I00
sS'quietval'
p1014
Nsg49
(dp1015
g909
I100
sg267
I100
sg910
I3
sg911
I51
sg266
I1
ssS'min'
p1016
I1
sS'max'
p1017
I100
sS'collapsed'
p1018
I00
sS'inport'
p1019
I00
sS'visible'
p1020
I00
sS'id'
p1021
I4628225072
ssa(dp1022
g41
S"<class '/opt/gpi/lib/core/shapers/GPI/Reduce_GPI.ReduceSliders'>"
p1023
sg43
S'Dimension[-10]'
p1024
sg45
(dp1025
S'outport'
p1026
I00
sS'quietval'
p1027
Nsg49
(dp1028
g909
I100
sg267
I100
sg910
I3
sg911
I51
sg266
I1
ssS'min'
p1029
I1
sS'max'
p1030
I100
sS'collapsed'
p1031
I00
sS'inport'
p1032
I00
sS'visible'
p1033
I00
sS'id'
p1034
I4628230224
ssa(dp1035
g41
S"<class 'gpi.widgets.PushButton'>"
p1036
sg43
S'Mask'
p1037
sg45
(dp1038
S'outport'
p1039
I00
sS'quietval'
p1040
Nsg49
I00
sS'collapsed'
p1041
I00
sS'inport'
p1042
I00
sS'visible'
p1043
I01
sS'toggle'
p1044
I01
sS'button_title'
p1045
g68
sS'id'
p1046
I4628235232
ssa(dp1047
g41
S"<class 'gpi.widgets.PushButton'>"
p1048
sg43
S'Compute'
p1049
sg45
(dp1050
S'outport'
p1051
I00
sS'quietval'
p1052
Nsg49
I01
sS'collapsed'
p1053
I00
sS'inport'
p1054
I00
sS'visible'
p1055
I01
sS'toggle'
p1056
I01
sS'button_title'
p1057
g68
sS'id'
p1058
I4628235992
ssasg140
g141
ssg142
S'0.0707939863205'
p1059
sg43
S'Reduce'
p1060
sg145
(lp1061
F12.222222222222229
aF107.55555555555554
asg147
(lp1062
(dp1063
g150
g190
sg152
I0
sg153
(lp1064
(dp1065
g156
(dp1066
g158
g190
sg159
I4628236752
sg160
I0
sg161
I4628149064
ssg162
(dp1067
g158
g164
sg159
I4627846568
sg160
I0
sg161
I4627493704
ssasg165
Nsg166
I65540
sg167
I100
sg168
I4628236752
sa(dp1068
g150
g164
sg152
I0
sg153
(lp1069
(dp1070
g156
(dp1071
g158
g190
sg159
I4628065936
sg160
I0
sg161
I4628010864
ssg162
(dp1072
g158
g164
sg159
I4628236904
sg160
I0
sg161
I4628149064
ssasg165
Nsg166
I65541
sg167
Nsg168
I4628236904
sa(dp1073
g150
S'mask'
p1074
sg152
I1
sg153
(lp1075
sg165
Nsg166
I65541
sg167
Nsg168
I4628237056
sasg192
S'0.0707939863205'
p1076
sg194
S'core.shapers.Reduce'
p1077
sg168
I4628149064
sg196
S'0.141587972641'
p1078
sa(dp1079
g36
(dp1080
g38
(lp1081
(dp1082
g41
S"<class '/opt/gpi/lib/core/math/GPI/FFT_NUMPY_GPI.FFTW_GROUP'>"
p1083
sg43
S'Dimension[-1]'
p1084
sg45
(dp1085
S'outport'
p1086
I00
sS'quietval'
p1087
Nsg49
(dp1088
S'length'
p1089
I450
sS'in_len'
p1090
I450
sg495
I01
ssS'collapsed'
p1091
I00
sS'inport'
p1092
I00
sS'visible'
p1093
I01
sS'id'
p1094
I4627904368
ssa(dp1095
g41
S"<class '/opt/gpi/lib/core/math/GPI/FFT_NUMPY_GPI.FFTW_GROUP'>"
p1096
sg43
S'Dimension[-2]'
p1097
sg45
(dp1098
S'outport'
p1099
I00
sS'quietval'
p1100
Nsg49
(dp1101
g1089
I450
sg1090
I450
sg495
I01
ssS'collapsed'
p1102
I00
sS'inport'
p1103
I00
sS'visible'
p1104
I01
sS'id'
p1105
I4627906344
ssa(dp1106
g41
S"<class '/opt/gpi/lib/core/math/GPI/FFT_NUMPY_GPI.FFTW_GROUP'>"
p1107
sg43
S'Dimension[-3]'
p1108
sg45
(dp1109
S'outport'
p1110
I00
sS'quietval'
p1111
Nsg49
(dp1112
g1089
I20
sg1090
I20
sg495
I00
ssS'collapsed'
p1113
I00
sS'inport'
p1114
I00
sS'visible'
p1115
I01
sS'id'
p1116
I4627912560
ssa(dp1117
g41
S"<class '/opt/gpi/lib/core/math/GPI/FFT_NUMPY_GPI.FFTW_GROUP'>"
p1118
sg43
S'Dimension[-4]'
p1119
sg45
(dp1120
S'outport'
p1121
I00
sS'quietval'
p1122
Nsg49
(dp1123
g1089
I1
sg1090
I1
sg495
I00
ssS'collapsed'
p1124
I00
sS'inport'
p1125
I00
sS'visible'
p1126
I00
sS'id'
p1127
I4627914536
ssa(dp1128
g41
S"<class '/opt/gpi/lib/core/math/GPI/FFT_NUMPY_GPI.FFTW_GROUP'>"
p1129
sg43
S'Dimension[-5]'
p1130
sg45
(dp1131
S'outport'
p1132
I00
sS'quietval'
p1133
Nsg49
(dp1134
g1089
I1
sg1090
I1
sg495
I00
ssS'collapsed'
p1135
I00
sS'inport'
p1136
I00
sS'visible'
p1137
I00
sS'id'
p1138
I4627920752
ssa(dp1139
g41
S"<class '/opt/gpi/lib/core/math/GPI/FFT_NUMPY_GPI.FFTW_GROUP'>"
p1140
sg43
S'Dimension[-6]'
p1141
sg45
(dp1142
S'outport'
p1143
I00
sS'quietval'
p1144
Nsg49
(dp1145
g1089
I1
sg1090
I1
sg495
I00
ssS'collapsed'
p1146
I00
sS'inport'
p1147
I00
sS'visible'
p1148
I00
sS'id'
p1149
I4627922728
ssa(dp1150
g41
S"<class '/opt/gpi/lib/core/math/GPI/FFT_NUMPY_GPI.FFTW_GROUP'>"
p1151
sg43
S'Dimension[-7]'
p1152
sg45
(dp1153
S'outport'
p1154
I00
sS'quietval'
p1155
Nsg49
(dp1156
g1089
I1
sg1090
I1
sg495
I00
ssS'collapsed'
p1157
I00
sS'inport'
p1158
I00
sS'visible'
p1159
I00
sS'id'
p1160
I4627924848
ssa(dp1161
g41
S"<class '/opt/gpi/lib/core/math/GPI/FFT_NUMPY_GPI.FFTW_GROUP'>"
p1162
sg43
S'Dimension[-8]'
p1163
sg45
(dp1164
S'outport'
p1165
I00
sS'quietval'
p1166
Nsg49
(dp1167
g1089
I1
sg1090
I1
sg495
I00
ssS'collapsed'
p1168
I00
sS'inport'
p1169
I00
sS'visible'
p1170
I00
sS'id'
p1171
I4627926824
ssa(dp1172
g41
S"<class '/opt/gpi/lib/core/math/GPI/FFT_NUMPY_GPI.FFTW_GROUP'>"
p1173
sg43
S'Dimension[-9]'
p1174
sg45
(dp1175
S'outport'
p1176
I00
sS'quietval'
p1177
Nsg49
(dp1178
g1089
I1
sg1090
I1
sg495
I00
ssS'collapsed'
p1179
I00
sS'inport'
p1180
I00
sS'visible'
p1181
I00
sS'id'
p1182
I4627928944
ssa(dp1183
g41
S"<class 'gpi.widgets.PushButton'>"
p1184
sg43
g495
sg45
(dp1185
S'outport'
p1186
I00
sS'quietval'
p1187
Nsg49
I01
sS'collapsed'
p1188
I00
sS'inport'
p1189
I00
sS'visible'
p1190
I01
sS'toggle'
p1191
I01
sS'button_title'
p1192
g68
sS'id'
p1193
I4627930920
ssa(dp1194
g41
S"<class 'gpi.widgets.PushButton'>"
p1195
sg43
S'direction'
p1196
sg45
(dp1197
S'outport'
p1198
I00
sS'quietval'
p1199
Nsg49
I01
sS'collapsed'
p1200
I00
sS'inport'
p1201
I00
sS'visible'
p1202
I01
sS'toggle'
p1203
I01
sS'button_title'
p1204
VINVERSE
p1205
sS'id'
p1206
I4627931824
ssasg140
g141
ssg142
S'0.85791695118'
p1207
sg43
S'FFT_NUMPY'
p1208
sg145
(lp1209
F12.222222222222229
aF47.55555555555554
asg147
(lp1210
(dp1211
g150
g190
sg152
I0
sg153
(lp1212
(dp1213
g156
(dp1214
g158
g190
sg159
I4627932584
sg160
I0
sg161
I4627848544
ssg162
(dp1215
g158
g164
sg159
I4628348712
sg160
I0
sg161
I4628310936
ssasg165
Nsg166
I65540
sg167
I100
sg168
I4627932584
sa(dp1216
g150
g164
sg152
I0
sg153
(lp1217
(dp1218
g156
(dp1219
g158
g151
sg159
I4627846416
sg160
I0
sg161
I4627493704
ssg162
(dp1220
g158
g164
sg159
I4627932736
sg160
I0
sg161
I4627848544
ssasg165
Nsg166
I65541
sg167
Nsg168
I4627932736
sasg192
S'0.85791695118'
p1221
sg194
S'core.math.FFT_NUMPY'
p1222
sg168
I4627848544
sg196
S'1.71583390236'
p1223
sa(dp1224
g36
(dp1225
g38
(lp1226
(dp1227
g41
S"<class 'gpi.widgets.TextBox'>"
p1228
sg43
S'I/O Info:'
p1229
sg45
(dp1230
S'outport'
p1231
I00
sS'quietval'
p1232
Nsg49
S"created: 13/02/2014\naccessed: 01/04/2014\nmodified: 13/02/2014\nUID: 501\nGID: 80\nfile size (bytes): 10585600\nStandard Data Info:\n  dim labels: ['loc' 'py' 'samp']\n  dimensions: [20, 79, 825]\n  type: complex64\nNoise Data Info:\n  dim labels: ['samp']\n  dimensions: [19680]\n  type: complex64\nHeader Type: 'BNIspiral'\n"
p1233
sS'collapsed'
p1234
I00
sS'inport'
p1235
I00
sS'visible'
p1236
I01
sS'wordwrap'
p1237
I00
sS'id'
p1238
I4628103552
ssa(dp1239
g41
S"<class 'gpi.widgets.OpenFileBrowser'>"
p1240
sg43
S'File Browser'
p1241
sg45
(dp1242
S'outport'
p1243
I00
sS'quietval'
p1244
Nsg49
S'/opt/gpi/doc/Examples/spiral_MS.data'
p1245
sS'collapsed'
p1246
I00
sS'inport'
p1247
I00
sS'visible'
p1248
I01
sS'id'
p1249
I4628104008
ssa(dp1250
g41
S"<class 'gpi.widgets.PushButton'>"
p1251
sg43
S'ky chop'
p1252
sg45
(dp1253
S'outport'
p1254
I00
sS'quietval'
p1255
Nsg49
I00
sS'collapsed'
p1256
I00
sS'inport'
p1257
I00
sS'visible'
p1258
I01
sS'toggle'
p1259
I01
sS'button_title'
p1260
VOFF
p1261
sS'id'
p1262
I4628104616
ssa(dp1263
g41
S"<class 'gpi.widgets.PushButton'>"
p1264
sg43
S'kz chop'
p1265
sg45
(dp1266
S'outport'
p1267
I00
sS'quietval'
p1268
Nsg49
I00
sS'collapsed'
p1269
I00
sS'inport'
p1270
I00
sS'visible'
p1271
I01
sS'toggle'
p1272
I01
sS'button_title'
p1273
VOFF
p1274
sS'id'
p1275
I4628105376
ssa(dp1276
g41
S"<class 'gpi.widgets.PushButton'>"
p1277
sg43
S'PROPELLER'
p1278
sg45
(dp1279
S'outport'
p1280
I00
sS'quietval'
p1281
Nsg49
I00
sS'collapsed'
p1282
I00
sS'inport'
p1283
I00
sS'visible'
p1284
I01
sS'toggle'
p1285
I01
sS'button_title'
p1286
VOFF
p1287
sS'id'
p1288
I4628106136
ssa(dp1289
g41
S"<class 'gpi.widgets.PushButton'>"
p1290
sg43
S'Apply Corrections'
p1291
sg45
(dp1292
S'outport'
p1293
I00
sS'quietval'
p1294
Nsg49
I01
sS'collapsed'
p1295
I00
sS'inport'
p1296
I00
sS'visible'
p1297
I00
sS'toggle'
p1298
I01
sS'button_title'
p1299
VON
p1300
sS'id'
p1301
I4628106896
ssa(dp1302
g41
S"<class 'gpi.widgets.ExclusivePushButtons'>"
p1303
sg43
S'Re-scale Type'
p1304
sg45
(dp1305
S'outport'
p1306
I00
sS'quietval'
p1307
Nsg49
I0
sS'collapsed'
p1308
I00
sS'inport'
p1309
I00
sS'visible'
p1310
I00
sS'id'
p1311
I4628107800
ssa(dp1312
g41
S"<class 'gpi.widgets.ExclusiveRadioButtons'>"
p1313
sg43
S'Execution Type'
p1314
sg45
(dp1315
S'outport'
p1316
I00
sS'quietval'
p1317
Nsg49
I1
sS'collapsed'
p1318
I01
sS'inport'
p1319
I00
sS'visible'
p1320
I01
sS'id'
p1321
I4628108560
ssa(dp1322
g41
S"<class 'gpi.widgets.PushButton'>"
p1323
sg43
S'Read Param Only'
p1324
sg45
(dp1325
S'outport'
p1326
I00
sS'quietval'
p1327
Nsg49
I00
sS'collapsed'
p1328
I00
sS'inport'
p1329
I00
sS'visible'
p1330
I01
sS'toggle'
p1331
I01
sS'button_title'
p1332
VOFF
p1333
sS'id'
p1334
I4628109320
ssa(dp1335
g41
S"<class 'gpi.widgets.PushButton'>"
p1336
sg43
S'Data Downsampling'
p1337
sg45
(dp1338
S'outport'
p1339
I00
sS'quietval'
p1340
Nsg49
I00
sS'collapsed'
p1341
I00
sS'inport'
p1342
I00
sS'visible'
p1343
I01
sS'toggle'
p1344
I01
sS'button_title'
p1345
VOFF
p1346
sS'id'
p1347
I4628110080
ssa(dp1348
g41
S"<class 'gpi.widgets.ExclusiveRadioButtons'>"
p1349
sg43
S'Downsampling Mode'
p1350
sg45
(dp1351
S'outport'
p1352
I00
sS'quietval'
p1353
Nsg49
I1
sS'collapsed'
p1354
I00
sS'inport'
p1355
I00
sS'visible'
p1356
I00
sS'id'
p1357
I4628110840
ssa(dp1358
g41
S"<class 'gpi.widgets.SpinBox'>"
p1359
sg43
S'Padding Width'
p1360
sg45
(dp1361
S'outport'
p1362
I00
sS'quietval'
p1363
Nsg49
I64
sS'min'
p1364
I0
sS'max'
p1365
I256
sS'collapsed'
p1366
I01
sS'wrapping'
p1367
I00
sS'immediate'
p1368
I00
sS'label'
p1369
g68
sS'singlestep'
p1370
I2
sS'visible'
p1371
I00
sS'inport'
p1372
I00
sS'id'
p1373
I4628115840
ssa(dp1374
g41
S"<class 'gpi.widgets.Slider'>"
p1375
sg43
S'Average Window Width'
p1376
sg45
(dp1377
S'outport'
p1378
I00
sS'quietval'
p1379
Nsg49
I1
sS'min'
p1380
I1
sS'max'
p1381
I16
sS'collapsed'
p1382
I01
sS'inport'
p1383
I00
sS'visible'
p1384
I00
sS'id'
p1385
I4628116752
ssa(dp1386
g41
S"<class 'gpi.widgets.Slider'>"
p1387
sg43
S'Hanning Filter Width (%)'
p1388
sg45
(dp1389
S'outport'
p1390
I00
sS'quietval'
p1391
Nsg49
I100
sS'min'
p1392
I0
sS'max'
p1393
I100
sS'collapsed'
p1394
I01
sS'inport'
p1395
I00
sS'visible'
p1396
I00
sS'id'
p1397
I4628117968
ssa(dp1398
g41
S"<class 'gpi.widgets.Slider'>"
p1399
sg43
S'Hanning Filter Window (%)'
p1400
sg45
(dp1401
S'outport'
p1402
I00
sS'quietval'
p1403
Nsg49
I100
sS'min'
p1404
I0
sS'max'
p1405
I100
sS'collapsed'
p1406
I01
sS'inport'
p1407
I00
sS'visible'
p1408
I00
sS'id'
p1409
I4628119184
ssa(dp1410
g41
S"<class 'gpi.widgets.Slider'>"
p1411
sg43
S'Retained Data Length'
p1412
sg45
(dp1413
S'outport'
p1414
I00
sS'quietval'
p1415
Nsg49
I16
sS'min'
p1416
I0
sS'max'
p1417
I64
sS'collapsed'
p1418
I01
sS'inport'
p1419
I00
sS'visible'
p1420
I00
sS'id'
p1421
I4628120544
ssasg140
g141
ssg142
S'0.194261630376'
p1422
sg43
S'ReadPhilips'
p1423
sg145
(lp1424
F8.222222222222229
aF-167.44444444444446
asg147
(lp1425
(dp1426
g150
g151
sg152
I0
sg153
(lp1427
(dp1428
g156
(dp1429
g158
g190
sg159
I4653682168
sg160
I0
sg161
I4653598576
ssg162
(dp1430
g158
g151
sg159
I4628121760
sg160
I0
sg161
I4628072304
ssasg165
Nsg166
I65541
sg167
Nsg168
I4628121760
sa(dp1431
g150
S'noise'
p1432
sg152
I1
sg153
(lp1433
sg165
Nsg166
I65541
sg167
Nsg168
I4628121912
sa(dp1434
g150
S'phc'
p1435
sg152
I2
sg153
(lp1436
sg165
Nsg166
I65541
sg167
Nsg168
I4628122064
sa(dp1437
g150
g872
sg152
I3
sg153
(lp1438
(dp1439
g156
(dp1440
g158
g184
sg159
I4628000248
sg160
I0
sg161
I4627935016
ssg162
(dp1441
g158
g872
sg159
I4628122216
sg160
I3
sg161
I4628072304
ssasg165
Nsg166
I65541
sg167
Nsg168
I4628122216
sa(dp1442
g150
S'header'
p1443
sg152
I4
sg153
(lp1444
sg165
Nsg166
I65541
sg167
Nsg168
I4628122368
sasg192
S'0.159119986605'
p1445
sg194
S'core.fileIO.ReadPhilips'
p1446
sg168
I4628072304
sg196
S'0.389756917953'
p1447
sa(dp1448
g36
(dp1449
g38
(lp1450
(dp1451
g41
S"<class 'gpi.widgets.Slider'>"
p1452
sg43
S'Num Rolloff Dims'
p1453
sg45
(dp1454
S'outport'
p1455
I00
sS'quietval'
p1456
Nsg49
I2
sS'min'
p1457
I1
sS'max'
p1458
I3
sS'collapsed'
p1459
I00
sS'inport'
p1460
I00
sS'visible'
p1461
I01
sS'id'
p1462
I4627496136
ssa(dp1463
g41
S"<class 'gpi.widgets.PushButton'>"
p1464
sg43
S'Isotropic FOV'
p1465
sg45
(dp1466
S'outport'
p1467
I00
sS'quietval'
p1468
Nsg49
I01
sS'collapsed'
p1469
I00
sS'inport'
p1470
I00
sS'visible'
p1471
I01
sS'toggle'
p1472
I01
sS'button_title'
p1473
g68
sS'id'
p1474
I4627845656
ssasg140
g141
ssg142
S'0.358666062355'
p1475
sg43
S'Rolloff'
p1476
sg145
(lp1477
F12.222222222222229
aF77.55555555555554
asg147
(lp1478
(dp1479
g150
g151
sg152
I0
sg153
(lp1480
(dp1481
g156
(dp1482
g158
g151
sg159
I4627846416
sg160
I0
sg161
I4627493704
ssg162
(dp1483
g158
g164
sg159
I4627932736
sg160
I0
sg161
I4627848544
ssasg165
Nsg166
I65540
sg167
I100
sg168
I4627846416
sa(dp1484
g150
g164
sg152
I0
sg153
(lp1485
(dp1486
g156
(dp1487
g158
g190
sg159
I4628236752
sg160
I0
sg161
I4628149064
ssg162
(dp1488
g158
g164
sg159
I4627846568
sg160
I0
sg161
I4627493704
ssasg165
Nsg166
I65541
sg167
Nsg168
I4627846568
sasg192
S'0.358666062355'
p1489
sg194
S'core.gridding.Rolloff'
p1490
sg168
I4627493704
sg196
S'0.71733212471'
p1491
sa(dp1492
g36
(dp1493
g38
(lp1494
(dp1495
g41
S"<class 'gpi.widgets.TextBox'>"
p1496
sg43
S'I/O Info:'
p1497
sg45
(dp1498
S'outport'
p1499
I00
sS'quietval'
p1500
Nsg49
S'input: (20, 79, 825)\noutput: (20, 79, 825)'
p1501
sS'collapsed'
p1502
I00
sS'inport'
p1503
I00
sS'visible'
p1504
I01
sS'wordwrap'
p1505
I00
sS'id'
p1506
I4653625728
ssa(dp1507
g41
S"<class '/opt/gpi/lib/core/shapers/GPI/Reduce_GPI.ReduceSliders'>"
p1508
sg43
S'Dimension[-1]'
p1509
sg45
(dp1510
S'outport'
p1511
I00
sS'quietval'
p1512
Nsg49
(dp1513
g909
I825
sg267
I825
sg910
I3
sg911
I413
sg266
I1
ssS'min'
p1514
I1
sS'max'
p1515
I825
sS'collapsed'
p1516
I00
sS'inport'
p1517
I00
sS'visible'
p1518
I01
sS'id'
p1519
I4653626184
ssa(dp1520
g41
S"<class '/opt/gpi/lib/core/shapers/GPI/Reduce_GPI.ReduceSliders'>"
p1521
sg43
S'Dimension[-2]'
p1522
sg45
(dp1523
S'outport'
p1524
I00
sS'quietval'
p1525
Nsg49
(dp1526
g909
I79
sg267
I79
sg910
I3
sg911
I40
sg266
I1
ssS'min'
p1527
I1
sS'max'
p1528
I79
sS'collapsed'
p1529
I00
sS'inport'
p1530
I00
sS'visible'
p1531
I01
sS'id'
p1532
I4653631192
ssa(dp1533
g41
S"<class '/opt/gpi/lib/core/shapers/GPI/Reduce_GPI.ReduceSliders'>"
p1534
sg43
S'Dimension[-3]'
p1535
sg45
(dp1536
S'outport'
p1537
I00
sS'quietval'
p1538
Nsg49
(dp1539
g909
I20
sg267
I20
sg910
I3
sg911
I11
sg266
I1
ssS'min'
p1540
I1
sS'max'
p1541
I20
sS'collapsed'
p1542
I00
sS'inport'
p1543
I00
sS'visible'
p1544
I01
sS'id'
p1545
I4653636200
ssa(dp1546
g41
S"<class '/opt/gpi/lib/core/shapers/GPI/Reduce_GPI.ReduceSliders'>"
p1547
sg43
S'Dimension[-4]'
p1548
sg45
(dp1549
S'outport'
p1550
I00
sS'quietval'
p1551
Nsg49
(dp1552
g909
I1
sg267
I1
sg910
I2
sg911
I1
sg266
I1
ssS'min'
p1553
I1
sS'max'
p1554
I2
sS'collapsed'
p1555
I00
sS'inport'
p1556
I00
sS'visible'
p1557
I00
sS'id'
p1558
I4653645304
ssa(dp1559
g41
S"<class '/opt/gpi/lib/core/shapers/GPI/Reduce_GPI.ReduceSliders'>"
p1560
sg43
S'Dimension[-5]'
p1561
sg45
(dp1562
S'outport'
p1563
I00
sS'quietval'
p1564
Nsg49
(dp1565
g909
I1
sg267
I1
sg910
I2
sg911
I1
sg266
I1
ssS'min'
p1566
I1
sS'max'
p1567
I2
sS'collapsed'
p1568
I00
sS'inport'
p1569
I00
sS'visible'
p1570
I00
sS'id'
p1571
I4653650456
ssa(dp1572
g41
S"<class '/opt/gpi/lib/core/shapers/GPI/Reduce_GPI.ReduceSliders'>"
p1573
sg43
S'Dimension[-6]'
p1574
sg45
(dp1575
S'outport'
p1576
I00
sS'quietval'
p1577
Nsg49
(dp1578
g909
I100
sg267
I100
sg910
I3
sg911
I51
sg266
I1
ssS'min'
p1579
I1
sS'max'
p1580
I100
sS'collapsed'
p1581
I00
sS'inport'
p1582
I00
sS'visible'
p1583
I00
sS'id'
p1584
I4653655464
ssa(dp1585
g41
S"<class '/opt/gpi/lib/core/shapers/GPI/Reduce_GPI.ReduceSliders'>"
p1586
sg43
S'Dimension[-7]'
p1587
sg45
(dp1588
S'outport'
p1589
I00
sS'quietval'
p1590
Nsg49
(dp1591
g909
I100
sg267
I100
sg910
I3
sg911
I51
sg266
I1
ssS'min'
p1592
I1
sS'max'
p1593
I100
sS'collapsed'
p1594
I00
sS'inport'
p1595
I00
sS'visible'
p1596
I00
sS'id'
p1597
I4653660472
ssa(dp1598
g41
S"<class '/opt/gpi/lib/core/shapers/GPI/Reduce_GPI.ReduceSliders'>"
p1599
sg43
S'Dimension[-8]'
p1600
sg45
(dp1601
S'outport'
p1602
I00
sS'quietval'
p1603
Nsg49
(dp1604
g909
I100
sg267
I100
sg910
I3
sg911
I51
sg266
I1
ssS'min'
p1605
I1
sS'max'
p1606
I100
sS'collapsed'
p1607
I00
sS'inport'
p1608
I00
sS'visible'
p1609
I00
sS'id'
p1610
I4653665480
ssa(dp1611
g41
S"<class '/opt/gpi/lib/core/shapers/GPI/Reduce_GPI.ReduceSliders'>"
p1612
sg43
S'Dimension[-9]'
p1613
sg45
(dp1614
S'outport'
p1615
I00
sS'quietval'
p1616
Nsg49
(dp1617
g909
I100
sg267
I100
sg910
I3
sg911
I51
sg266
I1
ssS'min'
p1618
I1
sS'max'
p1619
I100
sS'collapsed'
p1620
I00
sS'inport'
p1621
I00
sS'visible'
p1622
I00
sS'id'
p1623
I4653670632
ssa(dp1624
g41
S"<class '/opt/gpi/lib/core/shapers/GPI/Reduce_GPI.ReduceSliders'>"
p1625
sg43
S'Dimension[-10]'
p1626
sg45
(dp1627
S'outport'
p1628
I00
sS'quietval'
p1629
Nsg49
(dp1630
g909
I100
sg267
I100
sg910
I3
sg911
I51
sg266
I1
ssS'min'
p1631
I1
sS'max'
p1632
I100
sS'collapsed'
p1633
I00
sS'inport'
p1634
I00
sS'visible'
p1635
I00
sS'id'
p1636
I4653675640
ssa(dp1637
g41
S"<class 'gpi.widgets.PushButton'>"
p1638
sg43
g1037
sg45
(dp1639
S'outport'
p1640
I00
sS'quietval'
p1641
Nsg49
I00
sS'collapsed'
p1642
I00
sS'inport'
p1643
I00
sS'visible'
p1644
I01
sS'toggle'
p1645
I01
sS'button_title'
p1646
g68
sS'id'
p1647
I4653680648
ssa(dp1648
g41
S"<class 'gpi.widgets.PushButton'>"
p1649
sg43
g1049
sg45
(dp1650
S'outport'
p1651
I00
sS'quietval'
p1652
Nsg49
I01
sS'collapsed'
p1653
I00
sS'inport'
p1654
I00
sS'visible'
p1655
I01
sS'toggle'
p1656
I01
sS'button_title'
p1657
g68
sS'id'
p1658
I4653681408
ssasg140
g141
ssg142
S'0.151466965675'
p1659
sg43
g1060
sg145
(lp1660
F67.22222222222223
aF-81.44444444444446
asg147
(lp1661
(dp1662
g150
g190
sg152
I0
sg153
(lp1663
(dp1664
g156
(dp1665
g158
g190
sg159
I4653682168
sg160
I0
sg161
I4653598576
ssg162
(dp1666
g158
g151
sg159
I4628121760
sg160
I0
sg161
I4628072304
ssasg165
Nsg166
I65540
sg167
I100
sg168
I4653682168
sa(dp1667
g150
g164
sg152
I0
sg153
(lp1668
(dp1669
g156
(dp1670
g158
g151
sg159
I4628348104
sg160
I0
sg161
I4628310936
ssg162
(dp1671
g158
g164
sg159
I4653682320
sg160
I0
sg161
I4653598576
ssasg165
Nsg166
I65541
sg167
Nsg168
I4653682320
sa(dp1672
g150
g1074
sg152
I1
sg153
(lp1673
sg165
Nsg166
I65541
sg167
Nsg168
I4653682472
sasg192
S'0.151466965675'
p1674
sg194
g1077
sg168
I4653598576
sg196
S'0.302933931351'
p1675
sassS'WALLTIME'
p1676
S'0.0720090866089'
p1677
s.